 AP210Viewer

 Timestamp is 3b202843 (Thu Jun 07 18:20:03 2001)

 Preferred load address is 00400000

 Start         Length     Name                   Class
 0001:00000000 000dfa34H .text                   CODE
 0001:000dfa40 00002508H .text$x                 CODE
 0002:00000000 00010e34H .rdata                  DATA
 0002:00010e38 00000044H .rdata$r                DATA
 0002:00010e80 00002630H .xdata$x                DATA
 0002:000134b0 00000000H .edata                  DATA
 0003:00000000 00000004H .CRT$XCA                DATA
 0003:00000004 00000004H .CRT$XCL                DATA
 0003:00000008 000008a4H .CRT$XCU                DATA
 0003:000008ac 00000004H .CRT$XCZ                DATA
 0003:000008b0 00000004H .CRT$XIA                DATA
 0003:000008b4 00000004H .CRT$XIZ                DATA
 0003:000008c0 00016b79H .data                   DATA
 0003:00017440 0006caccH .bss                    DATA
 0004:00000000 000000c8H .idata$2                DATA
 0004:000000c8 00000014H .idata$3                DATA
 0004:000000dc 00000a88H .idata$4                DATA
 0004:00000b64 00000a88H .idata$5                DATA
 0004:000015ec 00000900H .idata$6                DATA
 0005:00000000 00000af0H .rsrc$01                DATA
 0005:00000af0 000058c0H .rsrc$02                DATA

  Address         Publics by Value              Rva+Base     Lib:Object

 0001:00000000       ?_GetBaseClass@AP210DocManager@@KGPAUCRuntimeClass@@XZ 00401000 f   AP210DocManager.obj
 0001:00000020       ?GetRuntimeClass@AP210DocManager@@UBEPAUCRuntimeClass@@XZ 00401020 f   AP210DocManager.obj
 0001:00000040       ??0AP210DocManager@@QAE@XZ 00401040 f   AP210DocManager.obj
 0001:000000a0       ??_GAP210DocManager@@UAEPAXI@Z 004010a0 f i AP210DocManager.obj
 0001:000000a0       ??_EAP210DocManager@@UAEPAXI@Z 004010a0 f i AP210DocManager.obj
 0001:000000e0       ??1AP210DocManager@@UAE@XZ 004010e0 f   AP210DocManager.obj
 0001:00000110       ?DoPromptFileName@AP210DocManager@@UAEHAAVCString@@IKHPAVCDocTemplate@@@Z 00401110 f   AP210DocManager.obj
 0001:000006f0       ??1CFileDialog@@UAE@XZ     004016f0 f i AP210DocManager.obj
 0001:00000750       ??1CCommonDialog@@UAE@XZ   00401750 f i AP210DocManager.obj
 0001:00000770       ?OnFileOpen@AP210DocManager@@UAEXXZ 00401770 f   AP210DocManager.obj
 0001:00000820       ?OnFileOpenReadonly@AP210DocManager@@UAEXXZ 00401820 f   AP210DocManager.obj
 0001:000008e0       ?OnImportIdf@AP210DocManager@@UAEXXZ 004018e0 f   AP210DocManager.obj
 0001:00000990       ?DoPromptIDFFileName@AP210DocManager@@UAEHAAVCString@@IKHPAVCDocTemplate@@@Z 00401990 f   AP210DocManager.obj
 0001:00000ca0       ?CreateObject@CAP210ProdView@@SGPAVCObject@@XZ 00401ca0 f   AP210ProdView.obj
 0001:00000d20       ?_GetBaseClass@CAP210ProdView@@KGPAUCRuntimeClass@@XZ 00401d20 f   AP210ProdView.obj
 0001:00000d40       ?GetRuntimeClass@CAP210ProdView@@UBEPAUCRuntimeClass@@XZ 00401d40 f   AP210ProdView.obj
 0001:00000d60       ??0CAP210ProdView@@IAE@XZ  00401d60 f   AP210ProdView.obj
 0001:00000da0       ??_GCAP210ProdView@@MAEPAXI@Z 00401da0 f i AP210ProdView.obj
 0001:00000da0       ??_ECAP210ProdView@@MAEPAXI@Z 00401da0 f i AP210ProdView.obj
 0001:00000de0       ??1CAP210ProdView@@MAE@XZ  00401de0 f   AP210ProdView.obj
 0001:00000e80       ??1CTreeView@@UAE@XZ       00401e80 f i AP210ProdView.obj
 0001:00000ea0       ??1CCtrlView@@UAE@XZ       00401ea0 f i AP210ProdView.obj
 0001:00000f00       ?_GetBaseMessageMap@CAP210ProdView@@KGPBUAFX_MSGMAP@@XZ 00401f00 f   AP210ProdView.obj
 0001:00000f20       ?GetMessageMap@CAP210ProdView@@MBEPBUAFX_MSGMAP@@XZ 00401f20 f   AP210ProdView.obj
 0001:00000f40       ?AssertValid@CAP210ProdView@@MBEXXZ 00401f40 f   AP210ProdView.obj
 0001:00000f60       ?Dump@CAP210ProdView@@MBEXAAVCDumpContext@@@Z 00401f60 f   AP210ProdView.obj
 0001:00000f90       ?OnInitialUpdate@CAP210ProdView@@UAEXXZ 00401f90 f   AP210ProdView.obj
 0001:00000fc0       ?PopulateTree@CAP210ProdView@@QAEXXZ 00401fc0 f   AP210ProdView.obj
 0001:000011b0       ?OnUpdate@CAP210ProdView@@MAEXPAVCView@@JPAVCObject@@@Z 004021b0 f   AP210ProdView.obj
 0001:000011e0       ?Create@CAP210ProdView@@UAEHPBD0KABUtagRECT@@PAVCWnd@@IPAUCCreateContext@@@Z 004021e0 f   AP210ProdView.obj
 0001:00001230       ?OnSelchanged@CAP210ProdView@@IAEXPAUtagNMHDR@@PAJ@Z 00402230 f   AP210ProdView.obj
 0001:000015a0       ?TypeID@PhysicalUnit@@SAHXZ 004025a0 f i AP210ProdView.obj
 0001:000015c0       ?TypeID@Package@@SAHXZ     004025c0 f i AP210ProdView.obj
 0001:000015e0       ?TypeID@ComponentDefinition@@SAHXZ 004025e0 f i AP210ProdView.obj
 0001:00001600       ?TypeID@PackagedPart@@SAHXZ 00402600 f i AP210ProdView.obj
 0001:00001620       ?TypeID@MountingRestrictionArea@@SAHXZ 00402620 f i AP210ProdView.obj
 0001:00001640       ?TypeID@NonPlatedThruHole@@SAHXZ 00402640 f i AP210ProdView.obj
 0001:00001660       ?OnRButtonDblClk@CAP210ProdView@@IAEXIVCPoint@@@Z 00402660 f   AP210ProdView.obj
 0001:00001f50       ?TypeID@PackagedComponent@@SAHXZ 00402f50 f i AP210ProdView.obj
 0001:00001f70       ?OnRButtonDown@CAP210ProdView@@IAEXIVCPoint@@@Z 00402f70 f   AP210ProdView.obj
 0001:00001fd0       ?UpdateTree@CAP210ProdView@@QAEXXZ 00402fd0 f   AP210ProdView.obj
 0001:00002050       ?populatePackagesTree@CAP210ProdView@@AAEXPAVPWBDataBase@@UtagTVINSERTSTRUCTA@@AAVCTreeCtrl@@@Z 00403050 f   AP210ProdView.obj
 0001:00002190       ?SizeOf@AP210ObjectList@@QAEHXZ 00403190 f i AP210ProdView.obj
 0001:000021b0       ?populatePhysicalUnitTree@CAP210ProdView@@AAEXPAVPWBDataBase@@UtagTVINSERTSTRUCTA@@AAVCTreeCtrl@@@Z 004031b0 f   AP210ProdView.obj
 0001:00002300       ?populatePackagedPartTree@CAP210ProdView@@AAEXPAVPWBDataBase@@UtagTVINSERTSTRUCTA@@AAVCTreeCtrl@@@Z 00403300 f   AP210ProdView.obj
 0001:00002440       ?populateAssemblyTree@CAP210ProdView@@AAEXPAVPWBDataBase@@UtagTVINSERTSTRUCTA@@AAVCTreeCtrl@@@Z 00403440 f   AP210ProdView.obj
 0001:00002750       ?populateMountingRestrictionAreaTree@CAP210ProdView@@AAEXPAVPWBDataBase@@UtagTVINSERTSTRUCTA@@AAVCTreeCtrl@@@Z 00403750 f   AP210ProdView.obj
 0001:00002890       ?populateNonPlatedThruHoleTree@CAP210ProdView@@AAEXPAVPWBDataBase@@UtagTVINSERTSTRUCTA@@AAVCTreeCtrl@@@Z 00403890 f   AP210ProdView.obj
 0001:000029e0       ?OnComponentRestrictionArea@CAP210ProdView@@IAEXXZ 004039e0 f   AP210ProdView.obj
 0001:00002a50       ??1CComponentPlacementRestriction@@UAE@XZ 00403a50 f i AP210ProdView.obj
 0001:00002a70       ??0CAP210SplitWnd@@QAE@XZ  00403a70 f   AP210SplitWnd.obj
 0001:00002aa0       ??_ECAP210SplitWnd@@UAEPAXI@Z 00403aa0 f i AP210SplitWnd.obj
 0001:00002aa0       ??_GCAP210SplitWnd@@UAEPAXI@Z 00403aa0 f i AP210SplitWnd.obj
 0001:00002ae0       ??1CAP210SplitWnd@@UAE@XZ  00403ae0 f   AP210SplitWnd.obj
 0001:00002b10       ?_GetBaseMessageMap@CAP210SplitWnd@@KGPBUAFX_MSGMAP@@XZ 00403b10 f   AP210SplitWnd.obj
 0001:00002b30       ?GetMessageMap@CAP210SplitWnd@@MBEPBUAFX_MSGMAP@@XZ 00403b30 f   AP210SplitWnd.obj
 0001:00002b50       ?OnMouseWheel@CAP210SplitWnd@@IAEHIFVCPoint@@@Z 00403b50 f   AP210SplitWnd.obj
 0001:00002b70       ?SdaiMFCDebugErrorHandler@@YAXH@Z 00403b70 f   AP210Viewer.obj
 0001:00002ba0       ?_GetBaseMessageMap@CAP210ViewerApp@@KGPBUAFX_MSGMAP@@XZ 00403ba0 f   AP210Viewer.obj
 0001:00002bc0       ?GetMessageMap@CAP210ViewerApp@@MBEPBUAFX_MSGMAP@@XZ 00403bc0 f   AP210Viewer.obj
 0001:00002be0       ??0CAP210ViewerApp@@QAE@XZ 00403be0 f   AP210Viewer.obj
 0001:00002c10       ??_ECAP210ViewerApp@@UAEPAXI@Z 00403c10 f i AP210Viewer.obj
 0001:00002c10       ??_GCAP210ViewerApp@@UAEPAXI@Z 00403c10 f i AP210Viewer.obj
 0001:00002c50       ??1CAP210ViewerApp@@UAE@XZ 00403c50 f   AP210Viewer.obj
 0001:00002d70       ?InitInstance@CAP210ViewerApp@@UAEHXZ 00403d70 f   AP210Viewer.obj
 0001:00003290       ??0CAboutDlg@@QAE@XZ       00404290 f   AP210Viewer.obj
 0001:000032c0       ??_GCAboutDlg@@UAEPAXI@Z   004042c0 f i AP210Viewer.obj
 0001:000032c0       ??_ECAboutDlg@@UAEPAXI@Z   004042c0 f i AP210Viewer.obj
 0001:00003300       ??1CAboutDlg@@UAE@XZ       00404300 f i AP210Viewer.obj
 0001:00003320       ?DoDataExchange@CAboutDlg@@MAEXPAVCDataExchange@@@Z 00404320 f   AP210Viewer.obj
 0001:00003350       ?_GetBaseMessageMap@CAboutDlg@@KGPBUAFX_MSGMAP@@XZ 00404350 f   AP210Viewer.obj
 0001:00003370       ?GetMessageMap@CAboutDlg@@MBEPBUAFX_MSGMAP@@XZ 00404370 f   AP210Viewer.obj
 0001:00003390       ?OnAppAbout@CAP210ViewerApp@@QAEXXZ 00404390 f   AP210Viewer.obj
 0001:000033f0       ?OnReadmefile@CAP210ViewerApp@@QAEXXZ 004043f0 f   AP210Viewer.obj
 0001:000034f0       ?InitApplication@CAP210ViewerApp@@UAEHXZ 004044f0 f   AP210Viewer.obj
 0001:00003590       ?OnFilePreferences@CAP210ViewerApp@@QAEXXZ 00404590 f   AP210Viewer.obj
 0001:000035b0       ?OnFileOpenReadonly@CAP210ViewerApp@@QAEXXZ 004045b0 f   AP210Viewer.obj
 0001:00003610       ?OnImportIdf@CAP210ViewerApp@@QAEXXZ 00404610 f   AP210Viewer.obj
 0001:00003670       ?CreateObject@CAP210ViewerDoc@@SGPAVCObject@@XZ 00404670 f   AP210ViewerDoc.obj
 0001:000036f0       ?_GetBaseClass@CAP210ViewerDoc@@KGPAUCRuntimeClass@@XZ 004046f0 f   AP210ViewerDoc.obj
 0001:00003710       ?GetRuntimeClass@CAP210ViewerDoc@@UBEPAUCRuntimeClass@@XZ 00404710 f   AP210ViewerDoc.obj
 0001:00003730       ?_GetBaseMessageMap@CAP210ViewerDoc@@KGPBUAFX_MSGMAP@@XZ 00404730 f   AP210ViewerDoc.obj
 0001:00003750       ?GetMessageMap@CAP210ViewerDoc@@MBEPBUAFX_MSGMAP@@XZ 00404750 f   AP210ViewerDoc.obj
 0001:00003770       ??0CAP210ViewerDoc@@IAE@XZ 00404770 f   AP210ViewerDoc.obj
 0001:000037e0       ??_GCAP210ViewerDoc@@UAEPAXI@Z 004047e0 f i AP210ViewerDoc.obj
 0001:000037e0       ??_ECAP210ViewerDoc@@UAEPAXI@Z 004047e0 f i AP210ViewerDoc.obj
 0001:00003820       ??1CAP210ViewerDoc@@UAE@XZ 00404820 f   AP210ViewerDoc.obj
 0001:00003850       ?OnNewDocument@CAP210ViewerDoc@@UAEHXZ 00404850 f   AP210ViewerDoc.obj
 0001:00003890       ?AssertValid@CAP210ViewerDoc@@UBEXXZ 00404890 f   AP210ViewerDoc.obj
 0001:000038b0       ?Dump@CAP210ViewerDoc@@UBEXAAVCDumpContext@@@Z 004048b0 f   AP210ViewerDoc.obj
 0001:000038e0       ?OnOpenDocument@CAP210ViewerDoc@@UAEHPBD@Z 004048e0 f   AP210ViewerDoc.obj
 0001:00003c60       ?BuildDisplayModel@CAP210ViewerDoc@@MAEHPBD@Z 00404c60 f   AP210ViewerDoc.obj
 0001:00003d10       ?OnSaveDocument@CAP210ViewerDoc@@UAEHPBD@Z 00404d10 f   AP210ViewerDoc.obj
 0001:00003f40       ?OnCloseDocument@CAP210ViewerDoc@@UAEXXZ 00404f40 f   AP210ViewerDoc.obj
 0001:00003f90       ?BuildPackagedComponent@CAP210ViewerDoc@@IAEPAVPackagedComponent@@PAUSdai_Id@@0@Z 00404f90 f   AP210ViewerDoc.obj
 0001:00004240       ?BuildMechanicalComponent@CAP210ViewerDoc@@IAEPAVComponentDefinition@@PAUSdai_Id@@0@Z 00405240 f   AP210ViewerDoc.obj
 0001:00004540       ?BuildComponents@CAP210ViewerDoc@@IAEXXZ 00405540 f   AP210ViewerDoc.obj
 0001:000047a0       ?DoSave@CAP210ViewerDoc@@UAEHPBDH@Z 004057a0 f   AP210ViewerDoc.obj
 0001:00004b90       ??1AFX_EXCEPTION_LINK@@QAE@XZ 00405b90 f i AP210ViewerDoc.obj
 0001:00004bb0       ?SetPartNumber@CAP210ViewerDoc@@MAEXPAVPackagedComponent@@@Z 00405bb0 f   AP210ViewerDoc.obj
 0001:00004c10       ?OnFileProperties@CAP210ViewerDoc@@IAEXXZ 00405c10 f   AP210ViewerDoc.obj
 0001:00004cb0       ??1CPropertiesDlg@@UAE@XZ  00405cb0 f i AP210ViewerDoc.obj
 0001:00004d90       ?closeAP210Model@CAP210ViewerDoc@@AAEXVCString@@@Z 00405d90 f   AP210ViewerDoc.obj
 0001:00004f60       ??0CFileStatus@@QAE@XZ     00405f60 f i AP210ViewerDoc.obj
 0001:00004fa0       ?CreateObject@CAP210ViewerView@@SGPAVCObject@@XZ 00405fa0 f   AP210ViewerView.obj
 0001:00005020       ?_GetBaseClass@CAP210ViewerView@@KGPAUCRuntimeClass@@XZ 00406020 f   AP210ViewerView.obj
 0001:00005040       ?GetRuntimeClass@CAP210ViewerView@@UBEPAUCRuntimeClass@@XZ 00406040 f   AP210ViewerView.obj
 0001:00005060       ?_GetBaseMessageMap@CAP210ViewerView@@KGPBUAFX_MSGMAP@@XZ 00406060 f   AP210ViewerView.obj
 0001:00005080       ?GetMessageMap@CAP210ViewerView@@MBEPBUAFX_MSGMAP@@XZ 00406080 f   AP210ViewerView.obj
 0001:000050a0       ??0CAP210ViewerView@@IAE@XZ 004060a0 f   AP210ViewerView.obj
 0001:00005180       ??_ECAP210ViewerView@@UAEPAXI@Z 00406180 f i AP210ViewerView.obj
 0001:00005180       ??_GCAP210ViewerView@@UAEPAXI@Z 00406180 f i AP210ViewerView.obj
 0001:000051c0       ??1CAP210ViewerView@@UAE@XZ 004061c0 f   AP210ViewerView.obj
 0001:00005250       ?PreCreateWindow@CAP210ViewerView@@UAEHAAUtagCREATESTRUCTA@@@Z 00406250 f   AP210ViewerView.obj
 0001:000052a0       ?OnInitialUpdate@CAP210ViewerView@@MAEXXZ 004062a0 f   AP210ViewerView.obj
 0001:000052e0       ?OnPrepareDC@CAP210ViewerView@@UAEXPAVCDC@@PAUCPrintInfo@@@Z 004062e0 f   AP210ViewerView.obj
 0001:00005310       ?OnDraw@CAP210ViewerView@@UAEXPAVCDC@@@Z 00406310 f   AP210ViewerView.obj
 0001:00005410       ?OnPreparePrinting@CAP210ViewerView@@MAEHPAUCPrintInfo@@@Z 00406410 f   AP210ViewerView.obj
 0001:00005440       ?OnBeginPrinting@CAP210ViewerView@@MAEXPAVCDC@@PAUCPrintInfo@@@Z 00406440 f   AP210ViewerView.obj
 0001:00005490       ?OnPrint@CAP210ViewerView@@MAEXPAVCDC@@PAUCPrintInfo@@@Z 00406490 f   AP210ViewerView.obj
 0001:000054f0       ?OnEndPrinting@CAP210ViewerView@@MAEXPAVCDC@@PAUCPrintInfo@@@Z 004064f0 f   AP210ViewerView.obj
 0001:00005530       ?AssertValid@CAP210ViewerView@@UBEXXZ 00406530 f   AP210ViewerView.obj
 0001:00005550       ?Dump@CAP210ViewerView@@UBEXAAVCDumpContext@@@Z 00406550 f   AP210ViewerView.obj
 0001:00005580       ?GetDocument@CAP210ViewerView@@QAEPAVCAP210ViewerDoc@@XZ 00406580 f   AP210ViewerView.obj
 0001:000055a0       ?OnCreate@CAP210ViewerView@@IAEHPAUtagCREATESTRUCTA@@@Z 004065a0 f   AP210ViewerView.obj
 0001:00005780       ?DrawScene@CAP210ViewerView@@QAEXXZ 00406780 f   AP210ViewerView.obj
 0001:00005860       ?PrepareScene@CAP210ViewerView@@QAEXXZ 00406860 f   AP210ViewerView.obj
 0001:00005ac0       ?OutputGlError@CAP210ViewerView@@QAEXPAD@Z 00406ac0 f   AP210ViewerView.obj
 0001:00005b10       ?ComponentFromIndex@CAP210ViewerView@@QAEEHII@Z 00406b10 f   AP210ViewerView.obj
 0001:00005ba0       ?CreateRGBPalette@CAP210ViewerView@@QAEHPAUHDC__@@@Z 00406ba0 f   AP210ViewerView.obj
 0001:00005ea0       ?OnSize@CAP210ViewerView@@IAEXIHH@Z 00406ea0 f   AP210ViewerView.obj
 0001:00005fa0       ?OnDestroy@CAP210ViewerView@@IAEXXZ 00406fa0 f   AP210ViewerView.obj
 0001:00005ff0       ?OnEraseBkgnd@CAP210ViewerView@@IAEHPAVCDC@@@Z 00406ff0 f   AP210ViewerView.obj
 0001:00006010       ?DrawRuler@CAP210ViewerView@@IAEXNN@Z 00407010 f   AP210ViewerView.obj
 0001:00006430       ?DrawOrigin@CAP210ViewerView@@IAEXNN@Z 00407430 f   AP210ViewerView.obj
 0001:000064f0       ?ScaleDisplay@CAP210ViewerView@@IAEXXZ 004074f0 f   AP210ViewerView.obj
 0001:000066e0       ?TypeID@AP210Point@@SAHXZ  004076e0 f i AP210ViewerView.obj
 0001:00006700       ?OnMouseMove@CAP210ViewerView@@IAEXIVCPoint@@@Z 00407700 f   AP210ViewerView.obj
 0001:000067a0       ?OnLButtonDown@CAP210ViewerView@@IAEXIVCPoint@@@Z 004077a0 f   AP210ViewerView.obj
 0001:000067f0       ?OnMouseWheel@CAP210ViewerView@@IAEHIFVCPoint@@@Z 004077f0 f   AP210ViewerView.obj
 0001:000068c0       ?OnChar@CAP210ViewerView@@IAEXIII@Z 004078c0 f   AP210ViewerView.obj
 0001:00006a90       ?OnSetFocus@CAP210ViewerView@@IAEXPAVCWnd@@@Z 00407a90 f   AP210ViewerView.obj
 0001:00006ac0       ?OnKillFocus@CAP210ViewerView@@IAEXPAVCWnd@@@Z 00407ac0 f   AP210ViewerView.obj
 0001:00006af0       ?OnLButtonDblClk@CAP210ViewerView@@IAEXIVCPoint@@@Z 00407af0 f   AP210ViewerView.obj
 0001:00006b50       ?OnRButtonDblClk@CAP210ViewerView@@IAEXIVCPoint@@@Z 00407b50 f   AP210ViewerView.obj
 0001:00006f20       ?First@AP210ObjectList@@QAEPAVAP210Object@@XZ 00407f20 f i AP210ViewerView.obj
 0001:00006f40       ?OnSelect@CAP210ViewerView@@AAEHHH@Z 00407f40 f   AP210ViewerView.obj
 0001:00007180       ?ProcessHits@CAP210ViewerView@@AAEXHQAI@Z 00408180 f   AP210ViewerView.obj
 0001:00007420       ?RenderScene@CAP210ViewerView@@EAEXXZ 00408420 f   AP210ViewerView.obj
 0001:00007490       ?RenderScenePass@CAP210ViewerView@@EAEXXZ 00408490 f   AP210ViewerView.obj
 0001:000076e0       ?TranslateScene@CAP210ViewerView@@EAEXXZ 004086e0 f   AP210ViewerView.obj
 0001:000077e0       ?Perspective@CAP210ViewerView@@QAEXXZ 004087e0 f   AP210ViewerView.obj
 0001:00007890       ?calculateAngle@CAP210ViewerView@@AAENNN@Z 00408890 f   AP210ViewerView.obj
 0001:000078e0       ?calculateDistance@CAP210ViewerView@@AAENNN@Z 004088e0 f   AP210ViewerView.obj
 0001:00007950       ?set_eyeZ@CAP210ViewerView@@AAEXXZ 00408950 f   AP210ViewerView.obj
 0001:00007a60       ?OnComponentRestrictionArea@CAP210ViewerView@@IAEXXZ 00408a60 f   AP210ViewerView.obj
 0001:00007ad0       ?orientPrimarySurface@CAP210ViewerView@@AAEXXZ 00408ad0 f   AP210ViewerView.obj
 0001:00007c40       ?orientSecondarySurface@CAP210ViewerView@@AAEXXZ 00408c40 f   AP210ViewerView.obj
 0001:00007db0       ?OnPrimarySurface@CAP210ViewerView@@IAEXXZ 00408db0 f   AP210ViewerView.obj
 0001:00007df0       ?OnSecondarySurface@CAP210ViewerView@@IAEXXZ 00408df0 f   AP210ViewerView.obj
 0001:00007e30       ??0CAssemblyProductSelectDlg@@QAE@PAVCWnd@@@Z 00408e30 f   AssemblyProductSelectDlg.obj
 0001:00007ed0       ??_ECAssemblyProductSelectDlg@@UAEPAXI@Z 00408ed0 f i AssemblyProductSelectDlg.obj
 0001:00007ed0       ??_GCAssemblyProductSelectDlg@@UAEPAXI@Z 00408ed0 f i AssemblyProductSelectDlg.obj
 0001:00007f10       ??1CAssemblyProductSelectDlg@@UAE@XZ 00408f10 f i AssemblyProductSelectDlg.obj
 0001:00007f80       ?DoDataExchange@CAssemblyProductSelectDlg@@MAEXPAVCDataExchange@@@Z 00408f80 f   AssemblyProductSelectDlg.obj
 0001:00007fd0       ?_GetBaseMessageMap@CAssemblyProductSelectDlg@@KGPBUAFX_MSGMAP@@XZ 00408fd0 f   AssemblyProductSelectDlg.obj
 0001:00007ff0       ?GetMessageMap@CAssemblyProductSelectDlg@@MBEPBUAFX_MSGMAP@@XZ 00408ff0 f   AssemblyProductSelectDlg.obj
 0001:00008010       ?OnInitDialog@CAssemblyProductSelectDlg@@MAEHXZ 00409010 f   AssemblyProductSelectDlg.obj
 0001:00008150       ?setValues@CAssemblyProductSelectDlg@@QAEXPAUSdai_Id@@PAUSdai_Id_aggr@@@Z 00409150 f   AssemblyProductSelectDlg.obj
 0001:00008180       ?_GetBaseClass@CAssemblyPropertiesSheet@@KGPAUCRuntimeClass@@XZ 00409180 f   AssemblyPropertiesSheet.obj
 0001:000081a0       ?GetRuntimeClass@CAssemblyPropertiesSheet@@UBEPAUCRuntimeClass@@XZ 004091a0 f   AssemblyPropertiesSheet.obj
 0001:000081c0       ??0CAssemblyPropertiesSheet@@QAE@IPAVCWnd@@I@Z 004091c0 f   AssemblyPropertiesSheet.obj
 0001:00008250       ??_ECAssemblyPropertiesSheet@@UAEPAXI@Z 00409250 f i AssemblyPropertiesSheet.obj
 0001:00008250       ??_GCAssemblyPropertiesSheet@@UAEPAXI@Z 00409250 f i AssemblyPropertiesSheet.obj
 0001:00008290       ??0CAssemblyPropertiesSheet@@QAE@PBDPAVCWnd@@I@Z 00409290 f   AssemblyPropertiesSheet.obj
 0001:00008320       ??1CAssemblyPropertiesSheet@@UAE@XZ 00409320 f   AssemblyPropertiesSheet.obj
 0001:00008380       ?_GetBaseMessageMap@CAssemblyPropertiesSheet@@KGPBUAFX_MSGMAP@@XZ 00409380 f   AssemblyPropertiesSheet.obj
 0001:000083a0       ?GetMessageMap@CAssemblyPropertiesSheet@@MBEPBUAFX_MSGMAP@@XZ 004093a0 f   AssemblyPropertiesSheet.obj
 0001:000083c0       ?CreateObject@CChildFrame@@SGPAVCObject@@XZ 004093c0 f   ChildFrm.obj
 0001:00008440       ?_GetBaseClass@CChildFrame@@KGPAUCRuntimeClass@@XZ 00409440 f   ChildFrm.obj
 0001:00008460       ?GetRuntimeClass@CChildFrame@@UBEPAUCRuntimeClass@@XZ 00409460 f   ChildFrm.obj
 0001:00008480       ?_GetBaseMessageMap@CChildFrame@@KGPBUAFX_MSGMAP@@XZ 00409480 f   ChildFrm.obj
 0001:000084a0       ?GetMessageMap@CChildFrame@@MBEPBUAFX_MSGMAP@@XZ 004094a0 f   ChildFrm.obj
 0001:000084c0       ??0CChildFrame@@QAE@XZ     004094c0 f   ChildFrm.obj
 0001:00008540       ??_GCChildFrame@@UAEPAXI@Z 00409540 f i ChildFrm.obj
 0001:00008540       ??_ECChildFrame@@UAEPAXI@Z 00409540 f i ChildFrm.obj
 0001:00008580       ??1CMDIChildWnd@@UAE@XZ    00409580 f i ChildFrm.obj
 0001:000085a0       ??1CChildFrame@@UAE@XZ     004095a0 f   ChildFrm.obj
 0001:00008620       ?PreCreateWindow@CChildFrame@@UAEHAAUtagCREATESTRUCTA@@@Z 00409620 f   ChildFrm.obj
 0001:00008650       ?AssertValid@CChildFrame@@UBEXXZ 00409650 f   ChildFrm.obj
 0001:00008670       ?Dump@CChildFrame@@UBEXAAVCDumpContext@@@Z 00409670 f   ChildFrm.obj
 0001:000086a0       ?OnCreate@CChildFrame@@IAEHPAUtagCREATESTRUCTA@@@Z 004096a0 f   ChildFrm.obj
 0001:00008720       ?OnUpdateRefDes@CChildFrame@@IAEXPAVCCmdUI@@@Z 00409720 f   ChildFrm.obj
 0001:00008770       ?OnUpdatePartNumber@CChildFrame@@IAEXPAVCCmdUI@@@Z 00409770 f   ChildFrm.obj
 0001:000087c0       ?OnCreateClient@CChildFrame@@MAEHPAUtagCREATESTRUCTA@@PAUCCreateContext@@@Z 004097c0 f   ChildFrm.obj
 0001:00008900       ?_GetBaseClass@CComponentDefinitionSheet@@KGPAUCRuntimeClass@@XZ 00409900 f   ComponentDefinitionSheet.obj
 0001:00008920       ?GetRuntimeClass@CComponentDefinitionSheet@@UBEPAUCRuntimeClass@@XZ 00409920 f   ComponentDefinitionSheet.obj
 0001:00008940       ??0CComponentDefinitionSheet@@QAE@IPAVCWnd@@I@Z 00409940 f   ComponentDefinitionSheet.obj
 0001:00008ac0       ??_ECComponentDefinitionSheet@@UAEPAXI@Z 00409ac0 f i ComponentDefinitionSheet.obj
 0001:00008ac0       ??_GCComponentDefinitionSheet@@UAEPAXI@Z 00409ac0 f i ComponentDefinitionSheet.obj
 0001:00008b00       ??0CComponentDefinitionSheet@@QAE@PBDPAVCWnd@@I@Z 00409b00 f   ComponentDefinitionSheet.obj
 0001:00008c80       ??1CComponentDefinitionSheet@@UAE@XZ 00409c80 f   ComponentDefinitionSheet.obj
 0001:00008d60       ?OnFinalRelease@CComponentDefinitionSheet@@UAEXXZ 00409d60 f   ComponentDefinitionSheet.obj
 0001:00008d80       ?_GetBaseMessageMap@CComponentDefinitionSheet@@KGPBUAFX_MSGMAP@@XZ 00409d80 f   ComponentDefinitionSheet.obj
 0001:00008da0       ?GetMessageMap@CComponentDefinitionSheet@@MBEPBUAFX_MSGMAP@@XZ 00409da0 f   ComponentDefinitionSheet.obj
 0001:00008dc0       ?_GetBaseDispatchMap@CComponentDefinitionSheet@@KGPBUAFX_DISPMAP@@XZ 00409dc0 f   ComponentDefinitionSheet.obj
 0001:00008de0       ?GetDispatchMap@CComponentDefinitionSheet@@MBEPBUAFX_DISPMAP@@XZ 00409de0 f   ComponentDefinitionSheet.obj
 0001:00008e00       ?_GetBaseInterfaceMap@CComponentDefinitionSheet@@KGPBUAFX_INTERFACEMAP@@XZ 00409e00 f   ComponentDefinitionSheet.obj
 0001:00008e20       ?GetInterfaceMap@CComponentDefinitionSheet@@MBEPBUAFX_INTERFACEMAP@@XZ 00409e20 f   ComponentDefinitionSheet.obj
 0001:00008e40       ?setValues@CComponentDefinitionSheet@@UAEXPAUSdai_Id@@PAVComponentDefinition@@@Z 00409e40 f   ComponentDefinitionSheet.obj
 0001:00008ec0       ?setReadOnly@CComponentDefinitionSheet@@QAEXH@Z 00409ec0 f   ComponentDefinitionSheet.obj
 0001:00008ef0       ??0CComponentPlacementRestriction@@QAE@PAVCWnd@@@Z 00409ef0 f   ComponentPlacementRestriction.obj
 0001:00008f60       ??_ECComponentPlacementRestriction@@UAEPAXI@Z 00409f60 f i ComponentPlacementRestriction.obj
 0001:00008f60       ??_GCComponentPlacementRestriction@@UAEPAXI@Z 00409f60 f i ComponentPlacementRestriction.obj
 0001:00008fa0       ?OnFinalRelease@CComponentPlacementRestriction@@UAEXXZ 00409fa0 f   ComponentPlacementRestriction.obj
 0001:00008fc0       ?DoDataExchange@CComponentPlacementRestriction@@MAEXPAVCDataExchange@@@Z 00409fc0 f   ComponentPlacementRestriction.obj
 0001:00008ff0       ?_GetBaseMessageMap@CComponentPlacementRestriction@@KGPBUAFX_MSGMAP@@XZ 00409ff0 f   ComponentPlacementRestriction.obj
 0001:00009010       ?GetMessageMap@CComponentPlacementRestriction@@MBEPBUAFX_MSGMAP@@XZ 0040a010 f   ComponentPlacementRestriction.obj
 0001:00009030       ?_GetBaseDispatchMap@CComponentPlacementRestriction@@KGPBUAFX_DISPMAP@@XZ 0040a030 f   ComponentPlacementRestriction.obj
 0001:00009050       ?GetDispatchMap@CComponentPlacementRestriction@@MBEPBUAFX_DISPMAP@@XZ 0040a050 f   ComponentPlacementRestriction.obj
 0001:00009070       ?_GetBaseInterfaceMap@CComponentPlacementRestriction@@KGPBUAFX_INTERFACEMAP@@XZ 0040a070 f   ComponentPlacementRestriction.obj
 0001:00009090       ?GetInterfaceMap@CComponentPlacementRestriction@@MBEPBUAFX_INTERFACEMAP@@XZ 0040a090 f   ComponentPlacementRestriction.obj
 0001:000090b0       ?setValues@CComponentPlacementRestriction@@QAEXPAVPWBDataBase@@@Z 0040a0b0 f   ComponentPlacementRestriction.obj
 0001:000090d0       ?OnInitDialog@CComponentPlacementRestriction@@MAEHXZ 0040a0d0 f   ComponentPlacementRestriction.obj
 0001:00009110       ?OnOK@CComponentPlacementRestriction@@MAEXXZ 0040a110 f   ComponentPlacementRestriction.obj
 0001:00009190       ?CreateObject@CComponentPlacementRestrictionAreaPage@@SGPAVCObject@@XZ 0040a190 f   ComponentPlacementRestrictionAreaPage.obj
 0001:00009210       ?_GetBaseClass@CComponentPlacementRestrictionAreaPage@@KGPAUCRuntimeClass@@XZ 0040a210 f   ComponentPlacementRestrictionAreaPage.obj
 0001:00009230       ?GetRuntimeClass@CComponentPlacementRestrictionAreaPage@@UBEPAUCRuntimeClass@@XZ 0040a230 f   ComponentPlacementRestrictionAreaPage.obj
 0001:00009250       ??0CComponentPlacementRestrictionAreaPage@@QAE@XZ 0040a250 f   ComponentPlacementRestrictionAreaPage.obj
 0001:00009390       ??_GCComponentPlacementRestrictionAreaPage@@UAEPAXI@Z 0040a390 f i ComponentPlacementRestrictionAreaPage.obj
 0001:00009390       ??_ECComponentPlacementRestrictionAreaPage@@UAEPAXI@Z 0040a390 f i ComponentPlacementRestrictionAreaPage.obj
 0001:000093d0       ??1CComponentPlacementRestrictionAreaPage@@UAE@XZ 0040a3d0 f   ComponentPlacementRestrictionAreaPage.obj
 0001:000094a0       ?DoDataExchange@CComponentPlacementRestrictionAreaPage@@MAEXPAVCDataExchange@@@Z 0040a4a0 f   ComponentPlacementRestrictionAreaPage.obj
 0001:000095b0       ?_GetBaseMessageMap@CComponentPlacementRestrictionAreaPage@@KGPBUAFX_MSGMAP@@XZ 0040a5b0 f   ComponentPlacementRestrictionAreaPage.obj
 0001:000095d0       ?GetMessageMap@CComponentPlacementRestrictionAreaPage@@MBEPBUAFX_MSGMAP@@XZ 0040a5d0 f   ComponentPlacementRestrictionAreaPage.obj
 0001:000095f0       ?setValues@CComponentPlacementRestrictionAreaPage@@AAEXXZ 0040a5f0 f   ComponentPlacementRestrictionAreaPage.obj
 0001:000096f0       ?setValues@CComponentPlacementRestrictionAreaPage@@QAEXPAUSdai_Id@@PAVMountingRestrictionArea@@@Z 0040a6f0 f   ComponentPlacementRestrictionAreaPage.obj
 0001:00009720       ?setReadOnly@CComponentPlacementRestrictionAreaPage@@QAEXH@Z 0040a720 f   ComponentPlacementRestrictionAreaPage.obj
 0001:00009750       ?OnInitDialog@CComponentPlacementRestrictionAreaPage@@MAEHXZ 0040a750 f   ComponentPlacementRestrictionAreaPage.obj
 0001:00009830       ?OnGeneralPlacementFixed@CComponentPlacementRestrictionAreaPage@@IAEXXZ 0040a830 f   ComponentPlacementRestrictionAreaPage.obj
 0001:00009a70       ?_GetBaseClass@CComponentPlacementRestrictionAreaSheet@@KGPAUCRuntimeClass@@XZ 0040aa70 f   ComponentPlacementRestrictionAreaSheet.obj
 0001:00009a90       ?GetRuntimeClass@CComponentPlacementRestrictionAreaSheet@@UBEPAUCRuntimeClass@@XZ 0040aa90 f   ComponentPlacementRestrictionAreaSheet.obj
 0001:00009ab0       ??0CComponentPlacementRestrictionAreaSheet@@QAE@IPAVCWnd@@I@Z 0040aab0 f   ComponentPlacementRestrictionAreaSheet.obj
 0001:00009b60       ??_ECComponentPlacementRestrictionAreaSheet@@UAEPAXI@Z 0040ab60 f i ComponentPlacementRestrictionAreaSheet.obj
 0001:00009b60       ??_GCComponentPlacementRestrictionAreaSheet@@UAEPAXI@Z 0040ab60 f i ComponentPlacementRestrictionAreaSheet.obj
 0001:00009ba0       ??0CComponentPlacementRestrictionAreaSheet@@QAE@PBDPAVCWnd@@I@Z 0040aba0 f   ComponentPlacementRestrictionAreaSheet.obj
 0001:00009c50       ??1CComponentPlacementRestrictionAreaSheet@@UAE@XZ 0040ac50 f   ComponentPlacementRestrictionAreaSheet.obj
 0001:00009cd0       ?_GetBaseMessageMap@CComponentPlacementRestrictionAreaSheet@@KGPBUAFX_MSGMAP@@XZ 0040acd0 f   ComponentPlacementRestrictionAreaSheet.obj
 0001:00009cf0       ?GetMessageMap@CComponentPlacementRestrictionAreaSheet@@MBEPBUAFX_MSGMAP@@XZ 0040acf0 f   ComponentPlacementRestrictionAreaSheet.obj
 0001:00009d10       ?setValues@CComponentPlacementRestrictionAreaSheet@@UAEXPAVPWBDataBase@@PAVMountingRestrictionArea@@@Z 0040ad10 f   ComponentPlacementRestrictionAreaSheet.obj
 0001:00009d70       ?setReadOnly@CComponentPlacementRestrictionAreaSheet@@QAEXH@Z 0040ad70 f   ComponentPlacementRestrictionAreaSheet.obj
 0001:00009db0       ?_GetBaseClass@CComponentPropertiesSheet@@KGPAUCRuntimeClass@@XZ 0040adb0 f   ComponentPropertiesSheet.obj
 0001:00009dd0       ?GetRuntimeClass@CComponentPropertiesSheet@@UBEPAUCRuntimeClass@@XZ 0040add0 f   ComponentPropertiesSheet.obj
 0001:00009df0       ??0CComponentPropertiesSheet@@QAE@IPAVCWnd@@I@Z 0040adf0 f   ComponentPropertiesSheet.obj
 0001:00009f30       ??_ECComponentPropertiesSheet@@UAEPAXI@Z 0040af30 f i ComponentPropertiesSheet.obj
 0001:00009f30       ??_GCComponentPropertiesSheet@@UAEPAXI@Z 0040af30 f i ComponentPropertiesSheet.obj
 0001:00009f70       ??0CComponentPropertiesSheet@@QAE@PBDPAVCWnd@@I@Z 0040af70 f   ComponentPropertiesSheet.obj
 0001:0000a0b0       ??1CComponentPropertiesSheet@@UAE@XZ 0040b0b0 f   ComponentPropertiesSheet.obj
 0001:0000a170       ?_GetBaseMessageMap@CComponentPropertiesSheet@@KGPBUAFX_MSGMAP@@XZ 0040b170 f   ComponentPropertiesSheet.obj
 0001:0000a190       ?GetMessageMap@CComponentPropertiesSheet@@MBEPBUAFX_MSGMAP@@XZ 0040b190 f   ComponentPropertiesSheet.obj
 0001:0000a1b0       ?setValues@CComponentPropertiesSheet@@UAEXPAUSdai_Id@@PAVPackagedComponent@@@Z 0040b1b0 f   ComponentPropertiesSheet.obj
 0001:0000a270       ?setReadOnly@CComponentPropertiesSheet@@QAEXH@Z 0040b270 f   ComponentPropertiesSheet.obj
 0001:0000a2a0       ?CreateObject@CGeneralAssemblyPage@@SGPAVCObject@@XZ 0040b2a0 f   GeneralAssemblyPage.obj
 0001:0000a320       ?_GetBaseClass@CGeneralAssemblyPage@@KGPAUCRuntimeClass@@XZ 0040b320 f   GeneralAssemblyPage.obj
 0001:0000a340       ?GetRuntimeClass@CGeneralAssemblyPage@@UBEPAUCRuntimeClass@@XZ 0040b340 f   GeneralAssemblyPage.obj
 0001:0000a360       ??0CGeneralAssemblyPage@@QAE@XZ 0040b360 f   GeneralAssemblyPage.obj
 0001:0000a400       ??_ECGeneralAssemblyPage@@UAEPAXI@Z 0040b400 f i GeneralAssemblyPage.obj
 0001:0000a400       ??_GCGeneralAssemblyPage@@UAEPAXI@Z 0040b400 f i GeneralAssemblyPage.obj
 0001:0000a440       ??1CGeneralAssemblyPage@@UAE@XZ 0040b440 f   GeneralAssemblyPage.obj
 0001:0000a4c0       ?DoDataExchange@CGeneralAssemblyPage@@MAEXPAVCDataExchange@@@Z 0040b4c0 f   GeneralAssemblyPage.obj
 0001:0000a510       ?_GetBaseMessageMap@CGeneralAssemblyPage@@KGPBUAFX_MSGMAP@@XZ 0040b510 f   GeneralAssemblyPage.obj
 0001:0000a530       ?GetMessageMap@CGeneralAssemblyPage@@MBEPBUAFX_MSGMAP@@XZ 0040b530 f   GeneralAssemblyPage.obj
 0001:0000a550       ?CreateObject@CGeneralInterconnectModulePage@@SGPAVCObject@@XZ 0040b550 f   GeneralInterconnectModulePage.obj
 0001:0000a5d0       ?_GetBaseClass@CGeneralInterconnectModulePage@@KGPAUCRuntimeClass@@XZ 0040b5d0 f   GeneralInterconnectModulePage.obj
 0001:0000a5f0       ?GetRuntimeClass@CGeneralInterconnectModulePage@@UBEPAUCRuntimeClass@@XZ 0040b5f0 f   GeneralInterconnectModulePage.obj
 0001:0000a610       ??0CGeneralInterconnectModulePage@@QAE@XZ 0040b610 f   GeneralInterconnectModulePage.obj
 0001:0000a6b0       ??_GCGeneralInterconnectModulePage@@UAEPAXI@Z 0040b6b0 f i GeneralInterconnectModulePage.obj
 0001:0000a6b0       ??_ECGeneralInterconnectModulePage@@UAEPAXI@Z 0040b6b0 f i GeneralInterconnectModulePage.obj
 0001:0000a6f0       ??1CGeneralInterconnectModulePage@@UAE@XZ 0040b6f0 f   GeneralInterconnectModulePage.obj
 0001:0000a770       ?DoDataExchange@CGeneralInterconnectModulePage@@MAEXPAVCDataExchange@@@Z 0040b770 f   GeneralInterconnectModulePage.obj
 0001:0000a7e0       ?_GetBaseMessageMap@CGeneralInterconnectModulePage@@KGPBUAFX_MSGMAP@@XZ 0040b7e0 f   GeneralInterconnectModulePage.obj
 0001:0000a800       ?GetMessageMap@CGeneralInterconnectModulePage@@MBEPBUAFX_MSGMAP@@XZ 0040b800 f   GeneralInterconnectModulePage.obj
 0001:0000a820       ?setValues@CGeneralInterconnectModulePage@@QAEXPAUSdai_Id@@PAVBoardComponent@@@Z 0040b820 f   GeneralInterconnectModulePage.obj
 0001:0000a890       ?OnGeneralInterconnectModuleTransparentValue@CGeneralInterconnectModulePage@@IAEXXZ 0040b890 f   GeneralInterconnectModulePage.obj
 0001:0000a8b0       ?OnApply@CGeneralInterconnectModulePage@@UAEHXZ 0040b8b0 f   GeneralInterconnectModulePage.obj
 0001:0000a930       ?setReadOnly@CGeneralInterconnectModulePage@@QAEXH@Z 0040b930 f   GeneralInterconnectModulePage.obj
 0001:0000a960       ?OnChangeGeneralInterconnectModuleNameValue@CGeneralInterconnectModulePage@@IAEXXZ 0040b960 f   GeneralInterconnectModulePage.obj
 0001:0000a980       ?CreateObject@CGeneralPackagedComponentPage@@SGPAVCObject@@XZ 0040b980 f   GeneralPackagedComponentPage.obj
 0001:0000aa00       ?_GetBaseClass@CGeneralPackagedComponentPage@@KGPAUCRuntimeClass@@XZ 0040ba00 f   GeneralPackagedComponentPage.obj
 0001:0000aa20       ?GetRuntimeClass@CGeneralPackagedComponentPage@@UBEPAUCRuntimeClass@@XZ 0040ba20 f   GeneralPackagedComponentPage.obj
 0001:0000aa40       ??0CGeneralPackagedComponentPage@@QAE@I@Z 0040ba40 f   GeneralPackagedComponentPage.obj
 0001:0000abc0       ??_ECGeneralPackagedComponentPage@@UAEPAXI@Z 0040bbc0 f i GeneralPackagedComponentPage.obj
 0001:0000abc0       ??_GCGeneralPackagedComponentPage@@UAEPAXI@Z 0040bbc0 f i GeneralPackagedComponentPage.obj
 0001:0000ac00       ??1CGeneralPackagedComponentPage@@UAE@XZ 0040bc00 f   GeneralPackagedComponentPage.obj
 0001:0000ace0       ?DoDataExchange@CGeneralPackagedComponentPage@@MAEXPAVCDataExchange@@@Z 0040bce0 f   GeneralPackagedComponentPage.obj
 0001:0000ae50       ?_GetBaseMessageMap@CGeneralPackagedComponentPage@@KGPBUAFX_MSGMAP@@XZ 0040be50 f   GeneralPackagedComponentPage.obj
 0001:0000ae70       ?GetMessageMap@CGeneralPackagedComponentPage@@MBEPBUAFX_MSGMAP@@XZ 0040be70 f   GeneralPackagedComponentPage.obj
 0001:0000ae90       ?setValues@CGeneralPackagedComponentPage@@QAEXPAUSdai_Id@@PAVComponentDefinition@@@Z 0040be90 f   GeneralPackagedComponentPage.obj
 0001:0000af20       ?getComponent@ComponentDefinition@@QAEPAUSdai_Id@@XZ 0040bf20 f i GeneralPackagedComponentPage.obj
 0001:0000af40       ?setValues@CGeneralPackagedComponentPage@@AAEXXZ 0040bf40 f   GeneralPackagedComponentPage.obj
 0001:0000b0e0       ?OnInitDialog@CGeneralPackagedComponentPage@@MAEHXZ 0040c0e0 f   GeneralPackagedComponentPage.obj
 0001:0000b1d0       ?OnApply@CGeneralPackagedComponentPage@@UAEHXZ 0040c1d0 f   GeneralPackagedComponentPage.obj
 0001:0000b2f0       ?OnGeneralPlacementFixed@CGeneralPackagedComponentPage@@IAEXXZ 0040c2f0 f   GeneralPackagedComponentPage.obj
 0001:0000b5d0       ?OnChangeGeneralLocationXValue@CGeneralPackagedComponentPage@@IAEXXZ 0040c5d0 f   GeneralPackagedComponentPage.obj
 0001:0000b5f0       ?OnChangeGeneralLocationYValue@CGeneralPackagedComponentPage@@IAEXXZ 0040c5f0 f   GeneralPackagedComponentPage.obj
 0001:0000b610       ?OnChangePackagedComponentRotationValue@CGeneralPackagedComponentPage@@IAEXXZ 0040c610 f   GeneralPackagedComponentPage.obj
 0001:0000b630       ?OnSelchangePackagedComponentSurface@CGeneralPackagedComponentPage@@IAEXXZ 0040c630 f   GeneralPackagedComponentPage.obj
 0001:0000b660       ?setReadOnly@CGeneralPackagedComponentPage@@QAEXH@Z 0040c660 f   GeneralPackagedComponentPage.obj
 0001:0000b690       ?CreateObject@CGeneralPackagedPartPage@@SGPAVCObject@@XZ 0040c690 f   GeneralPackagedPartPage.obj
 0001:0000b710       ?_GetBaseClass@CGeneralPackagedPartPage@@KGPAUCRuntimeClass@@XZ 0040c710 f   GeneralPackagedPartPage.obj
 0001:0000b730       ?GetRuntimeClass@CGeneralPackagedPartPage@@UBEPAUCRuntimeClass@@XZ 0040c730 f   GeneralPackagedPartPage.obj
 0001:0000b750       ??0CGeneralPackagedPartPage@@QAE@XZ 0040c750 f   GeneralPackagedPartPage.obj
 0001:0000b7f0       ??_GCGeneralPackagedPartPage@@UAEPAXI@Z 0040c7f0 f i GeneralPackagedPartPage.obj
 0001:0000b7f0       ??_ECGeneralPackagedPartPage@@UAEPAXI@Z 0040c7f0 f i GeneralPackagedPartPage.obj
 0001:0000b830       ??1CGeneralPackagedPartPage@@UAE@XZ 0040c830 f   GeneralPackagedPartPage.obj
 0001:0000b890       ?DoDataExchange@CGeneralPackagedPartPage@@MAEXPAVCDataExchange@@@Z 0040c890 f   GeneralPackagedPartPage.obj
 0001:0000b910       ?_GetBaseMessageMap@CGeneralPackagedPartPage@@KGPBUAFX_MSGMAP@@XZ 0040c910 f   GeneralPackagedPartPage.obj
 0001:0000b930       ?GetMessageMap@CGeneralPackagedPartPage@@MBEPBUAFX_MSGMAP@@XZ 0040c930 f   GeneralPackagedPartPage.obj
 0001:0000b950       ?setValues@CGeneralPackagedPartPage@@QAEXPAUSdai_Id@@PAVPackagedPart@@@Z 0040c950 f   GeneralPackagedPartPage.obj
 0001:0000b9c0       ?OnChangeGeneralHeightValue@CGeneralPackagedPartPage@@IAEXXZ 0040c9c0 f   GeneralPackagedPartPage.obj
 0001:0000b9e0       ?CreateObject@CGeneralPackagePage@@SGPAVCObject@@XZ 0040c9e0 f   GeneralPackagePage.obj
 0001:0000ba60       ?_GetBaseClass@CGeneralPackagePage@@KGPAUCRuntimeClass@@XZ 0040ca60 f   GeneralPackagePage.obj
 0001:0000ba80       ?GetRuntimeClass@CGeneralPackagePage@@UBEPAUCRuntimeClass@@XZ 0040ca80 f   GeneralPackagePage.obj
 0001:0000baa0       ??0CGeneralPackagePage@@QAE@I@Z 0040caa0 f   GeneralPackagePage.obj
 0001:0000bb60       ??_GCGeneralPackagePage@@UAEPAXI@Z 0040cb60 f i GeneralPackagePage.obj
 0001:0000bb60       ??_ECGeneralPackagePage@@UAEPAXI@Z 0040cb60 f i GeneralPackagePage.obj
 0001:0000bba0       ??1CGeneralPackagePage@@UAE@XZ 0040cba0 f   GeneralPackagePage.obj
 0001:0000bc20       ?DoDataExchange@CGeneralPackagePage@@MAEXPAVCDataExchange@@@Z 0040cc20 f   GeneralPackagePage.obj
 0001:0000bcb0       ?_GetBaseMessageMap@CGeneralPackagePage@@KGPBUAFX_MSGMAP@@XZ 0040ccb0 f   GeneralPackagePage.obj
 0001:0000bcd0       ?GetMessageMap@CGeneralPackagePage@@MBEPBUAFX_MSGMAP@@XZ 0040ccd0 f   GeneralPackagePage.obj
 0001:0000bcf0       ?setValues@CGeneralPackagePage@@UAEXPAUSdai_Id@@PAVPhysicalUnit@@@Z 0040ccf0 f   GeneralPackagePage.obj
 0001:0000bd50       ?OnInitDialog@CGeneralPackagePage@@MAEHXZ 0040cd50 f   GeneralPackagePage.obj
 0001:0000bd90       ?setReadOnly@CGeneralPackagePage@@UAEXH@Z 0040cd90 f   GeneralPackagePage.obj
 0001:0000bdc0       ?OnApply@CGeneralPackagePage@@UAEHXZ 0040cdc0 f   GeneralPackagePage.obj
 0001:0000be20       ?OnChangeGeneralHeightValue@CGeneralPackagePage@@IAEXXZ 0040ce20 f   GeneralPackagePage.obj
 0001:0000be40       ?CreateObject@CIDFDoc@@SGPAVCObject@@XZ 0040ce40 f   IDFDoc.obj
 0001:0000bec0       ?_GetBaseClass@CIDFDoc@@KGPAUCRuntimeClass@@XZ 0040cec0 f   IDFDoc.obj
 0001:0000bee0       ?GetRuntimeClass@CIDFDoc@@UBEPAUCRuntimeClass@@XZ 0040cee0 f   IDFDoc.obj
 0001:0000bf00       ??0CIDFDoc@@IAE@XZ         0040cf00 f   IDFDoc.obj
 0001:0000bf30       ??_ECIDFDoc@@UAEPAXI@Z     0040cf30 f i IDFDoc.obj
 0001:0000bf30       ??_GCIDFDoc@@UAEPAXI@Z     0040cf30 f i IDFDoc.obj
 0001:0000bf70       ?OnNewDocument@CIDFDoc@@MAEHXZ 0040cf70 f   IDFDoc.obj
 0001:0000bfa0       ??1CIDFDoc@@UAE@XZ         0040cfa0 f   IDFDoc.obj
 0001:0000bfd0       ?_GetBaseMessageMap@CIDFDoc@@KGPBUAFX_MSGMAP@@XZ 0040cfd0 f   IDFDoc.obj
 0001:0000bff0       ?GetMessageMap@CIDFDoc@@MBEPBUAFX_MSGMAP@@XZ 0040cff0 f   IDFDoc.obj
 0001:0000c010       ?AssertValid@CIDFDoc@@UBEXXZ 0040d010 f   IDFDoc.obj
 0001:0000c030       ?Dump@CIDFDoc@@UBEXAAVCDumpContext@@@Z 0040d030 f   IDFDoc.obj
 0001:0000c060       ?OnOpenDocument@CIDFDoc@@UAEHPBD@Z 0040d060 f   IDFDoc.obj
 0001:0000c3c0       ?OnCloseDocument@CIDFDoc@@UAEXXZ 0040d3c0 f   IDFDoc.obj
 0001:0000c540       ?OnSaveDocument@CIDFDoc@@UAEHPBD@Z 0040d540 f   IDFDoc.obj
 0001:0000c6f0       ?OnFileProperties@CIDFDoc@@IAEXXZ 0040d6f0 f   IDFDoc.obj
 0001:0000c7a0       ?DoSave@CIDFDoc@@UAEHPBDH@Z 0040d7a0 f   IDFDoc.obj
 0001:0000cad0       ?CreateAP210Aim@CIDFDoc@@QAEHPAD0@Z 0040dad0 f   IDFDoc.obj
 0001:0000cc70       ?CreateAP210Arm@CIDFDoc@@QAEHPAD0@Z 0040dc70 f   IDFDoc.obj
 0001:0000cfd0       ?schemaInstanceTypes@SchemaMap@@QAEPAVListOfString@@XZ 0040dfd0 f i IDFDoc.obj
 0001:0000d6f0       ??_GSchemaMap@@QAEPAXI@Z   0040e6f0 f i IDFDoc.obj
 0001:0000d730       ??1SchemaMap@@QAE@XZ       0040e730 f i IDFDoc.obj
 0001:0000d790       ??1ListOfString@@UAE@XZ    0040e790 f i IDFDoc.obj
 0001:0000d7b0       ?run_mapping@CIDFDoc@@QAEXPAVSchemaMap@@H@Z 0040e7b0 f   IDFDoc.obj
 0001:0000d8a0       ?bindSchemaInstance@SchemaMap@@QAEXHPAVRoseDesign@@@Z 0040e8a0 f i IDFDoc.obj
 0001:0000d8d0       ?verbose@SchemaMap@@QAEXH@Z 0040e8d0 f i IDFDoc.obj
 0001:0000d8f0       ?put@ArrayOfRoseObject@@QAEPAV1@PAVRoseObject@@I@Z 0040e8f0 f i IDFDoc.obj
 0001:0000d920       ??1RoseList@@UAE@XZ        0040e920 f i IDFDoc.obj
 0001:0000d940       ?_GetBaseClass@CInterconnectModulePropertiesSheet@@KGPAUCRuntimeClass@@XZ 0040e940 f   InterconnectModulePropertiesSheet.obj
 0001:0000d960       ?GetRuntimeClass@CInterconnectModulePropertiesSheet@@UBEPAUCRuntimeClass@@XZ 0040e960 f   InterconnectModulePropertiesSheet.obj
 0001:0000d980       ??0CInterconnectModulePropertiesSheet@@QAE@IPAVCWnd@@I@Z 0040e980 f   InterconnectModulePropertiesSheet.obj
 0001:0000da40       ??_ECInterconnectModulePropertiesSheet@@UAEPAXI@Z 0040ea40 f i InterconnectModulePropertiesSheet.obj
 0001:0000da40       ??_GCInterconnectModulePropertiesSheet@@UAEPAXI@Z 0040ea40 f i InterconnectModulePropertiesSheet.obj
 0001:0000da80       ??0CInterconnectModulePropertiesSheet@@QAE@PBDPAVCWnd@@I@Z 0040ea80 f   InterconnectModulePropertiesSheet.obj
 0001:0000db40       ??1CInterconnectModulePropertiesSheet@@UAE@XZ 0040eb40 f   InterconnectModulePropertiesSheet.obj
 0001:0000dbc0       ?OnFinalRelease@CInterconnectModulePropertiesSheet@@UAEXXZ 0040ebc0 f   InterconnectModulePropertiesSheet.obj
 0001:0000dbe0       ?_GetBaseMessageMap@CInterconnectModulePropertiesSheet@@KGPBUAFX_MSGMAP@@XZ 0040ebe0 f   InterconnectModulePropertiesSheet.obj
 0001:0000dc00       ?GetMessageMap@CInterconnectModulePropertiesSheet@@MBEPBUAFX_MSGMAP@@XZ 0040ec00 f   InterconnectModulePropertiesSheet.obj
 0001:0000dc20       ?_GetBaseDispatchMap@CInterconnectModulePropertiesSheet@@KGPBUAFX_DISPMAP@@XZ 0040ec20 f   InterconnectModulePropertiesSheet.obj
 0001:0000dc40       ?GetDispatchMap@CInterconnectModulePropertiesSheet@@MBEPBUAFX_DISPMAP@@XZ 0040ec40 f   InterconnectModulePropertiesSheet.obj
 0001:0000dc60       ?_GetBaseInterfaceMap@CInterconnectModulePropertiesSheet@@KGPBUAFX_INTERFACEMAP@@XZ 0040ec60 f   InterconnectModulePropertiesSheet.obj
 0001:0000dc80       ?GetInterfaceMap@CInterconnectModulePropertiesSheet@@MBEPBUAFX_INTERFACEMAP@@XZ 0040ec80 f   InterconnectModulePropertiesSheet.obj
 0001:0000dca0       ?setValues@CInterconnectModulePropertiesSheet@@UAEXPAUSdai_Id@@PAVBoardComponent@@@Z 0040eca0 f   InterconnectModulePropertiesSheet.obj
 0001:0000dcf0       ?setReadOnly@CInterconnectModulePropertiesSheet@@QAEXH@Z 0040ecf0 f   InterconnectModulePropertiesSheet.obj
 0001:0000dd30       ?CreateObject@CInterconnectModuleUsageViewPage@@SGPAVCObject@@XZ 0040ed30 f   InterconnectModuleUsageViewPage.obj
 0001:0000ddb0       ?_GetBaseClass@CInterconnectModuleUsageViewPage@@KGPAUCRuntimeClass@@XZ 0040edb0 f   InterconnectModuleUsageViewPage.obj
 0001:0000ddd0       ?GetRuntimeClass@CInterconnectModuleUsageViewPage@@UBEPAUCRuntimeClass@@XZ 0040edd0 f   InterconnectModuleUsageViewPage.obj
 0001:0000ddf0       ??0CInterconnectModuleUsageViewPage@@QAE@XZ 0040edf0 f   InterconnectModuleUsageViewPage.obj
 0001:0000dfd0       ??_ECInterconnectModuleUsageViewPage@@UAEPAXI@Z 0040efd0 f i InterconnectModuleUsageViewPage.obj
 0001:0000dfd0       ??_GCInterconnectModuleUsageViewPage@@UAEPAXI@Z 0040efd0 f i InterconnectModuleUsageViewPage.obj
 0001:0000e010       ??1CInterconnectModuleUsageViewPage@@UAE@XZ 0040f010 f   InterconnectModuleUsageViewPage.obj
 0001:0000e130       ?OnFinalRelease@CInterconnectModuleUsageViewPage@@UAEXXZ 0040f130 f   InterconnectModuleUsageViewPage.obj
 0001:0000e150       ?DoDataExchange@CInterconnectModuleUsageViewPage@@MAEXPAVCDataExchange@@@Z 0040f150 f   InterconnectModuleUsageViewPage.obj
 0001:0000e370       ?_GetBaseMessageMap@CInterconnectModuleUsageViewPage@@KGPBUAFX_MSGMAP@@XZ 0040f370 f   InterconnectModuleUsageViewPage.obj
 0001:0000e390       ?GetMessageMap@CInterconnectModuleUsageViewPage@@MBEPBUAFX_MSGMAP@@XZ 0040f390 f   InterconnectModuleUsageViewPage.obj
 0001:0000e3b0       ?_GetBaseDispatchMap@CInterconnectModuleUsageViewPage@@KGPBUAFX_DISPMAP@@XZ 0040f3b0 f   InterconnectModuleUsageViewPage.obj
 0001:0000e3d0       ?GetDispatchMap@CInterconnectModuleUsageViewPage@@MBEPBUAFX_DISPMAP@@XZ 0040f3d0 f   InterconnectModuleUsageViewPage.obj
 0001:0000e3f0       ?_GetBaseInterfaceMap@CInterconnectModuleUsageViewPage@@KGPBUAFX_INTERFACEMAP@@XZ 0040f3f0 f   InterconnectModuleUsageViewPage.obj
 0001:0000e410       ?GetInterfaceMap@CInterconnectModuleUsageViewPage@@MBEPBUAFX_INTERFACEMAP@@XZ 0040f410 f   InterconnectModuleUsageViewPage.obj
 0001:0000e430       ?setValues@CInterconnectModuleUsageViewPage@@QAEXPAUSdai_Id@@PAVBoardComponent@@@Z 0040f430 f   InterconnectModuleUsageViewPage.obj
 0001:0000e490       ?setReadOnly@CInterconnectModuleUsageViewPage@@QAEXH@Z 0040f490 f   InterconnectModuleUsageViewPage.obj
 0001:0000e4c0       ?OnInitDialog@CInterconnectModuleUsageViewPage@@MAEHXZ 0040f4c0 f   InterconnectModuleUsageViewPage.obj
 0001:0000e6b0       ?OnApply@CInterconnectModuleUsageViewPage@@UAEHXZ 0040f6b0 f   InterconnectModuleUsageViewPage.obj
 0001:0000e710       ?OnChangeLocatedThicknessValue@CInterconnectModuleUsageViewPage@@IAEXXZ 0040f710 f   InterconnectModuleUsageViewPage.obj
 0001:0000e730       ?OnLocatedThickness@CInterconnectModuleUsageViewPage@@IAEXXZ 0040f730 f   InterconnectModuleUsageViewPage.obj
 0001:0000e780       ?OnMaximumOverDielectric@CInterconnectModuleUsageViewPage@@IAEXXZ 0040f780 f   InterconnectModuleUsageViewPage.obj
 0001:0000e7d0       ?OnMaximumOverMetal@CInterconnectModuleUsageViewPage@@IAEXXZ 0040f7d0 f   InterconnectModuleUsageViewPage.obj
 0001:0000e820       ?OnMinimumOverDielectric@CInterconnectModuleUsageViewPage@@IAEXXZ 0040f820 f   InterconnectModuleUsageViewPage.obj
 0001:0000e870       ?OnMinimumOverMetal@CInterconnectModuleUsageViewPage@@IAEXXZ 0040f870 f   InterconnectModuleUsageViewPage.obj
 0001:0000e8c0       ?OnUseLocatedThickness@CInterconnectModuleUsageViewPage@@IAEXXZ 0040f8c0 f   InterconnectModuleUsageViewPage.obj
 0001:0000e8e0       ?OnUseMaximumOverDielectric@CInterconnectModuleUsageViewPage@@IAEXXZ 0040f8e0 f   InterconnectModuleUsageViewPage.obj
 0001:0000e900       ?OnUseMaximumOverMetal@CInterconnectModuleUsageViewPage@@IAEXXZ 0040f900 f   InterconnectModuleUsageViewPage.obj
 0001:0000e920       ?OnUseMinimumOverDielectric@CInterconnectModuleUsageViewPage@@IAEXXZ 0040f920 f   InterconnectModuleUsageViewPage.obj
 0001:0000e940       ?OnUseMinimumOverMetal@CInterconnectModuleUsageViewPage@@IAEXXZ 0040f940 f   InterconnectModuleUsageViewPage.obj
 0001:0000e960       ?getNumberOfSetThicknesses@CInterconnectModuleUsageViewPage@@AAEHXZ 0040f960 f   InterconnectModuleUsageViewPage.obj
 0001:0000e9f0       ?setRequirementCheckBox@CInterconnectModuleUsageViewPage@@AAEXPAVCButton@@PAH@Z 0040f9f0 f   InterconnectModuleUsageViewPage.obj
 0001:0000ec00       ??0IOAP210@@QAE@PAD0@Z     0040fc00 f   IOAP210.obj
 0001:0000ec90       ?writeObject@IORoot@@UAEXPAU_iobuf@@PAVRoseObject@@@Z 0040fc90 f i IOAP210.obj
 0001:0000ecb0       ?readObject@IORoot@@UAEPAVRoseObject@@PAU_iobuf@@@Z 0040fcb0 f i IOAP210.obj
 0001:0000ecd0       ?isBinary@IORoot@@UAEDXZ   0040fcd0 f i IOAP210.obj
 0001:0000ecf0       ?format@IOAP210@@UAEPADXZ  0040fcf0 f i IOAP210.obj
 0001:0000ed10       ?extension@IOAP210@@UAEPADXZ 0040fd10 f i IOAP210.obj
 0001:0000ed30       ??_GIOAP210@@UAEPAXI@Z     0040fd30 f i IOAP210.obj
 0001:0000ed30       ??_EIOAP210@@UAEPAXI@Z     0040fd30 f i IOAP210.obj
 0001:0000ed70       ??1IOAP210@@UAE@XZ         0040fd70 f   IOAP210.obj
 0001:0000edc0       ?_GetBaseClass@CMainFrame@@KGPAUCRuntimeClass@@XZ 0040fdc0 f   MainFrm.obj
 0001:0000ede0       ?GetRuntimeClass@CMainFrame@@UBEPAUCRuntimeClass@@XZ 0040fde0 f   MainFrm.obj
 0001:0000ee00       ?_GetBaseMessageMap@CMainFrame@@KGPBUAFX_MSGMAP@@XZ 0040fe00 f   MainFrm.obj
 0001:0000ee20       ?GetMessageMap@CMainFrame@@MBEPBUAFX_MSGMAP@@XZ 0040fe20 f   MainFrm.obj
 0001:0000ee40       ??0CMainFrame@@QAE@XZ      0040fe40 f   MainFrm.obj
 0001:0000eec0       ??_ECMainFrame@@UAEPAXI@Z  0040fec0 f i MainFrm.obj
 0001:0000eec0       ??_GCMainFrame@@UAEPAXI@Z  0040fec0 f i MainFrm.obj
 0001:0000ef00       ??1CMDIFrameWnd@@UAE@XZ    0040ff00 f i MainFrm.obj
 0001:0000ef20       ??1CMainFrame@@UAE@XZ      0040ff20 f   MainFrm.obj
 0001:0000efa0       ?OnCreate@CMainFrame@@IAEHPAUtagCREATESTRUCTA@@@Z 0040ffa0 f   MainFrm.obj
 0001:0000f0f0       ?PreCreateWindow@CMainFrame@@UAEHAAUtagCREATESTRUCTA@@@Z 004100f0 f   MainFrm.obj
 0001:0000f120       ?AssertValid@CMainFrame@@UBEXXZ 00410120 f   MainFrm.obj
 0001:0000f140       ?Dump@CMainFrame@@UBEXAAVCDumpContext@@@Z 00410140 f   MainFrm.obj
 0001:0000f170       ??0CMultiFileMultiDocTemplate@@QAE@IPAUCRuntimeClass@@00@Z 00410170 f   MultiFileMultiDocTemplate.obj
 0001:0000f1b0       ??_GCMultiFileMultiDocTemplate@@UAEPAXI@Z 004101b0 f i MultiFileMultiDocTemplate.obj
 0001:0000f1b0       ??_ECMultiFileMultiDocTemplate@@UAEPAXI@Z 004101b0 f i MultiFileMultiDocTemplate.obj
 0001:0000f1f0       ??1CMultiFileMultiDocTemplate@@UAE@XZ 004101f0 f   MultiFileMultiDocTemplate.obj
 0001:0000f220       ?GetDocString@CMultiFileMultiDocTemplate@@UBEHAAVCString@@W4DocStringIndex@CDocTemplate@@@Z 00410220 f   MultiFileMultiDocTemplate.obj
 0001:0000f3e0       ?MatchDocType@CMultiFileMultiDocTemplate@@UAE?AW4Confidence@CDocTemplate@@PBDAAPAVCDocument@@@Z 004103e0 f   MultiFileMultiDocTemplate.obj
 0001:0000f6f0       ?CreateObject@CNonPlatedThruHolePage@@SGPAVCObject@@XZ 004106f0 f   NonPlatedThruHolePage.obj
 0001:0000f770       ?_GetBaseClass@CNonPlatedThruHolePage@@KGPAUCRuntimeClass@@XZ 00410770 f   NonPlatedThruHolePage.obj
 0001:0000f790       ?GetRuntimeClass@CNonPlatedThruHolePage@@UBEPAUCRuntimeClass@@XZ 00410790 f   NonPlatedThruHolePage.obj
 0001:0000f7b0       ??0CNonPlatedThruHolePage@@QAE@XZ 004107b0 f   NonPlatedThruHolePage.obj
 0001:0000f8d0       ??_ECNonPlatedThruHolePage@@UAEPAXI@Z 004108d0 f i NonPlatedThruHolePage.obj
 0001:0000f8d0       ??_GCNonPlatedThruHolePage@@UAEPAXI@Z 004108d0 f i NonPlatedThruHolePage.obj
 0001:0000f910       ??1CNonPlatedThruHolePage@@UAE@XZ 00410910 f   NonPlatedThruHolePage.obj
 0001:0000f9c0       ?OnFinalRelease@CNonPlatedThruHolePage@@UAEXXZ 004109c0 f   NonPlatedThruHolePage.obj
 0001:0000f9e0       ?DoDataExchange@CNonPlatedThruHolePage@@MAEXPAVCDataExchange@@@Z 004109e0 f   NonPlatedThruHolePage.obj
 0001:0000fac0       ?_GetBaseMessageMap@CNonPlatedThruHolePage@@KGPBUAFX_MSGMAP@@XZ 00410ac0 f   NonPlatedThruHolePage.obj
 0001:0000fae0       ?GetMessageMap@CNonPlatedThruHolePage@@MBEPBUAFX_MSGMAP@@XZ 00410ae0 f   NonPlatedThruHolePage.obj
 0001:0000fb00       ?_GetBaseDispatchMap@CNonPlatedThruHolePage@@KGPBUAFX_DISPMAP@@XZ 00410b00 f   NonPlatedThruHolePage.obj
 0001:0000fb20       ?GetDispatchMap@CNonPlatedThruHolePage@@MBEPBUAFX_DISPMAP@@XZ 00410b20 f   NonPlatedThruHolePage.obj
 0001:0000fb40       ?_GetBaseInterfaceMap@CNonPlatedThruHolePage@@KGPBUAFX_INTERFACEMAP@@XZ 00410b40 f   NonPlatedThruHolePage.obj
 0001:0000fb60       ?GetInterfaceMap@CNonPlatedThruHolePage@@MBEPBUAFX_INTERFACEMAP@@XZ 00410b60 f   NonPlatedThruHolePage.obj
 0001:0000fb80       ?setValues@CNonPlatedThruHolePage@@QAEXPAUSdai_Id@@PAVNonPlatedThruHole@@@Z 00410b80 f   NonPlatedThruHolePage.obj
 0001:0000fbb0       ?setValues@CNonPlatedThruHolePage@@AAEXXZ 00410bb0 f   NonPlatedThruHolePage.obj
 0001:0000fc50       ?setReadOnly@CNonPlatedThruHolePage@@QAEXH@Z 00410c50 f   NonPlatedThruHolePage.obj
 0001:0000fc80       ?OnChangeGeneralLocationXValue@CNonPlatedThruHolePage@@IAEXXZ 00410c80 f   NonPlatedThruHolePage.obj
 0001:0000fca0       ?OnChangeGeneralLocationYValue@CNonPlatedThruHolePage@@IAEXXZ 00410ca0 f   NonPlatedThruHolePage.obj
 0001:0000fcc0       ?OnChangeGeneralRefdesValue@CNonPlatedThruHolePage@@IAEXXZ 00410cc0 f   NonPlatedThruHolePage.obj
 0001:0000fce0       ?OnGeneralPlacementFixed@CNonPlatedThruHolePage@@IAEXXZ 00410ce0 f   NonPlatedThruHolePage.obj
 0001:0000fe60       ?OnInitDialog@CNonPlatedThruHolePage@@MAEHXZ 00410e60 f   NonPlatedThruHolePage.obj
 0001:0000ff00       ?OnApply@CNonPlatedThruHolePage@@UAEHXZ 00410f00 f   NonPlatedThruHolePage.obj
 0001:0000fff0       ?_GetBaseClass@CNonPlatedThruHoleSheet@@KGPAUCRuntimeClass@@XZ 00410ff0 f   NonPlatedThruHoleSheet.obj
 0001:00010010       ?GetRuntimeClass@CNonPlatedThruHoleSheet@@UBEPAUCRuntimeClass@@XZ 00411010 f   NonPlatedThruHoleSheet.obj
 0001:00010030       ??0CNonPlatedThruHoleSheet@@QAE@IPAVCWnd@@I@Z 00411030 f   NonPlatedThruHoleSheet.obj
 0001:000100c0       ??_ECNonPlatedThruHoleSheet@@UAEPAXI@Z 004110c0 f i NonPlatedThruHoleSheet.obj
 0001:000100c0       ??_GCNonPlatedThruHoleSheet@@UAEPAXI@Z 004110c0 f i NonPlatedThruHoleSheet.obj
 0001:00010100       ??0CNonPlatedThruHoleSheet@@QAE@PBDPAVCWnd@@I@Z 00411100 f   NonPlatedThruHoleSheet.obj
 0001:00010190       ??1CNonPlatedThruHoleSheet@@UAE@XZ 00411190 f   NonPlatedThruHoleSheet.obj
 0001:000101f0       ?OnFinalRelease@CNonPlatedThruHoleSheet@@UAEXXZ 004111f0 f   NonPlatedThruHoleSheet.obj
 0001:00010210       ?_GetBaseMessageMap@CNonPlatedThruHoleSheet@@KGPBUAFX_MSGMAP@@XZ 00411210 f   NonPlatedThruHoleSheet.obj
 0001:00010230       ?GetMessageMap@CNonPlatedThruHoleSheet@@MBEPBUAFX_MSGMAP@@XZ 00411230 f   NonPlatedThruHoleSheet.obj
 0001:00010250       ?_GetBaseDispatchMap@CNonPlatedThruHoleSheet@@KGPBUAFX_DISPMAP@@XZ 00411250 f   NonPlatedThruHoleSheet.obj
 0001:00010270       ?GetDispatchMap@CNonPlatedThruHoleSheet@@MBEPBUAFX_DISPMAP@@XZ 00411270 f   NonPlatedThruHoleSheet.obj
 0001:00010290       ?_GetBaseInterfaceMap@CNonPlatedThruHoleSheet@@KGPBUAFX_INTERFACEMAP@@XZ 00411290 f   NonPlatedThruHoleSheet.obj
 0001:000102b0       ?GetInterfaceMap@CNonPlatedThruHoleSheet@@MBEPBUAFX_INTERFACEMAP@@XZ 004112b0 f   NonPlatedThruHoleSheet.obj
 0001:000102d0       ?setValues@CNonPlatedThruHoleSheet@@UAEXPAUSdai_Id@@PAVNonPlatedThruHole@@@Z 004112d0 f   NonPlatedThruHoleSheet.obj
 0001:00010300       ?setReadOnly@CNonPlatedThruHoleSheet@@QAEXH@Z 00411300 f   NonPlatedThruHoleSheet.obj
 0001:00010330       ?OnInitDialog@CNonPlatedThruHoleSheet@@MAEHXZ 00411330 f   NonPlatedThruHoleSheet.obj
 0001:00010350       ?_GetBaseClass@CPackagedPartPropertiesSheet@@KGPAUCRuntimeClass@@XZ 00411350 f   PackagedPartPropertiesSheet.obj
 0001:00010370       ?GetRuntimeClass@CPackagedPartPropertiesSheet@@UBEPAUCRuntimeClass@@XZ 00411370 f   PackagedPartPropertiesSheet.obj
 0001:00010390       ??0CPackagedPartPropertiesSheet@@QAE@IPAVCWnd@@I@Z 00411390 f   PackagedPartPropertiesSheet.obj
 0001:00010490       ??_GCPackagedPartPropertiesSheet@@UAEPAXI@Z 00411490 f i PackagedPartPropertiesSheet.obj
 0001:00010490       ??_ECPackagedPartPropertiesSheet@@UAEPAXI@Z 00411490 f i PackagedPartPropertiesSheet.obj
 0001:000104d0       ??0CPackagedPartPropertiesSheet@@QAE@PBDPAVCWnd@@I@Z 004114d0 f   PackagedPartPropertiesSheet.obj
 0001:000105d0       ??1CPackagedPartPropertiesSheet@@UAE@XZ 004115d0 f   PackagedPartPropertiesSheet.obj
 0001:00010670       ?OnFinalRelease@CPackagedPartPropertiesSheet@@UAEXXZ 00411670 f   PackagedPartPropertiesSheet.obj
 0001:00010690       ?_GetBaseMessageMap@CPackagedPartPropertiesSheet@@KGPBUAFX_MSGMAP@@XZ 00411690 f   PackagedPartPropertiesSheet.obj
 0001:000106b0       ?GetMessageMap@CPackagedPartPropertiesSheet@@MBEPBUAFX_MSGMAP@@XZ 004116b0 f   PackagedPartPropertiesSheet.obj
 0001:000106d0       ?_GetBaseDispatchMap@CPackagedPartPropertiesSheet@@KGPBUAFX_DISPMAP@@XZ 004116d0 f   PackagedPartPropertiesSheet.obj
 0001:000106f0       ?GetDispatchMap@CPackagedPartPropertiesSheet@@MBEPBUAFX_DISPMAP@@XZ 004116f0 f   PackagedPartPropertiesSheet.obj
 0001:00010710       ?_GetBaseInterfaceMap@CPackagedPartPropertiesSheet@@KGPBUAFX_INTERFACEMAP@@XZ 00411710 f   PackagedPartPropertiesSheet.obj
 0001:00010730       ?GetInterfaceMap@CPackagedPartPropertiesSheet@@MBEPBUAFX_INTERFACEMAP@@XZ 00411730 f   PackagedPartPropertiesSheet.obj
 0001:00010750       ?setValues@CPackagedPartPropertiesSheet@@UAEXPAUSdai_Id@@PAVPackagedPart@@@Z 00411750 f   PackagedPartPropertiesSheet.obj
 0001:000107d0       ?_GetBaseClass@CPackagePropertiesSheet@@KGPAUCRuntimeClass@@XZ 004117d0 f   PackagePropertiesSheet.obj
 0001:000107f0       ?GetRuntimeClass@CPackagePropertiesSheet@@UBEPAUCRuntimeClass@@XZ 004117f0 f   PackagePropertiesSheet.obj
 0001:00010810       ??0CPackagePropertiesSheet@@QAE@IPAVCWnd@@II@Z 00411810 f   PackagePropertiesSheet.obj
 0001:00010910       ??_ECPackagePropertiesSheet@@UAEPAXI@Z 00411910 f i PackagePropertiesSheet.obj
 0001:00010910       ??_GCPackagePropertiesSheet@@UAEPAXI@Z 00411910 f i PackagePropertiesSheet.obj
 0001:00010950       ??0CPackagePropertiesSheet@@QAE@PBDPAVCWnd@@II@Z 00411950 f   PackagePropertiesSheet.obj
 0001:00010a50       ??1CPackagePropertiesSheet@@UAE@XZ 00411a50 f   PackagePropertiesSheet.obj
 0001:00010af0       ?OnFinalRelease@CPackagePropertiesSheet@@UAEXXZ 00411af0 f   PackagePropertiesSheet.obj
 0001:00010b10       ?_GetBaseMessageMap@CPackagePropertiesSheet@@KGPBUAFX_MSGMAP@@XZ 00411b10 f   PackagePropertiesSheet.obj
 0001:00010b30       ?GetMessageMap@CPackagePropertiesSheet@@MBEPBUAFX_MSGMAP@@XZ 00411b30 f   PackagePropertiesSheet.obj
 0001:00010b50       ?_GetBaseDispatchMap@CPackagePropertiesSheet@@KGPBUAFX_DISPMAP@@XZ 00411b50 f   PackagePropertiesSheet.obj
 0001:00010b70       ?GetDispatchMap@CPackagePropertiesSheet@@MBEPBUAFX_DISPMAP@@XZ 00411b70 f   PackagePropertiesSheet.obj
 0001:00010b90       ?_GetBaseInterfaceMap@CPackagePropertiesSheet@@KGPBUAFX_INTERFACEMAP@@XZ 00411b90 f   PackagePropertiesSheet.obj
 0001:00010bb0       ?GetInterfaceMap@CPackagePropertiesSheet@@MBEPBUAFX_INTERFACEMAP@@XZ 00411bb0 f   PackagePropertiesSheet.obj
 0001:00010bd0       ?setValues@CPackagePropertiesSheet@@UAEXPAUSdai_Id@@PAVPhysicalUnit@@@Z 00411bd0 f   PackagePropertiesSheet.obj
 0001:00010c40       ?setReadOnly@CPackagePropertiesSheet@@QAEXH@Z 00411c40 f   PackagePropertiesSheet.obj
 0001:00010c80       ??0CPropertiesDlg@@QAE@PAVCWnd@@@Z 00411c80 f   PropertiesDlg.obj
 0001:00010e30       ??_ECPropertiesDlg@@UAEPAXI@Z 00411e30 f i PropertiesDlg.obj
 0001:00010e30       ??_GCPropertiesDlg@@UAEPAXI@Z 00411e30 f i PropertiesDlg.obj
 0001:00010e70       ?OnFinalRelease@CPropertiesDlg@@UAEXXZ 00411e70 f   PropertiesDlg.obj
 0001:00010e90       ?DoDataExchange@CPropertiesDlg@@MAEXPAVCDataExchange@@@Z 00411e90 f   PropertiesDlg.obj
 0001:00010f80       ?_GetBaseMessageMap@CPropertiesDlg@@KGPBUAFX_MSGMAP@@XZ 00411f80 f   PropertiesDlg.obj
 0001:00010fa0       ?GetMessageMap@CPropertiesDlg@@MBEPBUAFX_MSGMAP@@XZ 00411fa0 f   PropertiesDlg.obj
 0001:00010fc0       ?_GetBaseDispatchMap@CPropertiesDlg@@KGPBUAFX_DISPMAP@@XZ 00411fc0 f   PropertiesDlg.obj
 0001:00010fe0       ?GetDispatchMap@CPropertiesDlg@@MBEPBUAFX_DISPMAP@@XZ 00411fe0 f   PropertiesDlg.obj
 0001:00011000       ?_GetBaseInterfaceMap@CPropertiesDlg@@KGPBUAFX_INTERFACEMAP@@XZ 00412000 f   PropertiesDlg.obj
 0001:00011020       ?GetInterfaceMap@CPropertiesDlg@@MBEPBUAFX_INTERFACEMAP@@XZ 00412020 f   PropertiesDlg.obj
 0001:00011040       ?CreateObject@CPropertiesPage@@SGPAVCObject@@XZ 00412040 f   PropertiesPage.obj
 0001:000110c0       ?_GetBaseClass@CPropertiesPage@@KGPAUCRuntimeClass@@XZ 004120c0 f   PropertiesPage.obj
 0001:000110e0       ?GetRuntimeClass@CPropertiesPage@@UBEPAUCRuntimeClass@@XZ 004120e0 f   PropertiesPage.obj
 0001:00011100       ??0CPropertiesPage@@QAE@XZ 00412100 f   PropertiesPage.obj
 0001:00011180       ??_ECPropertiesPage@@UAEPAXI@Z 00412180 f i PropertiesPage.obj
 0001:00011180       ??_GCPropertiesPage@@UAEPAXI@Z 00412180 f i PropertiesPage.obj
 0001:000111c0       ??1CPropertiesPage@@UAE@XZ 004121c0 f   PropertiesPage.obj
 0001:00011220       ?DoDataExchange@CPropertiesPage@@MAEXPAVCDataExchange@@@Z 00412220 f   PropertiesPage.obj
 0001:00011260       ?_GetBaseMessageMap@CPropertiesPage@@KGPBUAFX_MSGMAP@@XZ 00412260 f   PropertiesPage.obj
 0001:00011280       ?GetMessageMap@CPropertiesPage@@MBEPBUAFX_MSGMAP@@XZ 00412280 f   PropertiesPage.obj
 0001:000112a0       ?setValues@CPropertiesPage@@QAEXPAUSdai_Id@@PAVPackagedPart@@@Z 004122a0 f   PropertiesPage.obj
 0001:000112d0       ?setValues@CPropertiesPage@@QAEXPAUSdai_Id@@PAVComponentDefinition@@@Z 004122d0 f   PropertiesPage.obj
 0001:00011300       ?setValues@CPropertiesPage@@QAEXPAUSdai_Id@@PAVPhysicalUnit@@@Z 00412300 f   PropertiesPage.obj
 0001:00011330       ?OnInitDialog@CPropertiesPage@@MAEHXZ 00412330 f   PropertiesPage.obj
 0001:00011360       ?getProperties@CPropertiesPage@@IAEXXZ 00412360 f   PropertiesPage.obj
 0001:00011590       ??0PWBDataBase@@QAE@XZ     00412590 f   PWBDataBase.obj
 0001:000116f0       ??_EPWBDataBase@@UAEPAXI@Z 004126f0 f i PWBDataBase.obj
 0001:000116f0       ??_GPWBDataBase@@UAEPAXI@Z 004126f0 f i PWBDataBase.obj
 0001:00011730       ??1PWBDataBase@@UAE@XZ     00412730 f   PWBDataBase.obj
 0001:00011b40       ??_GAP210Object@@QAEPAXI@Z 00412b40 f i PWBDataBase.obj
 0001:00011b80       ?OnSelection@PWBDataBase@@QAEXXZ 00412b80 f   PWBDataBase.obj
 0001:00011cc0       ?UnSelectAll@PWBDataBase@@QAEXXZ 00412cc0 f   PWBDataBase.obj
 0001:00011df0       ?setPartNumber@PWBDataBase@@MAEXPAVComponentDefinition@@@Z 00412df0 f   PWBDataBase.obj
 0001:00011e20       ?setFileProperties@PWBDataBase@@MAEXPAVCPropertiesDlg@@PAVRoseDesign@@@Z 00412e20 f   PWBDataBase.obj
 0001:00012260       ?numComponentsSelected@PWBDataBase@@UAEHXZ 00413260 f   PWBDataBase.obj
 0001:00012310       ?getSelectedPackagedComponents@PWBDataBase@@UAEHPAVAP210ObjectList@@@Z 00413310 f   PWBDataBase.obj
 0001:000123c0       ?getSelectedComponentDefinitions@PWBDataBase@@UAEHPAVAP210ObjectList@@@Z 004133c0 f   PWBDataBase.obj
 0001:00012470       ?getSelectedNonPlatedThruHoles@PWBDataBase@@UAEHPAVAP210ObjectList@@@Z 00413470 f   PWBDataBase.obj
 0001:00012520       ?assignItemFindNumber@PWBDataBase@@UAEHXZ 00413520 f   PWBDataBase.obj
 0001:00012560       ?getPackagedComponentSurface@PWBDataBase@@QAEPADPAUSdai_Id@@@Z 00413560 f   PWBDataBase.obj
 0001:000128f0       ?setPackagedComponentSurface@PWBDataBase@@QAEXPAUSdai_Id@@PBD@Z 004138f0 f   PWBDataBase.obj
 0001:00012c70       ?createPackagedComponentSurface@PWBDataBase@@QAEPAUSdai_ADBId@@PBD@Z 00413c70 f   PWBDataBase.obj
 0001:00013090       ?getPhysicalUnitsProductDefinitionShape@PWBDataBase@@QAEPAUSdai_Id@@PAU2@@Z 00414090 f   PWBDataBase.obj
 0001:00013140       ?getSurfaceShapeAspect@PWBDataBase@@QAEPAUSdai_Id@@PBD@Z 00414140 f   PWBDataBase.obj
 0001:000132a0       ?getTransformationMatrix@PWBDataBase@@QAEHQANPAUSdai_Id@@1@Z 004142a0 f   PWBDataBase.obj
 0001:000132e0       ?setTransformationMatrix@PWBDataBase@@QAEXQANPAUSdai_Id@@1@Z 004142e0 f   PWBDataBase.obj
 0001:00013320       ?UpdateProdView@PWBDataBase@@QAEXXZ 00414320 f   PWBDataBase.obj
 0001:00013390       ?getPrimarySurface@PWBDataBase@@QAEPAUSdai_ADBId@@XZ 00414390 f   PWBDataBase.obj
 0001:000133d0       ?getSecondarySurface@PWBDataBase@@QAEPAUSdai_ADBId@@XZ 004143d0 f   PWBDataBase.obj
 0001:00013410       ?updateMountingRestrictionAreas@PWBDataBase@@UAEXXZ 00414410 f   PWBDataBase.obj
 0001:000134a0       ?getSelectedMountingRestrictionAreas@PWBDataBase@@UAEHPAVAP210ObjectList@@@Z 004144a0 f   PWBDataBase.obj
 0001:00013550       ?getAssemblyModulePhysicalDesign@PWBDataBase@@QAEPAUSdai_Id@@XZ 00414550 f   PWBDataBase.obj
 0001:00013570       ?getAssemblyModulePhysicalDesignUsage@PWBDataBase@@QAEPAUSdai_Id@@XZ 00414570 f   PWBDataBase.obj
 0001:00013590       ?getInterconnectModulePhysicalDesign@PWBDataBase@@QAEPAUSdai_Id@@XZ 00414590 f   PWBDataBase.obj
 0001:000135b0       ?getInterconnectModulePhysicalDesignUsage@PWBDataBase@@QAEPAUSdai_Id@@XZ 004145b0 f   PWBDataBase.obj
 0001:000135d0       ?selectDisplayModel@PWBDataBase@@IAEXXZ 004145d0 f   PWBDataBase.obj
 0001:00013960       ?getNamedPhysicalUnit@PWBDataBase@@AAEPAUSdai_Id@@PAD0@Z 00414960 f   PWBDataBase.obj
 0001:00013cb0       ?getDefinedProducts@PWBDataBase@@AAEPAUSdai_Id_aggr@@PAU2@PAD1@Z 00414cb0 f   PWBDataBase.obj
 0001:000140e0       ?getProductsProductDefinitions@PWBDataBase@@AAEPAUSdai_Id_aggr@@PAUSdai_Id@@PAU2@@Z 004150e0 f   PWBDataBase.obj
 0001:00014290       ?getNamedPhysicalUnit@PWBDataBase@@AAEPAUSdai_Id@@PAUSdai_Id_aggr@@PAD1@Z 00415290 f   PWBDataBase.obj
 0001:000145d0       ?getAssembliesInterconnectModuleProduct@PWBDataBase@@QAEPAUSdai_Id@@XZ 004155d0 f   PWBDataBase.obj
 0001:00014900       ?implementation_level@file_description@@QAEPADXZ 00415900 f i PWBDataBase.obj
 0001:00014920       ?name@file_name@@QAEPADXZ  00415920 f i PWBDataBase.obj
 0001:00014940       ?time_stamp@file_name@@QAEPADXZ 00415940 f i PWBDataBase.obj
 0001:00014960       ?preprocessor_version@file_name@@QAEPADXZ 00415960 f i PWBDataBase.obj
 0001:00014980       ?originating_system@file_name@@QAEPADXZ 00415980 f i PWBDataBase.obj
 0001:000149a0       ?authorisation@file_name@@QAEPADXZ 004159a0 f i PWBDataBase.obj
 0001:000149c0       ?CreateObject@CSingleComponentRestrictionAssignmentPage@@SGPAVCObject@@XZ 004159c0 f   SingleComponentRestrictionAssignmentPage.obj
 0001:00014a40       ?_GetBaseClass@CSingleComponentRestrictionAssignmentPage@@KGPAUCRuntimeClass@@XZ 00415a40 f   SingleComponentRestrictionAssignmentPage.obj
 0001:00014a60       ?GetRuntimeClass@CSingleComponentRestrictionAssignmentPage@@UBEPAUCRuntimeClass@@XZ 00415a60 f   SingleComponentRestrictionAssignmentPage.obj
 0001:00014a80       ??0CSingleComponentRestrictionAssignmentPage@@QAE@XZ 00415a80 f   SingleComponentRestrictionAssignmentPage.obj
 0001:00014b00       ??_ECSingleComponentRestrictionAssignmentPage@@UAEPAXI@Z 00415b00 f i SingleComponentRestrictionAssignmentPage.obj
 0001:00014b00       ??_GCSingleComponentRestrictionAssignmentPage@@UAEPAXI@Z 00415b00 f i SingleComponentRestrictionAssignmentPage.obj
 0001:00014b40       ??1CSingleComponentRestrictionAssignmentPage@@UAE@XZ 00415b40 f   SingleComponentRestrictionAssignmentPage.obj
 0001:00014ba0       ?DoDataExchange@CSingleComponentRestrictionAssignmentPage@@MAEXPAVCDataExchange@@@Z 00415ba0 f   SingleComponentRestrictionAssignmentPage.obj
 0001:00014bf0       ?_GetBaseMessageMap@CSingleComponentRestrictionAssignmentPage@@KGPBUAFX_MSGMAP@@XZ 00415bf0 f   SingleComponentRestrictionAssignmentPage.obj
 0001:00014c10       ?GetMessageMap@CSingleComponentRestrictionAssignmentPage@@MBEPBUAFX_MSGMAP@@XZ 00415c10 f   SingleComponentRestrictionAssignmentPage.obj
 0001:00014c30       ?OnApply@CSingleComponentRestrictionAssignmentPage@@UAEHXZ 00415c30 f   SingleComponentRestrictionAssignmentPage.obj
 0001:00014cf0       ?setValues@CSingleComponentRestrictionAssignmentPage@@QAEXPAVPWBDataBase@@PAVMountingRestrictionArea@@@Z 00415cf0 f   SingleComponentRestrictionAssignmentPage.obj
 0001:00014d40       ?OnInitDialog@CSingleComponentRestrictionAssignmentPage@@MAEHXZ 00415d40 f   SingleComponentRestrictionAssignmentPage.obj
 0001:00014da0       ?setReadOnly@CSingleComponentRestrictionAssignmentPage@@QAEXH@Z 00415da0 f   SingleComponentRestrictionAssignmentPage.obj
 0001:00014dd0       ?OnChangeCraHeightValue@CSingleComponentRestrictionAssignmentPage@@IAEXXZ 00415dd0 f   SingleComponentRestrictionAssignmentPage.obj
 0001:00014df0       ?OnCraOpaque@CSingleComponentRestrictionAssignmentPage@@IAEXXZ 00415df0 f   SingleComponentRestrictionAssignmentPage.obj
 0001:00014e10       ?OnCraInvisible@CSingleComponentRestrictionAssignmentPage@@IAEXXZ 00415e10 f   SingleComponentRestrictionAssignmentPage.obj
 0001:00014e30       ?OnCraTransparent@CSingleComponentRestrictionAssignmentPage@@IAEXXZ 00415e30 f   SingleComponentRestrictionAssignmentPage.obj
 0001:00014e50       ?getComponentGeometry@@YAPAUSdai_Id@@PAU1@0@Z 00415e50 f   ap210_visualizer.obj
 0001:00014ed0       ?getPackageGeometry@@YAPAUSdai_Id@@PAU1@0@Z 00415ed0 f   ap210_visualizer.obj
 0001:00014f60       ??0AP210GraphicObject@@QAE@PAVPWBDataBase@@@Z 00415f60 f   AP210GraphicObject.obj
 0001:00015010       ?GetOID@AP210Object@@UAEHXZ 00416010 f i AP210GraphicObject.obj
 0001:00015030       ?GetTypeID@AP210GraphicObject@@UAEHXZ 00416030 f i AP210GraphicObject.obj
 0001:00015050       ??_EAP210GraphicObject@@UAEPAXI@Z 00416050 f i AP210GraphicObject.obj
 0001:00015050       ??_GAP210GraphicObject@@UAEPAXI@Z 00416050 f i AP210GraphicObject.obj
 0001:00015090       ??1AP210GraphicObject@@UAE@XZ 00416090 f   AP210GraphicObject.obj
 0001:000150f0       ?DynamicType@AP210GraphicObject@@UAEHH@Z 004160f0 f   AP210GraphicObject.obj
 0001:00015130       ?UpdateAllViews@AP210GraphicObject@@UAEXPAVCView@@JPAVCObject@@@Z 00416130 f   AP210GraphicObject.obj
 0001:00015160       ?setReDrawStatus@AP210GraphicObject@@MAEXH@Z 00416160 f   AP210GraphicObject.obj
 0001:00015180       ?TracePoints@AP210GraphicObject@@QAEXXZ 00416180 f   AP210GraphicObject.obj
 0001:00015220       ?Render@AP210GraphicObject@@UAEXNNN@Z 00416220 f   AP210GraphicObject.obj
 0001:000153f0       ?getglName@AP210GraphicObject@@IAEIXZ 004163f0 f i AP210GraphicObject.obj
 0001:00015410       ?RenderCaps@AP210GraphicObject@@MAEXXZ 00416410 f   AP210GraphicObject.obj
 0001:00015450       ?RenderSides@AP210GraphicObject@@MAEXXZ 00416450 f   AP210GraphicObject.obj
 0001:00015490       ?OutputGlError@AP210GraphicObject@@MAEXPAD@Z 00416490 f   AP210GraphicObject.obj
 0001:000154e0       ?ReDraw@AP210GraphicObject@@UAEXNN@Z 004164e0 f   AP210GraphicObject.obj
 0001:00015580       ?Draw@AP210GraphicObject@@UAEXNN@Z 00416580 f   AP210GraphicObject.obj
 0001:00015610       ?CapsDisplayList@AP210GraphicObject@@EAEXNN@Z 00416610 f   AP210GraphicObject.obj
 0001:000157d0       ?SidesDisplayList@AP210GraphicObject@@EAEXNN@Z 004167d0 f   AP210GraphicObject.obj
 0001:00015930       ?Select@AP210GraphicObject@@UAEXXZ 00416930 f   AP210GraphicObject.obj
 0001:00015950       ?Select@AP210GraphicObject@@UAEHI@Z 00416950 f   AP210GraphicObject.obj
 0001:00015990       ?isSelected@AP210GraphicObject@@UAEHXZ 00416990 f   AP210GraphicObject.obj
 0001:000159b0       ?unSelect@AP210GraphicObject@@UAEXXZ 004169b0 f   AP210GraphicObject.obj
 0001:000159d0       ?getReDrawStatus@AP210GraphicObject@@MAEHXZ 004169d0 f   AP210GraphicObject.obj
 0001:000159f0       ?getCapDisplayList@AP210GraphicObject@@UAEIXZ 004169f0 f   AP210GraphicObject.obj
 0001:00015a10       ?getSideDisplayList@AP210GraphicObject@@UAEIXZ 00416a10 f   AP210GraphicObject.obj
 0001:00015a30       ?getTransparency@AP210GraphicObject@@UAEHXZ 00416a30 f   AP210GraphicObject.obj
 0001:00015a50       ?setTransparency@AP210GraphicObject@@QAEXH@Z 00416a50 f   AP210GraphicObject.obj
 0001:00015a90       ??0AP210Line@@QAE@PAVPWBDataBase@@@Z 00416a90 f   AP210Line.obj
 0001:00015ac0       ?GetTypeID@AP210Line@@UAEHXZ 00416ac0 f i AP210Line.obj
 0001:00015ae0       ??1AP210Line@@QAE@XZ       00416ae0 f   AP210Line.obj
 0001:00015b10       ?DynamicType@AP210Line@@UAEHH@Z 00416b10 f   AP210Line.obj
 0001:00015b50       ??0AP210LP@@AAE@PAVPWBDataBase@@PAVAP210Point@@1@Z 00416b50 f   AP210LP.obj
 0001:00015b90       ?GetTypeID@AP210LP@@UAEHXZ 00416b90 f i AP210LP.obj
 0001:00015bb0       ??1AP210LP@@QAE@XZ         00416bb0 f   AP210LP.obj
 0001:00015be0       ?DynamicType@AP210LP@@UAEHH@Z 00416be0 f   AP210LP.obj
 0001:00015c20       ?Construct@AP210LP@@SAPAV1@PAVPWBDataBase@@PAVAP210Point@@1@Z 00416c20 f   AP210LP.obj
 0001:00015cd0       ?FindLine@AP210LP@@SAPAV1@PAVPWBDataBase@@PAVAP210Point@@1@Z 00416cd0 f   AP210LP.obj
 0001:00015d80       ?TypeID@AP210LP@@SAHXZ     00416d80 f i AP210LP.obj
 0001:00015da0       ?SortEndPoints@AP210LP@@QAEXXZ 00416da0 f   AP210LP.obj
 0001:00015e00       ?SwapPoints@AP210LP@@QAEXXZ 00416e00 f   AP210LP.obj
 0001:00015e40       ??0AP210Object@@QAE@PAVPWBDataBase@@@Z 00416e40 f   AP210Object.obj
 0001:00015ea0       ?GetTypeID@AP210Object@@UAEHXZ 00416ea0 f i AP210Object.obj
 0001:00015ec0       ??1AP210Object@@QAE@XZ     00416ec0 f   AP210Object.obj
 0001:00015ef0       ?DynamicType@AP210Object@@UAEHH@Z 00416ef0 f   AP210Object.obj
 0001:00015f20       ??0AP210ObjectElement@@QAE@PAVAP210Object@@@Z 00416f20 f   AP210ObjectList.obj
 0001:00015f50       ??1AP210ObjectElement@@QAE@XZ 00416f50 f   AP210ObjectList.obj
 0001:00015f70       ?Add@AP210ObjectElement@@QAEPAV1@PAVAP210Object@@@Z 00416f70 f   AP210ObjectList.obj
 0001:00016020       ?Find@AP210ObjectElement@@QAEPAV1@PAVAP210Object@@@Z 00417020 f   AP210ObjectList.obj
 0001:00016060       ?End@AP210ObjectElement@@QAEPAV1@XZ 00417060 f   AP210ObjectList.obj
 0001:000160a0       ?Size@AP210ObjectElement@@QAEHXZ 004170a0 f   AP210ObjectList.obj
 0001:000160e0       ??0AP210ObjectList@@QAE@XZ 004170e0 f   AP210ObjectList.obj
 0001:00016100       ??1AP210ObjectList@@QAE@XZ 00417100 f   AP210ObjectList.obj
 0001:00016120       ?Empty@AP210ObjectList@@QAEXXZ 00417120 f   AP210ObjectList.obj
 0001:00016190       ??_GAP210ObjectElement@@QAEPAXI@Z 00417190 f i AP210ObjectList.obj
 0001:000161d0       ?Add@AP210ObjectList@@QAEXPAVAP210Object@@@Z 004171d0 f   AP210ObjectList.obj
 0001:00016280       ?Append@AP210ObjectList@@QAEXPAV1@@Z 00417280 f   AP210ObjectList.obj
 0001:00016320       ?Delete@AP210ObjectList@@QAEXPAVAP210Object@@@Z 00417320 f   AP210ObjectList.obj
 0001:000163c0       ?Find@AP210ObjectList@@AAEPAVAP210ObjectElement@@PAVAP210Object@@@Z 004173c0 f i AP210ObjectList.obj
 0001:000163f0       ?ElementCount@AP210ObjectList@@QAEHPAVAP210Object@@@Z 004173f0 f   AP210ObjectList.obj
 0001:00016480       ?Exists@AP210ObjectList@@QAE_NPAVAP210Object@@@Z 00417480 f   AP210ObjectList.obj
 0001:000164b0       ?ListIntersection@AP210ObjectList@@QAEXPAV1@0@Z 004174b0 f   AP210ObjectList.obj
 0001:00016570       ?MakeUnique@AP210ObjectList@@QAEXXZ 00417570 f   AP210ObjectList.obj
 0001:00016620       ?Sort@AP210ObjectList@@QAEXP6AHPAVAP210Object@@0@Z@Z 00417620 f   AP210ObjectList.obj
 0001:000166d0       ??0AP210ObjectListItor@@QAE@PAVAP210ObjectList@@@Z 004176d0 f   AP210ObjectList.obj
 0001:00016700       ??1AP210ObjectListItor@@QAE@XZ 00417700 f   AP210ObjectList.obj
 0001:00016720       ?Reset@AP210ObjectListItor@@QAEXXZ 00417720 f   AP210ObjectList.obj
 0001:00016740       ?Next@AP210ObjectListItor@@QAEPAVAP210Object@@XZ 00417740 f   AP210ObjectList.obj
 0001:00016790       ?GetNext@AP210ObjectElement@@QAEPAV1@XZ 00417790 f i AP210ObjectList.obj
 0001:000167b0       ?GetElement@AP210ObjectElement@@QAEPAVAP210Object@@XZ 004177b0 f i AP210ObjectList.obj
 0001:000167d0       ?NextDirectInstanceOf@AP210ObjectListItor@@QAEPAVAP210Object@@H@Z 004177d0 f   AP210ObjectList.obj
 0001:00016860       ?NextInstanceOf@AP210ObjectListItor@@QAEPAVAP210Object@@H@Z 00417860 f   AP210ObjectList.obj
 0001:000168f0       ?ListTypeIDs@AP210ObjectListItor@@QAEXPAU_iobuf@@@Z 004178f0 f   AP210ObjectList.obj
 0001:000169a0       ?Union@AP210ObjectList@@QAEXPAV1@@Z 004179a0 f   AP210ObjectList.obj
 0001:00016a30       ?ListIds@AP210ObjectList@@QAEXPAU_iobuf@@@Z 00417a30 f   AP210ObjectList.obj
 0001:00016ae0       ??0AP210Point@@AAE@PAVPWBDataBase@@NN@Z 00417ae0 f   AP210Point.obj
 0001:00016b30       ?GetTypeID@AP210Point@@UAEHXZ 00417b30 f i AP210Point.obj
 0001:00016b50       ??1AP210Point@@QAE@XZ      00417b50 f   AP210Point.obj
 0001:00016b80       ?DynamicType@AP210Point@@UAEHH@Z 00417b80 f   AP210Point.obj
 0001:00016bc0       ?Construct@AP210Point@@SAPAV1@PAVPWBDataBase@@PAUSdai_Id@@NNNNNNN@Z 00417bc0 f   AP210Point.obj
 0001:00016cb0       ?Construct@AP210Point@@SAPAV1@PAVPWBDataBase@@NNNNNNNNN@Z 00417cb0 f   AP210Point.obj
 0001:00016db0       ?FindPoint@AP210Point@@SAPAV1@PAVPWBDataBase@@NN@Z 00417db0 f   AP210Point.obj
 0001:00016e80       ?Construct@BoardComponent@@SAPAV1@PAVPWBDataBase@@PAUSdai_Id@@1@Z 00417e80 f   BoardComponent.obj
 0001:00016fa0       ??0BoardComponent@@AAE@PAVPWBDataBase@@PAUSdai_Id@@11PAVAP210ObjectList@@@Z 00417fa0 f   BoardComponent.obj
 0001:000172a0       ?getComponentLocationRef@ComponentDefinition@@UAEPAUSdai_Id@@XZ 004182a0 f i BoardComponent.obj
 0001:000172c0       ?GetTypeID@BoardComponent@@UAEHXZ 004182c0 f i BoardComponent.obj
 0001:000172e0       ??_EBoardComponent@@UAEPAXI@Z 004182e0 f i BoardComponent.obj
 0001:000172e0       ??_GBoardComponent@@UAEPAXI@Z 004182e0 f i BoardComponent.obj
 0001:00017320       ??1BoardComponent@@UAE@XZ  00418320 f   BoardComponent.obj
 0001:00017350       ?DynamicType@BoardComponent@@UAEHH@Z 00418350 f   BoardComponent.obj
 0001:00017390       ?ReDraw@BoardComponent@@UAEXNN@Z 00418390 f   BoardComponent.obj
 0001:000173d0       ?Draw@BoardComponent@@UAEXN@Z 004183d0 f   BoardComponent.obj
 0001:00017410       ?getConstructionThickness@BoardComponent@@QAENXZ 00418410 f   BoardComponent.obj
 0001:00017450       ?getThickness@BoardComponent@@QAENXZ 00418450 f   BoardComponent.obj
 0001:00017490       ?setThickness@BoardComponent@@QAEXN@Z 00418490 f   BoardComponent.obj
 0001:00017520       ?getDrilledHoles@BoardComponent@@AAEXPAUSdai_Id@@PAUSdai_Id_aggr@@@Z 00418520 f   BoardComponent.obj
 0001:00017760       ?setName@BoardComponent@@UAEXVCString@@@Z 00418760 f   BoardComponent.obj
 0001:00017880       ??0ComponentDefinition@@QAE@PAVPWBDataBase@@PAUSdai_Id@@11@Z 00418880 f   ComponentDefinition.obj
 0001:00017bd0       ?GetTypeID@ComponentDefinition@@UAEHXZ 00418bd0 f i ComponentDefinition.obj
 0001:00017bf0       ??_GComponentDefinition@@UAEPAXI@Z 00418bf0 f i ComponentDefinition.obj
 0001:00017bf0       ??_EComponentDefinition@@UAEPAXI@Z 00418bf0 f i ComponentDefinition.obj
 0001:00017c30       ??0ComponentDefinition@@QAE@PAVPWBDataBase@@PAUSdai_Id@@@Z 00418c30 f   ComponentDefinition.obj
 0001:00017d80       ??0ComponentDefinition@@QAE@PAVPWBDataBase@@PAUSdai_Id@@PAVAP210ObjectList@@@Z 00418d80 f   ComponentDefinition.obj
 0001:00017ef0       ??1ComponentDefinition@@UAE@XZ 00418ef0 f   ComponentDefinition.obj
 0001:00017fa0       ?DynamicType@ComponentDefinition@@UAEHH@Z 00418fa0 f   ComponentDefinition.obj
 0001:00017fe0       ?getPoints@ComponentDefinition@@AAEXXZ 00418fe0 f   ComponentDefinition.obj
 0001:00018070       ?StartPoint@AP210LP@@QAEPAVAP210Point@@XZ 00419070 f i ComponentDefinition.obj
 0001:00018090       ?sortLines@ComponentDefinition@@AAEXXZ 00419090 f   ComponentDefinition.obj
 0001:00018330       ?EndPoint@AP210LP@@QAEPAVAP210Point@@XZ 00419330 f i ComponentDefinition.obj
 0001:00018350       ?MaxX@AP210LP@@QAENXZ      00419350 f i ComponentDefinition.obj
 0001:00018390       ?MaxY@AP210LP@@QAENXZ      00419390 f i ComponentDefinition.obj
 0001:000183d0       ?matchLine@ComponentDefinition@@AAEPAVAP210LP@@PAVAP210Point@@@Z 004193d0 f   ComponentDefinition.obj
 0001:00018470       ?setSeatingPlane@ComponentDefinition@@UAEXN@Z 00419470 f   ComponentDefinition.obj
 0001:000184a0       ?applyTranslationMatrix@ComponentDefinition@@IAEXXZ 004194a0 f   ComponentDefinition.obj
 0001:00018590       ?RenderCaps@ComponentDefinition@@MAEXXZ 00419590 f   ComponentDefinition.obj
 0001:000185e0       ?RenderSides@ComponentDefinition@@MAEXXZ 004195e0 f   ComponentDefinition.obj
 0001:00018620       ?createComponentLocationRef@ComponentDefinition@@UAEXXZ 00419620 f   ComponentDefinition.obj
 0001:000195d0       ?deleteComponentLocationRef@ComponentDefinition@@UAEXXZ 0041a5d0 f   ComponentDefinition.obj
 0001:00019b30       ?getX@ComponentDefinition@@UAENXZ 0041ab30 f   ComponentDefinition.obj
 0001:00019b50       ?setX@ComponentDefinition@@UAEXN@Z 0041ab50 f   ComponentDefinition.obj
 0001:00019bc0       ?getY@ComponentDefinition@@UAENXZ 0041abc0 f   ComponentDefinition.obj
 0001:00019be0       ?setY@ComponentDefinition@@UAEXN@Z 0041abe0 f   ComponentDefinition.obj
 0001:00019c50       ?getRotation@ComponentDefinition@@UAENXZ 0041ac50 f   ComponentDefinition.obj
 0001:00019cf0       ?setRotation@ComponentDefinition@@UAEXN@Z 0041acf0 f   ComponentDefinition.obj
 0001:00019e00       ?getPlacementFixed@ComponentDefinition@@QAEHXZ 0041ae00 f   ComponentDefinition.obj
 0001:0001a060       ?setPlacementFixed@ComponentDefinition@@QAEXH@Z 0041b060 f   ComponentDefinition.obj
 0001:0001a330       ?getReDrawStatus@ComponentDefinition@@MAEHXZ 0041b330 f   ComponentDefinition.obj
 0001:0001a370       ?setReDrawStatus@ComponentDefinition@@MAEXH@Z 0041b370 f   ComponentDefinition.obj
 0001:0001a3c0       ?getCapDisplayList@ComponentDefinition@@UAEIXZ 0041b3c0 f   ComponentDefinition.obj
 0001:0001a400       ?getSideDisplayList@ComponentDefinition@@UAEIXZ 0041b400 f   ComponentDefinition.obj
 0001:0001a440       ?ReDraw@ComponentDefinition@@UAEXNN@Z 0041b440 f   ComponentDefinition.obj
 0001:0001a4a0       ?Draw@ComponentDefinition@@UAEXN@Z 0041b4a0 f   ComponentDefinition.obj
 0001:0001a4d0       ?Trace@ComponentDefinition@@QAEXXZ 0041b4d0 f   ComponentDefinition.obj
 0001:0001a500       ?getSurface@ComponentDefinition@@UAE?AVCString@@XZ 0041b500 f   ComponentDefinition.obj
 0001:0001a550       ?setSurface@ComponentDefinition@@UAEXVCString@@@Z 0041b550 f   ComponentDefinition.obj
 0001:0001a780       ?getItemFindNumber@ComponentDefinition@@UAEHXZ 0041b780 f   ComponentDefinition.obj
 0001:0001a7a0       ?setId@ComponentDefinition@@UAEXVCString@@@Z 0041b7a0 f   ComponentDefinition.obj
 0001:0001a8d0       ?getId@ComponentDefinition@@UAEPADXZ 0041b8d0 f   ComponentDefinition.obj
 0001:0001a8f0       ?getName@ComponentDefinition@@UAEPADXZ 0041b8f0 f   ComponentDefinition.obj
 0001:0001a910       ?setName@ComponentDefinition@@UAEXVCString@@@Z 0041b910 f   ComponentDefinition.obj
 0001:0001aa40       ?Initialize@ExtractGeometry@@CAXXZ 0041ba40 f   ExtractGeometry.obj
 0001:0001aae0       ?getLines@ExtractGeometry@@SAPAVAP210ObjectList@@PAUSdai_Id@@PAVPWBDataBase@@PAUSdai_Id_aggr@@00@Z 0041bae0 f   ExtractGeometry.obj
 0001:0001ab70       ?getLocation@ExtractGeometry@@SAHPAN00PAUSdai_Id@@11@Z 0041bb70 f   ExtractGeometry.obj
 0001:0001ac80       ?getTransformationMatrix@ExtractGeometry@@SAHQANPAUSdai_Id@@11@Z 0041bc80 f   ExtractGeometry.obj
 0001:0001ad60       ?setTransformationMatrix@ExtractGeometry@@SAXQANPAUSdai_Id@@11@Z 0041bd60 f   ExtractGeometry.obj
 0001:0001ae40       ?getOffset@ExtractGeometry@@CAXPAUSdai_Id@@0@Z 0041be40 f   ExtractGeometry.obj
 0001:0001b1d0       ?setOffset@ExtractGeometry@@CAXPAUSdai_Id@@0@Z 0041c1d0 f   ExtractGeometry.obj
 0001:0001b630       ?ExtractSdaiGeometry@ExtractGeometry@@CAXPAUSdai_Id@@PAVPWBDataBase@@PAUSdai_Id_aggr@@@Z 0041c630 f   ExtractGeometry.obj
 0001:0001b850       ?ExtractPolyLine@ExtractGeometry@@CAXPAVPWBDataBase@@PAUSdai_Id@@@Z 0041c850 f   ExtractGeometry.obj
 0001:0001b9f0       ?ExtractTrimmedCurve@ExtractGeometry@@CAXPAUSdai_Id@@PAVPWBDataBase@@0@Z 0041c9f0 f   ExtractGeometry.obj
 0001:0001bdc0       ?ExtractCircle@ExtractGeometry@@CAXPAUSdai_Id@@PAVPWBDataBase@@0@Z 0041cdc0 f   ExtractGeometry.obj
 0001:0001bfb0       ?ExtractTrimSelectCoordinate@ExtractGeometry@@CAPAVAP210Point@@PAUSdai_Id@@PAVPWBDataBase@@PAUSdai_Id_aggr@@@Z 0041cfb0 f   ExtractGeometry.obj
 0001:0001c110       ?BuildCircle@ExtractGeometry@@CAXPAVPWBDataBase@@NPAVAP210Point@@@Z 0041d110 f   ExtractGeometry.obj
 0001:0001c370       ?BuildArc@ExtractGeometry@@CAXPAVPWBDataBase@@HPAVAP210Point@@11@Z 0041d370 f   ExtractGeometry.obj
 0001:0001c5a0       ?CalculateAngle@ExtractGeometry@@CANPAVAP210Point@@00@Z 0041d5a0 f   ExtractGeometry.obj
 0001:0001c6c0       ?Min@@YANNN@Z              0041d6c0 f   MathUtility.obj
 0001:0001c6f0       ?Max@@YANNN@Z              0041d6f0 f   MathUtility.obj
 0001:0001c720       ?NearZero@@YAHN@Z          0041d720 f   MathUtility.obj
 0001:0001c760       ?VectorAngle@@YANNNNNNN@Z  0041d760 f   MathUtility.obj
 0001:0001c8b0       ?Construct@MountingRestrictionArea@@SAXPAVPWBDataBase@@PAUSdai_Id_aggr@@@Z 0041d8b0 f   MountingRestrictionArea.obj
 0001:0001c940       ?Construct@MountingRestrictionArea@@SAPAV1@PAVPWBDataBase@@PAUSdai_Id@@@Z 0041d940 f   MountingRestrictionArea.obj
 0001:0001cb80       ??0MountingRestrictionArea@@AAE@PAVPWBDataBase@@PAUSdai_Id@@@Z 0041db80 f   MountingRestrictionArea.obj
 0001:0001d0f0       ?GetTypeID@MountingRestrictionArea@@UAEHXZ 0041e0f0 f i MountingRestrictionArea.obj
 0001:0001d110       ??_GMountingRestrictionArea@@UAEPAXI@Z 0041e110 f i MountingRestrictionArea.obj
 0001:0001d110       ??_EMountingRestrictionArea@@UAEPAXI@Z 0041e110 f i MountingRestrictionArea.obj
 0001:0001d150       ??1MountingRestrictionArea@@UAE@XZ 0041e150 f   MountingRestrictionArea.obj
 0001:0001d1b0       ?DynamicType@MountingRestrictionArea@@UAEHH@Z 0041e1b0 f   MountingRestrictionArea.obj
 0001:0001d1f0       ?getHeight@MountingRestrictionArea@@UAENXZ 0041e1f0 f   MountingRestrictionArea.obj
 0001:0001d240       ?setHeight@MountingRestrictionArea@@UAEXN@Z 0041e240 f   MountingRestrictionArea.obj
 0001:0001d2c0       ?getPoints@MountingRestrictionArea@@AAEXXZ 0041e2c0 f   MountingRestrictionArea.obj
 0001:0001d350       ?sortLines@MountingRestrictionArea@@AAEXXZ 0041e350 f   MountingRestrictionArea.obj
 0001:0001d600       ?matchLine@MountingRestrictionArea@@AAEPAVAP210LP@@PAVAP210Point@@@Z 0041e600 f   MountingRestrictionArea.obj
 0001:0001d6a0       ?setSeatingPlane@MountingRestrictionArea@@UAEXN@Z 0041e6a0 f   MountingRestrictionArea.obj
 0001:0001d6d0       ?applyTranslationMatrix@MountingRestrictionArea@@IAEXXZ 0041e6d0 f   MountingRestrictionArea.obj
 0001:0001d7c0       ?Draw@MountingRestrictionArea@@UAEXN@Z 0041e7c0 f   MountingRestrictionArea.obj
 0001:0001d800       ?RenderCaps@MountingRestrictionArea@@MAEXXZ 0041e800 f   MountingRestrictionArea.obj
 0001:0001d830       ?RenderSides@MountingRestrictionArea@@MAEXXZ 0041e830 f   MountingRestrictionArea.obj
 0001:0001d860       ?getShape@MountingRestrictionArea@@EAEPAUSdai_Id@@XZ 0041e860 f   MountingRestrictionArea.obj
 0001:0001da50       ?getSurface@MountingRestrictionArea@@QAE?AVCString@@XZ 0041ea50 f   MountingRestrictionArea.obj
 0001:0001db60       ?getX@MountingRestrictionArea@@QAENXZ 0041eb60 f   MountingRestrictionArea.obj
 0001:0001db80       ?setX@MountingRestrictionArea@@QAEXN@Z 0041eb80 f   MountingRestrictionArea.obj
 0001:0001dbc0       ?getY@MountingRestrictionArea@@QAENXZ 0041ebc0 f   MountingRestrictionArea.obj
 0001:0001dbe0       ?setY@MountingRestrictionArea@@QAEXN@Z 0041ebe0 f   MountingRestrictionArea.obj
 0001:0001dc20       ?setAppearance@MountingRestrictionArea@@QAEXH@Z 0041ec20 f   MountingRestrictionArea.obj
 0001:0001dcb0       ?getAppearance@MountingRestrictionArea@@QAEHXZ 0041ecb0 f   MountingRestrictionArea.obj
 0001:0001dcd0       ?ReDraw@MountingRestrictionArea@@UAEXNN@Z 0041ecd0 f   MountingRestrictionArea.obj
 0001:0001dd10       ?Construct@NonPlatedThruHole@@SAXPAVPWBDataBase@@PAUSdai_Id_aggr@@@Z 0041ed10 f   NonPlatedThruHole.obj
 0001:0001dda0       ?Construct@NonPlatedThruHole@@SAPAV1@PAVPWBDataBase@@PAUSdai_Id@@@Z 0041eda0 f   NonPlatedThruHole.obj
 0001:0001df10       ??0NonPlatedThruHole@@AAE@PAVPWBDataBase@@PAUSdai_Id@@PAVAP210ObjectList@@11@Z 0041ef10 f   NonPlatedThruHole.obj
 0001:0001e040       ?GetTypeID@NonPlatedThruHole@@UAEHXZ 0041f040 f i NonPlatedThruHole.obj
 0001:0001e060       ??_GNonPlatedThruHole@@UAEPAXI@Z 0041f060 f i NonPlatedThruHole.obj
 0001:0001e060       ??_ENonPlatedThruHole@@UAEPAXI@Z 0041f060 f i NonPlatedThruHole.obj
 0001:0001e0a0       ??1NonPlatedThruHole@@UAE@XZ 0041f0a0 f   NonPlatedThruHole.obj
 0001:0001e0d0       ?DynamicType@NonPlatedThruHole@@UAEHH@Z 0041f0d0 f   NonPlatedThruHole.obj
 0001:0001e110       ?ReDraw@NonPlatedThruHole@@UAEXNN@Z 0041f110 f   NonPlatedThruHole.obj
 0001:0001e150       ?Draw@NonPlatedThruHole@@UAEXN@Z 0041f150 f   NonPlatedThruHole.obj
 0001:0001e190       ?getConstructionThickness@NonPlatedThruHole@@QAENXZ 0041f190 f   NonPlatedThruHole.obj
 0001:0001e1c0       ?getThickness@NonPlatedThruHole@@QAENXZ 0041f1c0 f   NonPlatedThruHole.obj
 0001:0001e1f0       ?setThickness@NonPlatedThruHole@@QAEXN@Z 0041f1f0 f   NonPlatedThruHole.obj
 0001:0001e280       ?Construct@Package@@SAPAV1@PAVPWBDataBase@@PAUSdai_Id@@@Z 0041f280 f   Package.obj
 0001:0001e380       ??0Package@@AAE@PAVPWBDataBase@@PAUSdai_Id@@@Z 0041f380 f   Package.obj
 0001:0001e3c0       ?GetTypeID@Package@@UAEHXZ 0041f3c0 f i Package.obj
 0001:0001e3e0       ??_EPackage@@UAEPAXI@Z     0041f3e0 f i Package.obj
 0001:0001e3e0       ??_GPackage@@UAEPAXI@Z     0041f3e0 f i Package.obj
 0001:0001e420       ??1Package@@UAE@XZ         0041f420 f   Package.obj
 0001:0001e450       ?DynamicType@Package@@UAEHH@Z 0041f450 f   Package.obj
 0001:0001e490       ?OutputGlError@Package@@EAEXPAD@Z 0041f490 f   Package.obj
 0001:0001e4e0       ?getShape@Package@@AAEPAUSdai_Id@@PAU2@@Z 0041f4e0 f   Package.obj
 0001:0001e540       ?Select@Package@@UAEXPAVAP210ObjectListItor@@@Z 0041f540 f   Package.obj
 0001:0001e5c0       ?setHeight@Package@@UAEXN@Z 0041f5c0 f   Package.obj
 0001:0001e630       ?getHeight@Package@@UAENXZ 0041f630 f   Package.obj
 0001:0001e660       ??0PackagedComponent@@QAE@PAVPWBDataBase@@PAUSdai_Id@@11@Z 0041f660 f   PackagedComponent.obj
 0001:0001e8d0       ?GetTypeID@PackagedComponent@@UAEHXZ 0041f8d0 f i PackagedComponent.obj
 0001:0001e8f0       ??_EPackagedComponent@@UAEPAXI@Z 0041f8f0 f i PackagedComponent.obj
 0001:0001e8f0       ??_GPackagedComponent@@UAEPAXI@Z 0041f8f0 f i PackagedComponent.obj
 0001:0001e930       ??1PackagedComponent@@UAE@XZ 0041f930 f   PackagedComponent.obj
 0001:0001e960       ?DynamicType@PackagedComponent@@UAEHH@Z 0041f960 f   PackagedComponent.obj
 0001:0001e9a0       ?RenderCaps@PackagedComponent@@MAEXXZ 0041f9a0 f   PackagedComponent.obj
 0001:0001e9e0       ?RenderSides@PackagedComponent@@MAEXXZ 0041f9e0 f   PackagedComponent.obj
 0001:0001ea10       ?OutputGLError@PackagedComponent@@MAEXPAD@Z 0041fa10 f   PackagedComponent.obj
 0001:0001ea60       ?getReDrawStatus@PackagedComponent@@EAEHXZ 0041fa60 f   PackagedComponent.obj
 0001:0001ea90       ?setReDrawStatus@PackagedComponent@@MAEXH@Z 0041fa90 f   PackagedComponent.obj
 0001:0001eac0       ?getCapDisplayList@PackagedComponent@@EAEIXZ 0041fac0 f   PackagedComponent.obj
 0001:0001eaf0       ?getSideDisplayList@PackagedComponent@@EAEIXZ 0041faf0 f   PackagedComponent.obj
 0001:0001eb20       ?ReDraw@PackagedComponent@@UAEXNN@Z 0041fb20 f   PackagedComponent.obj
 0001:0001eb60       ?Construct@PackagedPart@@SAPAV1@PAVPWBDataBase@@PAUSdai_Id@@@Z 0041fb60 f   PackagedPart.obj
 0001:0001ec60       ??0PackagedPart@@AAE@PAVPWBDataBase@@PAUSdai_Id@@@Z 0041fc60 f   PackagedPart.obj
 0001:0001eea0       ?GetTypeID@PackagedPart@@UAEHXZ 0041fea0 f i PackagedPart.obj
 0001:0001eec0       ??_EPackagedPart@@UAEPAXI@Z 0041fec0 f i PackagedPart.obj
 0001:0001eec0       ??_GPackagedPart@@UAEPAXI@Z 0041fec0 f i PackagedPart.obj
 0001:0001ef00       ??1PackagedPart@@UAE@XZ    0041ff00 f   PackagedPart.obj
 0001:0001ef70       ?DynamicType@PackagedPart@@UAEHH@Z 0041ff70 f   PackagedPart.obj
 0001:0001efb0       ?Select@PackagedPart@@UAEXPAVAP210ObjectListItor@@@Z 0041ffb0 f   PackagedPart.obj
 0001:0001f030       ?getPackagedComponentCount@PackagedPart@@QAEHXZ 00420030 f   PackagedPart.obj
 0001:0001f0e0       ?Construct@PhysicalUnit@@SAPAV1@PAVPWBDataBase@@PAUSdai_Id@@@Z 004200e0 f   PhysicalUnit.obj
 0001:0001f200       ??0PhysicalUnit@@IAE@PAVPWBDataBase@@PAUSdai_Id@@@Z 00420200 f   PhysicalUnit.obj
 0001:0001f3b0       ?GetTypeID@PhysicalUnit@@UAEHXZ 004203b0 f i PhysicalUnit.obj
 0001:0001f3d0       ??_EPhysicalUnit@@MAEPAXI@Z 004203d0 f i PhysicalUnit.obj
 0001:0001f3d0       ??_GPhysicalUnit@@MAEPAXI@Z 004203d0 f i PhysicalUnit.obj
 0001:0001f410       ??1PhysicalUnit@@MAE@XZ    00420410 f   PhysicalUnit.obj
 0001:0001f450       ?DynamicType@PhysicalUnit@@UAEHH@Z 00420450 f   PhysicalUnit.obj
 0001:0001f490       ?getPoints@PhysicalUnit@@IAEXPAVAP210ObjectList@@@Z 00420490 f   PhysicalUnit.obj
 0001:0001f530       ?SortLines@PhysicalUnit@@AAEXPAVAP210ObjectList@@@Z 00420530 f   PhysicalUnit.obj
 0001:0001f7b0       ?MatchLine@PhysicalUnit@@AAEPAVAP210LP@@PAVAP210ObjectList@@PAVAP210Point@@@Z 004207b0 f   PhysicalUnit.obj
 0001:0001f840       ?Draw@PhysicalUnit@@QAEXN@Z 00420840 f   PhysicalUnit.obj
 0001:0001f880       ?ReDraw@PhysicalUnit@@UAEXNN@Z 00420880 f   PhysicalUnit.obj
 0001:0001f8c0       ?getConstructionHeight@PhysicalUnit@@QAENXZ 004208c0 f   PhysicalUnit.obj
 0001:0001f900       ?getShape@PhysicalUnit@@AAEPAUSdai_Id@@PAU2@@Z 00420900 f   PhysicalUnit.obj
 0001:0001f960       ?getPartNumber@PhysicalUnit@@QAEPADXZ 00420960 f   PhysicalUnit.obj
 0001:0001f980       ?Select@PhysicalUnit@@UAEXPAVAP210ObjectListItor@@@Z 00420980 f   PhysicalUnit.obj
 0001:0001fa00       ?setHeight@PhysicalUnit@@UAEXN@Z 00420a00 f   PhysicalUnit.obj
 0001:0001fa70       ?getHeight@PhysicalUnit@@UAENXZ 00420a70 f   PhysicalUnit.obj
 0001:0001fb20       ??1RoseDebugErrorReporter@@UAE@XZ 00420b20 f i RoseDebugErrorReporter.obj
 0001:0001fb40       ??0RoseDebugErrorReporter@@QAE@XZ 00420b40 f   RoseDebugErrorReporter.obj
 0001:0001fbb0       ?do_log@RoseDebugErrorReporter@@UAEXPADPAURoseError@@0@Z 00420bb0 f i RoseDebugErrorReporter.obj
 0001:0001fbf0       ??_ERoseDebugErrorReporter@@UAEPAXI@Z 00420bf0 f i RoseDebugErrorReporter.obj
 0001:0001fbf0       ??_GRoseDebugErrorReporter@@UAEPAXI@Z 00420bf0 f i RoseDebugErrorReporter.obj
 0001:0001fc30       ?do_report@RoseDebugErrorReporter@@UAEXPADPAURoseError@@0@Z 00420c30 f   RoseDebugErrorReporter.obj
 0001:0001fcc0       ?do_quit@RoseDebugErrorReporter@@UAEXH@Z 00420cc0 f   RoseDebugErrorReporter.obj
 0001:0001fcf0       ?getNamedRelatingShapeAspect@@YAPAUSdai_Id@@PAU1@0PAD@Z 00420cf0 f   SdaiStoredProceedures.obj
 0001:0001fef0       ?getNamedRelatedShapeAspect@@YAPAUSdai_Id@@PAU1@0PAD@Z 00420ef0 f   SdaiStoredProceedures.obj
 0001:000200f0       ?_sdaiGetSingleRepresentationItemOfType@@YAPAUSdai_Id@@PAU1@0@Z 004210f0 f   SdaiStoredProceedures.obj
 0001:000201b0       ?getPropertyDefinition@@YAPAUSdai_Id@@PAU1@0PAD0@Z 004211b0 f   SdaiStoredProceedures.obj
 0001:00020730       ?getPhysicalUnitsProductRelatedProductCategory@@YAPAUSdai_Id@@PAU1@@Z 00421730 f   SdaiStoredProceedures.obj
 0001:000208e0       ?getPackagedComponentPackage@@YAPAUSdai_Id@@PAU1@0@Z 004218e0 f   SdaiStoredProceedures.obj
 0001:00020ae0       ?getPackagedPartPackage@@YAPAUSdai_Id@@PAU1@0@Z 00421ae0 f   SdaiStoredProceedures.obj
 0001:00020c70       ?getNamedProductDefinitionRelationship@@YAPAUSdai_Id@@PAU1@0PAD0@Z 00421c70 f   SdaiStoredProceedures.obj
 0001:00020d10       ?getNamedProductDefinitionRelationships@@YAPAUSdai_Id_aggr@@PAUSdai_Id@@0PAD0PAU1@@Z 00421d10 f   SdaiStoredProceedures.obj
 0001:00020df0       ?getGraphicPropertiesShapeRep@@YAPAUSdai_Id@@PAU1@0@Z 00421df0 f   SdaiStoredProceedures.obj
 0001:00020ef0       ?getRepresentationLengthUnit@@YAPAUSdai_Id@@PAU1@0@Z 00421ef0 f   SdaiStoredProceedures.obj
 0001:000210c0       ?getGeometryFromShapeRep@@YAPAUSdai_Id_aggr@@PAUSdai_Id@@0@Z 004220c0 f   SdaiStoredProceedures.obj
 0001:00021210       ?getGeometryFromGeometricCurveSet@@YAXPAUSdai_Id@@0PAUSdai_ItrId@@@Z 00422210 f   SdaiStoredProceedures.obj
 0001:00021500       ?getGeometryFromAnnotationCurveOccurance@@YAXPAUSdai_Id@@0PAUSdai_ItrId@@@Z 00422500 f   SdaiStoredProceedures.obj
 0001:000216d0       ?getGeometryFromCompositeCurve@@YAXPAUSdai_Id@@0PAUSdai_ItrId@@@Z 004226d0 f   SdaiStoredProceedures.obj
 0001:00021840       ?getPackagedComponentLocation@@YAPAUSdai_Id@@PAU1@0@Z 00422840 f   SdaiStoredProceedures.obj
 0001:00021a50       ?getComponentDefinitionShapeRepresentation@@YAPAUSdai_Id@@PAU1@0@Z 00422a50 f   SdaiStoredProceedures.obj
 0001:00021be0       ?getPackageShapeRepresentation@@YAPAUSdai_Id@@PAU1@0@Z 00422be0 f   SdaiStoredProceedures.obj
 0001:00021d70       ?getPhysicalUnitsProduct@@YAPAUSdai_Id@@PAU1@0@Z 00422d70 f   SdaiStoredProceedures.obj
 0001:00021ec0       ?getPhysicalUnitsPartNumber@@YAPADPAUSdai_Id@@0@Z 00422ec0 f   SdaiStoredProceedures.obj
 0001:00021f50       ?getPackagedPartProduct@@YAPAUSdai_Id@@PAU1@0@Z 00422f50 f   SdaiStoredProceedures.obj
 0001:000220b0       ?getPackagedPartPartNumber@@YAPADPAUSdai_Id@@0@Z 004230b0 f   SdaiStoredProceedures.obj
 0001:00022140       ?getPackagedComponentProduct@@YAPAUSdai_Id@@PAU1@0@Z 00423140 f   SdaiStoredProceedures.obj
 0001:00022370       ?getPackagedComponentPackagedPart@@YAPAUSdai_Id@@PAU1@0@Z 00423370 f   SdaiStoredProceedures.obj
 0001:000224f0       ?getPackagedComponentPartNumber@@YAPADPAUSdai_Id@@0@Z 004234f0 f   SdaiStoredProceedures.obj
 0001:00022580       ?getCartesianLocation@@YAXPAUSdai_Id@@0PAN11@Z 00423580 f   SdaiStoredProceedures.obj
 0001:000227f0       ?getPackagedComponentHeight@@YANPAUSdai_Id@@0@Z 004237f0 f   SdaiStoredProceedures.obj
 0001:000228b0       ?getPackageHeight@@YANPAUSdai_Id@@0@Z 004238b0 f   SdaiStoredProceedures.obj
 0001:00022990       ?setPackageHeight@@YAXPAUSdai_Id@@0N@Z 00423990 f   SdaiStoredProceedures.obj
 0001:00022a50       ?getNamedRepresentation@@YAPAUSdai_Id@@PAU1@0PAD@Z 00423a50 f   SdaiStoredProceedures.obj
 0001:00022da0       ?getLocatedInterconnectModuleThickness@@YAPAUSdai_Id@@PAU1@0@Z 00423da0 f   SdaiStoredProceedures.obj
 0001:000231f0       ?getPCBThickness@@YANPAUSdai_Id@@0@Z 004241f0 f   SdaiStoredProceedures.obj
 0001:000233b0       ?setPCBThickness@@YAXPAUSdai_Id@@0N@Z 004243b0 f   SdaiStoredProceedures.obj
 0001:000235a0       ?getNamedRepresentationItem@@YAPAUSdai_Id@@PAU1@0PAD@Z 004245a0 f   SdaiStoredProceedures.obj
 0001:00023730       ?getLengthMeasureWithUnit@@YANPAUSdai_Id@@0@Z 00424730 f   SdaiStoredProceedures.obj
 0001:00023870       ?setLengthMeasureWithUnit@@YAXPAUSdai_Id@@0N@Z 00424870 f   SdaiStoredProceedures.obj
 0001:000239f0       ?getInterconnectModuleEdgeShapeRep@@YAPAUSdai_Id@@PAU1@0@Z 004249f0 f   SdaiStoredProceedures.obj
 0001:00023d10       ?getNamedProductDefinitionShapeAspect@@YAPAUSdai_Id@@PAU1@0@Z 00424d10 f   SdaiStoredProceedures.obj
 0001:00023f20       ?getInterconnectModuleEdgeSurfaceShapeRep@@YAPAUSdai_Id@@PAU1@0@Z 00424f20 f   SdaiStoredProceedures.obj
 0001:000240a0       ?tracePhysicalUnitView@@YAXPAUSdai_Id@@0@Z 004250a0 f   SdaiStoredProceedures.obj
 0001:00024270       ?getComponentDescriptiveRepresentationItemList@@YAPAUSdai_Id_aggr@@PAUSdai_Id@@0@Z 00425270 f   SdaiStoredProceedures.obj
 0001:000245c0       ?getProductDefinitionProduct@@YAPAUSdai_Id@@PAU1@0@Z 004255c0 f   SdaiStoredProceedures.obj
 0001:000247f0       ?getProductDefinitionPhysicalUnit@@YAPAUSdai_Id@@PAU1@0@Z 004257f0 f   SdaiStoredProceedures.obj
 0001:00024970       ?getPhysicalUnitsHeight@@YANPAUSdai_Id@@0@Z 00425970 f   SdaiStoredProceedures.obj
 0001:00024a70       ?setPhysicalUnitsHeight@@YAXPAUSdai_Id@@0N@Z 00425a70 f   SdaiStoredProceedures.obj
 0001:00024b30       ?getInterconnectModuleComponentDefinition@@YAPAUSdai_Id@@PAU1@0@Z 00425b30 f   SdaiStoredProceedures.obj
 0001:00024cb0       ?getMountingRestrictionAreas@@YAPAUSdai_Id_aggr@@PAUSdai_Id@@PAU1@0@Z 00425cb0 f   SdaiStoredProceedures.obj
 0001:00024e60       ?getNamedRepresentationRelationship@@YAPAUSdai_Id@@PAU1@00PAD@Z 00425e60 f   SdaiStoredProceedures.obj
 0001:000250a0       ?_sdaiGetPart21Description@@YAPBDPAUSdai_Id@@@Z 004260a0 f   SdaiUtility.obj
 0001:00025110       ?_sdaiGetPart21Id@@YAKPAUSdai_Id@@@Z 00426110 f   SdaiUtility.obj
 0001:00025140       ?_sdaiDisplayNPL@@YAXPAUSdai_Id_aggr@@@Z 00426140 f   SdaiUtility.obj
 0001:000251a0       ?_sdaiInstanceAttributeValueQuery@@YAPAUSdai_Id_aggr@@PAU1@PAUSdai_Id@@W4SdaiPrimitiveType@@PAX0@Z 004261a0 f   SdaiUtility.obj
 0001:00025260       ?_sdaiFindSingleSubTypeInstanceUsedIn@@YAPAUSdai_Id@@PAU1@00@Z 00426260 f   SdaiUtility.obj
 0001:00025430       ?_sdaiFindSingleSubTypeKindOfUsedIn@@YAPAUSdai_Id@@PAU1@00@Z 00426430 f   SdaiUtility.obj
 0001:000256b0       ?_sdaiFindSubTypeInstanceUsedIn@@YAPAUSdai_Id_aggr@@PAUSdai_Id@@00PAU1@@Z 004266b0 f   SdaiUtility.obj
 0001:000257a0       ?_sdaiGetStringAttrWithQuotesBN@@YAPADPAUSdai_Id@@PADPAPAD@Z 004267a0 f   SdaiUtility.obj
 0001:00025860       ?entity_id@RoseObject@@QAEKXZ 00426860 f i SdaiUtility.obj
 0001:00025880       ?getUnitConversionFactor@@YANPAUSdai_Id@@0PAN@Z 00426880 f   UnitUtility.obj
 0001:00025c20       ?getPrefixConversionFactor@@YANPAD@Z 00426c20 f   UnitUtility.obj
 0001:00025ed0       ?normalize@@YAXQAM@Z       00426ed0 f   MatrixUtilities.obj
 0001:00025f70       ?ncrossprod@@YAXQAM00@Z    00426f70 f   MatrixUtilities.obj
 0001:00025ff0       ?_glIdentityMatrixd@@YAXQAN@Z 00426ff0 f   MatrixUtilities.obj
 0001:00026110       ?_glCopyMatrixd@@YAXQAN0@Z 00427110 f   MatrixUtilities.obj
 0001:00026240       ?_glMultiplyMatrixd@@YAXQAN00@Z 00427240 f   MatrixUtilities.obj
 0001:000265f0       ?_glTraceMatrixd@@YAXQAN@Z 004275f0 f   MatrixUtilities.obj
 0001:00026710       ?_glDefineMatrixd@@YAXQANPAD@Z 00427710 f   MatrixUtilities.obj
 0001:00026820       _beginCallback@4           00427820 f   Tess.obj
 0001:00026840       _errorCallback@4           00427840 f   Tess.obj
 0001:00026860       _endCallback@0             00427860 f   Tess.obj
 0001:00026880       _combineCallback@16        00427880 f   Tess.obj
 0001:000268e0       _InitTess                  004278e0 f   Tess.obj
 0001:00026960       ?vzero@@YAXPAM@Z           00427960 f   trackball.obj
 0001:00026990       ?vset@@YAXPAMMMM@Z         00427990 f   trackball.obj
 0001:000269c0       ?vsub@@YAXPBM0PAM@Z        004279c0 f   trackball.obj
 0001:00026a10       ?vcopy@@YAXPBMPAM@Z        00427a10 f   trackball.obj
 0001:00026a50       ?vcross@@YAXPBM0PAM@Z      00427a50 f   trackball.obj
 0001:00026ad0       ?vlength@@YAMPBM@Z         00427ad0 f   trackball.obj
 0001:00026b20       ?vscale@@YAXPAMM@Z         00427b20 f   trackball.obj
 0001:00026b60       ?vnormal@@YAXPAM@Z         00427b60 f   trackball.obj
 0001:00026ba0       ?vdot@@YAMPBM0@Z           00427ba0 f   trackball.obj
 0001:00026be0       ?vadd@@YAXPBM0PAM@Z        00427be0 f   trackball.obj
 0001:00026c30       ?trackball@@YAXQAMMMMM@Z   00427c30 f   trackball.obj
 0001:00026d70       ?axis_to_quat@@YAXQAMM0@Z  00427d70 f   trackball.obj
 0001:00026e70       ?add_quats@@YAXPAM00@Z     00427e70 f   trackball.obj
 0001:00027000       ?build_rotmatrix@@YAXQAY03MQAM@Z 00428000 f   trackball.obj
 0001:00027190       ??0IDFToSdai@@AAE@XZ       00428190 f   IDFToSdai.obj
 0001:000271b0       ??_GIDFToSdai@@UAEPAXI@Z   004281b0 f i IDFToSdai.obj
 0001:000271b0       ??_EIDFToSdai@@UAEPAXI@Z   004281b0 f i IDFToSdai.obj
 0001:000271f0       ??1IDFToSdai@@UAE@XZ       004281f0 f   IDFToSdai.obj
 0001:00027210       ?parseIDF@IDFToSdai@@SAHPADPAUSdai_Id@@@Z 00428210 f   IDFToSdai.obj
 0001:000274a0       ?yyparse@IDFToSdai@@CAHXZ  004284a0 f   IDFToSdai.obj
 0001:000292e0       ?MTKsdaiInsertAfterBN@IDFToSdai@@CAXPAUSdai_Id@@PADW4SdaiPrimitiveType@@0@Z 0042a2e0 f   IDFToSdai.obj
 0001:00029370       ?yylex@IDFToSdai@@CAHXZ    0042a370 f   IDFToSdai.obj
 0001:0002a550       ?yy_get_next_buffer@IDFToSdai@@CAHXZ 0042b550 f   IDFToSdai.obj
 0001:0002a8d0       ?yy_get_previous_state@IDFToSdai@@CAHXZ 0042b8d0 f   IDFToSdai.obj
 0001:0002aab0       ?yyunput@IDFToSdai@@AAEXHPAD@Z 0042bab0 f   IDFToSdai.obj
 0001:0002abd0       ?yyinput@IDFToSdai@@AAEHXZ 0042bbd0 f   IDFToSdai.obj
 0001:0002ad00       ?yyrestart@IDFToSdai@@CAXPAU_iobuf@@@Z 0042bd00 f   IDFToSdai.obj
 0001:0002ad50       ?yy_switch_to_buffer@IDFToSdai@@AAEXPAUyy_buffer_state@@@Z 0042bd50 f   IDFToSdai.obj
 0001:0002adc0       ?yy_load_buffer_state@IDFToSdai@@CAXXZ 0042bdc0 f   IDFToSdai.obj
 0001:0002ae20       ?yy_create_buffer@IDFToSdai@@CAPAUyy_buffer_state@@PAU_iobuf@@H@Z 0042be20 f   IDFToSdai.obj
 0001:0002aeb0       ?yy_delete_buffer@IDFToSdai@@AAEXPAUyy_buffer_state@@@Z 0042beb0 f   IDFToSdai.obj
 0001:0002af10       ?yy_init_buffer@IDFToSdai@@CAXPAUyy_buffer_state@@PAU_iobuf@@@Z 0042bf10 f   IDFToSdai.obj
 0001:0002af50       ?yy_flush_buffer@IDFToSdai@@CAXPAUyy_buffer_state@@@Z 0042bf50 f   IDFToSdai.obj
 0001:0002afc0       ?yy_scan_buffer@IDFToSdai@@AAEPAUyy_buffer_state@@PADI@Z 0042bfc0 f   IDFToSdai.obj
 0001:0002b0a0       ?yy_scan_string@IDFToSdai@@AAEPAUyy_buffer_state@@PAD@Z 0042c0a0 f   IDFToSdai.obj
 0001:0002b0f0       ?yy_scan_bytes@@YAPAUyy_buffer_state@@PADH@Z 0042c0f0 f   IDFToSdai.obj
 0001:0002b240       ?StripQuotes@@YAPADPAD@Z   0042c240 f   IDFToSdai.obj
 0001:0002b280       ?yywrap@IDFToSdai@@CAHXZ   0042c280 f   IDFToSdai.obj
 0001:0002b320       ?yyerror@IDFToSdai@@CAXPAD@Z 0042c320 f   IDFToSdai.obj
 0001:0002b470       ?originating_system@file_name@@QAEXPAD@Z 0042c470 f i IDFToSdai.obj
 0001:0002b4a0       ?boolean_to_string@@YAXXZ  0042c4a0 f   helpers.obj
 0001:0002b510       ?enum_to_integer@@YAXXZ    0042c510 f   helpers.obj
 0001:0002b5a0       ?integer_to_string@@YAXXZ  0042c5a0 f   helpers.obj
 0001:0002b600       ?delete_obj@@YAXXZ         0042c600 f   helpers.obj
 0001:0002b670       ?set_null_enum@@YAXXZ      0042c670 f   helpers.obj
 0001:0002b700       ?set_null_complex_attribute@@YAXXZ 0042c700 f   helpers.obj
 0001:0002b800       ?set_complex_string_attribute@@YAXXZ 0042c800 f   helpers.obj
 0001:0002b920       ?PopulateDateAndTime@@YAXXZ 0042c920 f   helpers.obj
 0001:0002ba50       ?class_type@association_manager@@SAIXZ 0042ca50 f   helpers.obj
 0001:0002ba90       ?get_manager@@YAPAVassociation_manager@@PAVRoseObject@@@Z 0042ca90 f   helpers.obj
 0001:0002bb30       ??0association_manager@@QAE@XZ 0042cb30 f i helpers.obj
 0001:0002bb70       ?manager_type@association_manager@@UAEIXZ 0042cb70 f i helpers.obj
 0001:0002bb90       ??_Eassociation_manager@@UAEPAXI@Z 0042cb90 f i helpers.obj
 0001:0002bb90       ??_Gassociation_manager@@UAEPAXI@Z 0042cb90 f i helpers.obj
 0001:0002bbd0       ??1association_manager@@UAE@XZ 0042cbd0 f i helpers.obj
 0001:0002bbf0       ?set_originated_from@@YAXXZ 0042cbf0 f   helpers.obj
 0001:0002bc40       ?set_created@@YAXXZ        0042cc40 f   helpers.obj
 0001:0002bc90       ?get_source@@YAXXZ         0042cc90 f   helpers.obj
 0001:0002bce0       ?get_target@@YAXXZ         0042cce0 f   helpers.obj
 0001:0002bd30       ?find_schema_binding@@YAPAVRoseDesign@@PAD@Z 0042cd30 f   helpers.obj
 0001:0002bdb0       ?schemaInstanceNames@SchemaMap@@QAEPAVListOfString@@XZ 0042cdb0 f i helpers.obj
 0001:0002bdd0       ?boundSchemaInstance@SchemaMap@@QAEPAVRoseDesign@@H@Z 0042cdd0 f i helpers.obj
 0001:0002be10       ?create_complex@@YAXXZ     0042ce10 f   helpers.obj
 0001:0002bed0       ?debug_integer@@YAXXZ      0042ced0 f   helpers.obj
 0001:0002bf10       ?debug_message@@YAXXZ      0042cf10 f   helpers.obj
 0001:0002bf50       ?initialize_header@@YAXXZ  0042cf50 f   helpers.obj
 0001:0002bfc0       ?set_originating_system@@YAXXZ 0042cfc0 f   helpers.obj
 0001:0002c050       ?add_to_description@@YAXXZ 0042d050 f   helpers.obj
 0001:0002c0e0       ?add_to_author@@YAXXZ      0042d0e0 f   helpers.obj
 0001:0002c170       ?add_to_organization@@YAXXZ 0042d170 f   helpers.obj
 0001:0002c200       ?bind_external_functions@@YAXXZ 0042d200 f   helpers.obj
 0001:0002c3d0       ?name@NamedRoseAvlTreeEntry@@QAEPADXZ 0042d3d0 f i helpers.obj
 0001:0002c3f0       ?ro_str@RoseStringObject@@QBEPADXZ 0042d3f0 f i helpers.obj
 0001:0002c430       ??0RoseManager@@QAE@XZ     0042d430 f i helpers.obj
 0001:0002c460       ??1RoseManager@@UAE@XZ     0042d460 f i helpers.obj
 0001:0002c480       ??_ERoseManager@@UAEPAXI@Z 0042d480 f i helpers.obj
 0001:0002c480       ??_GRoseManager@@UAEPAXI@Z 0042d480 f i helpers.obj
 0001:0002c4c0       ?slotRoseType@RoseAttribute@@QAEAAVRoseTypePtr@@XZ 0042d4c0 f i helpers.obj
 0001:0002c4f0       ?isString@RoseAttribute@@QAEDXZ 0042d4f0 f i helpers.obj
 0001:0002c520       ?slotNodeType@RoseAttribute@@QAE?AW4RoseNodeType@@XZ 0042d520 f i helpers.obj
 0001:0002c550       ?typeNodeType@RoseDomain@@QAE?AW4RoseNodeType@@XZ 0042d550 f i helpers.obj
 0001:0002c590       ?slotDomain@RoseAttribute@@QAEPAVRoseDomain@@XZ 0042d590 f i helpers.obj
 0001:0002c600       ?initialize_system@@YAPAVSchemaMap@@PAD@Z 0042d600 f   idf2arm.obj
 0001:0002c7e0       ?add@ListOfexp_definition@@QAEPAV1@PAVexp_definition@@@Z 0042d7e0 f i idf2arm.obj
 0001:0002c810       ?domain@RoseType@@QAEPAVRoseDomain@@XZ 0042d810 f i idf2arm.obj
 0001:0002c850       ?add@ListOfRoseDesign@@QAEPAV1@PAVRoseDesign@@@Z 0042d850 f i idf2arm.obj
 0001:0002c880       ?WriteIDFStep@@YAHPAUSdai_Id@@PAD1@Z 0042d880 f   idf2arm.obj
 0001:0002c8e0       ?WriteAP210ArmFile@@YAHPAVRoseDesign@@PAD1@Z 0042d8e0 f   idf2arm.obj
 0001:0002c9b0       ?WriteAP210AimFile@@YAHPAVRoseDesign@@PAD1@Z 0042d9b0 f   idf2arm.obj
 0001:0002ca80       ?GetVectorMag@@YANHPAN@Z   0042da80 f   PopulateBaseCircle.obj
 0001:0002caf0       ?UnitizeVector@@YAHHPAN0@Z 0042daf0 f   PopulateBaseCircle.obj
 0001:0002cc90       ?CrossVector@@YAXQAN00@Z   0042dc90 f   PopulateBaseCircle.obj
 0001:0002cd00       ?pythagorean_theorem@@YANNN@Z 0042dd00 f   PopulateBaseCircle.obj
 0001:0002cd30       ?PopulateBaseCircle@@YAXXZ 0042dd30 f   PopulateBaseCircle.obj
 0001:0002d1a0       ?CalculateBaseCircle@@YAXNNNNNPAN00@Z 0042e1a0 f   PopulateBaseCircle.obj
 0001:0002d320       ??3RoseObject@@SAXPAX@Z    0042e320 f i PopulateBaseCircle.obj
 0001:0002d340       ??2ListOfDouble@@SAPAXI@Z  0042e340 f i PopulateBaseCircle.obj
 0001:0002d370       ?PrintIDFBoardFile@@YAXPAU_iobuf@@PAUSdai_Id@@@Z 0042e370 f   boardfile.obj
 0001:0002d600       ?PrintIDFBoardHeader@@YAXPAU_iobuf@@PAUSdai_Id@@@Z 0042e600 f   boardfile.obj
 0001:0002d700       ?PrintIDFBoardOutline@@YAXPAU_iobuf@@PAUSdai_Id@@@Z 0042e700 f   boardfile.obj
 0001:0002d7d0       ?PrintIDFBoardOtherOutline@@YAXPAU_iobuf@@PAUSdai_Id_aggr@@@Z 0042e7d0 f   boardfile.obj
 0001:0002d830       ?PrintIDFOtherOutline@@YAXPAU_iobuf@@PAUSdai_Id@@@Z 0042e830 f   boardfile.obj
 0001:0002d920       ?PrintIDFBoardRouteOutline@@YAXPAU_iobuf@@PAUSdai_Id_aggr@@@Z 0042e920 f   boardfile.obj
 0001:0002d980       ?PrintIDFRouteOutline@@YAXPAU_iobuf@@PAUSdai_Id@@@Z 0042e980 f   boardfile.obj
 0001:0002d9e0       ?PrintIDFBoardPlaceOutline@@YAXPAU_iobuf@@PAUSdai_Id_aggr@@@Z 0042e9e0 f   boardfile.obj
 0001:0002da40       ?PrintIDFPlaceOutline@@YAXPAU_iobuf@@PAUSdai_Id@@@Z 0042ea40 f   boardfile.obj
 0001:0002daa0       ?PrintIDFBoardRouteKeepout@@YAXPAU_iobuf@@PAUSdai_Id_aggr@@@Z 0042eaa0 f   boardfile.obj
 0001:0002db00       ?PrintIDFRouteKeepout@@YAXPAU_iobuf@@PAUSdai_Id@@@Z 0042eb00 f   boardfile.obj
 0001:0002db90       ?PrintIDFBoardViaKeepout@@YAXPAU_iobuf@@PAUSdai_Id_aggr@@@Z 0042eb90 f   boardfile.obj
 0001:0002dbf0       ?PrintIDFViaKeepout@@YAXPAU_iobuf@@PAUSdai_Id@@@Z 0042ebf0 f   boardfile.obj
 0001:0002dc50       ?PrintIDFBoardPlaceKeepout@@YAXPAU_iobuf@@PAUSdai_Id_aggr@@@Z 0042ec50 f   boardfile.obj
 0001:0002dcb0       ?PrintIDFPlaceKeepout@@YAXPAU_iobuf@@PAUSdai_Id@@@Z 0042ecb0 f   boardfile.obj
 0001:0002dd80       ?PrintIDFBoardPlaceRegion@@YAXPAU_iobuf@@PAUSdai_Id_aggr@@@Z 0042ed80 f   boardfile.obj
 0001:0002dde0       ?PrintIDFPlaceRegion@@YAXPAU_iobuf@@PAUSdai_Id@@@Z 0042ede0 f   boardfile.obj
 0001:0002de90       ?PrintIDFBoardDrilledHoles@@YAXPAU_iobuf@@PAUSdai_Id_aggr@@@Z 0042ee90 f   boardfile.obj
 0001:0002df10       ?PrintIDFDrilledHoles@@YAXPAU_iobuf@@PAUSdai_Id@@@Z 0042ef10 f   boardfile.obj
 0001:0002dfd0       ?PrintIDFBoardPlacement@@YAXPAU_iobuf@@PAUSdai_Id_aggr@@@Z 0042efd0 f   boardfile.obj
 0001:0002e050       ?PrintIDFPlacement@@YAXPAU_iobuf@@PAUSdai_Id@@@Z 0042f050 f   boardfile.obj
 0001:0002e1b0       ?PrintIDFLibraryFile@@YAXPAU_iobuf@@PAUSdai_Id@@@Z 0042f1b0 f   LibraryFile.obj
 0001:0002e270       ?PrintIDFLibraryHeader@@YAXPAU_iobuf@@PAUSdai_Id@@@Z 0042f270 f   LibraryFile.obj
 0001:0002e320       ?PrintIDFLibraryElectrical@@YAXPAU_iobuf@@PAUSdai_Id_aggr@@@Z 0042f320 f   LibraryFile.obj
 0001:0002e380       ?PrintIDFElectrical@@YAXPAU_iobuf@@PAUSdai_Id@@@Z 0042f380 f   LibraryFile.obj
 0001:0002e460       ?PrintIDFLibraryMechanical@@YAXPAU_iobuf@@PAUSdai_Id_aggr@@@Z 0042f460 f   LibraryFile.obj
 0001:0002e4c0       ?PrintIDFMechanical@@YAXPAU_iobuf@@PAUSdai_Id@@@Z 0042f4c0 f   LibraryFile.obj
 0001:0002e5a0       ?PrintIDFLoop@@YAXPAU_iobuf@@PAUSdai_Id@@@Z 0042f5a0 f   LibraryFile.obj
 0001:0002e6b0       ?PrintIDFLoopList@@YAXPAU_iobuf@@PAUSdai_Id_aggr@@@Z 0042f6b0 f   LibraryFile.obj
 0001:0002e710       ?WriteIDF@@YAHPAUSdai_Id@@PAD1@Z 0042f710 f   SdaiToIDF.obj
 0001:0002e9f0       ?my_add_schema_fn@@YAKPAVRoseDesign@@PAD@Z 0042f9f0 f   SchemaName.obj
 0001:0002ea40       ?set_schema_fn@@YAXXZ      0042fa40 f   SchemaName.obj
 0001:0002ea90       ?isObjectAllowed@RosePtrList@@UAEDPAVRoseObject@@I@Z 0042fa90 f i expx:ignorestruct.obj
 0001:0002eaa0       ??_GListOfentity_or_defined@@UAEPAXI@Z 0042faa0 f i expx:ignorestruct.obj
 0001:0002eaa0       ??_EListOfentity_or_defined@@UAEPAXI@Z 0042faa0 f i expx:ignorestruct.obj
 0001:0002eae0       ?_address@ListOfentity_or_defined@@UAEPAXXZ 0042fae0 f   expx:ignorestruct.obj
 0001:0002eaf0       ?classType@ListOfentity_or_defined@@UAEAAVRoseTypePtr@@XZ 0042faf0 f   expx:ignorestruct.obj
 0001:0002eb90       ?ListOfentity_or_defined_INIT_FCN@@YAXAAVRoseTypePtr@@@Z 0042fb90 f   expx:ignorestruct.obj
 0001:0002ec20       ?_data@ListOfentity_or_defined@@QAEPAPAUentity_or_defined_type@@XZ 0042fc20 f   expx:ignorestruct.obj
 0001:0002ec30       ??AListOfentity_or_defined@@QAEPAUentity_or_defined_type@@I@Z 0042fc30 f   expx:ignorestruct.obj
 0001:0002ec60       ?get@ListOfentity_or_defined@@QAEPAUentity_or_defined_type@@I@Z 0042fc60 f   expx:ignorestruct.obj
 0001:0002ec90       ?first@ListOfentity_or_defined@@QAEPAUentity_or_defined_type@@XZ 0042fc90 f   expx:ignorestruct.obj
 0001:0002ecb0       ?last@ListOfentity_or_defined@@QAEPAUentity_or_defined_type@@XZ 0042fcb0 f   expx:ignorestruct.obj
 0001:0002ece0       ?contains@ListOfentity_or_defined@@QAEDPAUentity_or_defined_type@@@Z 0042fce0 f   expx:ignorestruct.obj
 0001:0002ed00       ?_element@ListOfentity_or_defined@@QAEPAUentity_or_defined_type@@I@Z 0042fd00 f   expx:ignorestruct.obj
 0001:0002ed20       ?slotType@ListOfentity_or_defined@@UAEAAVRoseTypePtr@@PAVRoseAttribute@@I@Z 0042fd20 f   expx:ignorestruct.obj
 0001:0002ed30       ?populate_ignore_structures@@YAXPAD@Z 0042fd30 f   expx:ignorestruct.obj
 0001:0002eeb0       ??0entity_defined_ignore@@QAE@XZ 0042feb0 f   expx:ignorestruct.obj
 0001:0002eef0       ??1entity_defined_ignore@@QAE@XZ 0042fef0 f   expx:ignorestruct.obj
 0001:0002ef10       ?add@entity_defined_ignore@@QAEXPAD@Z 0042ff10 f   expx:ignorestruct.obj
 0001:0002ef40       ?should_ignore@entity_defined_ignore@@QAEHPAD@Z 0042ff40 f   expx:ignorestruct.obj
 0001:0002efe0       ?_address@exp_when_stmt@@UAEPAXXZ 0042ffe0 f   expx:exp_when_stmt.obj
 0001:0002eff0       ?classType@exp_when_stmt@@UAEAAVRoseTypePtr@@XZ 0042fff0 f   expx:exp_when_stmt.obj
 0001:0002f0b0       ?exp_when_stmt_INIT_FCN@@YAXAAVRoseTypePtr@@@Z 004300b0 f   expx:exp_when_stmt.obj
 0001:0002f1b0       ?clause@exp_when_stmt@@QAEPAVListOfexp_where_clause@@XZ 004301b0 f   expx:exp_when_stmt.obj
 0001:0002f280       ??_EListOfexp_where_clause@@UAEPAXI@Z 00430280 f i expx:exp_when_stmt.obj
 0001:0002f280       ??_GListOfexp_where_clause@@UAEPAXI@Z 00430280 f i expx:exp_when_stmt.obj
 0001:0002f2a0       ?body@exp_when_stmt@@QAEPAVListOfexp_statement@@XZ 004302a0 f   expx:exp_when_stmt.obj
 0001:0002f370       ??_EListOfexp_statement@@UAEPAXI@Z 00430370 f i expx:exp_when_stmt.obj
 0001:0002f370       ??_GListOfexp_statement@@UAEPAXI@Z 00430370 f i expx:exp_when_stmt.obj
 0001:0002f390       ??0exp_when_stmt@@QAE@XZ   00430390 f   expx:exp_when_stmt.obj
 0001:0002f410       ?getAttribute@RoseStructure@@UAEPAVRoseAttribute@@PBD@Z 00430410 f i expx:exp_when_stmt.obj
 0001:0002f420       ??_ERoseStructure@@UAEPAXI@Z 00430420 f i expx:exp_when_stmt.obj
 0001:0002f420       ??_GRoseStructure@@UAEPAXI@Z 00430420 f i expx:exp_when_stmt.obj
 0001:0002f440       ??0exp_when_stmt@@QAE@PAVexp_source_file@@HPAVListOfexp_where_clause@@PAVListOfexp_statement@@@Z 00430440 f   expx:exp_when_stmt.obj
 0001:0002f510       ?_address@exp_when_stmt@@$4PPPPPPPM@A@AEPAXXZ 00430510 f i expx:exp_when_stmt.obj
 0001:0002f520       ?classType@exp_when_stmt@@$4PPPPPPPM@A@AEAAVRoseTypePtr@@XZ 00430520 f i expx:exp_when_stmt.obj
 0001:0002f530       ??_Eexp_when_stmt@@$4PPPPPPPM@A@AEPAXI@Z 00430530 f i expx:exp_when_stmt.obj
 0001:0002f540       ??_Gexp_when_stmt@@UAEPAXI@Z 00430540 f i expx:exp_when_stmt.obj
 0001:0002f540       ??_Eexp_when_stmt@@UAEPAXI@Z 00430540 f i expx:exp_when_stmt.obj
 0001:0002f5b0       ?_address@exp_member@@UAEPAXXZ 004305b0 f   expx:exp_member.obj
 0001:0002f5c0       ?classType@exp_member@@UAEAAVRoseTypePtr@@XZ 004305c0 f   expx:exp_member.obj
 0001:0002f680       ?exp_member_INIT_FCN@@YAXAAVRoseTypePtr@@@Z 00430680 f   expx:exp_member.obj
 0001:0002f7f0       ?parameters@exp_member@@QAEPAVListOfexp_extended_entity_ref@@XZ 004307f0 f   expx:exp_member.obj
 0001:0002f8c0       ??_GListOfexp_extended_entity_ref@@UAEPAXI@Z 004308c0 f i expx:exp_member.obj
 0001:0002f8c0       ??_EListOfexp_extended_entity_ref@@UAEPAXI@Z 004308c0 f i expx:exp_member.obj
 0001:0002f8e0       ?when_clause@exp_member@@QAEPAVListOfexp_where_clause@@XZ 004308e0 f   expx:exp_member.obj
 0001:0002f9b0       ?includes@exp_member@@QAEPAVListOfexp_expression@@XZ 004309b0 f   expx:exp_member.obj
 0001:0002fa80       ??_GListOfexp_expression@@UAEPAXI@Z 00430a80 f i expx:exp_member.obj
 0001:0002fa80       ??_EListOfexp_expression@@UAEPAXI@Z 00430a80 f i expx:exp_member.obj
 0001:0002faa0       ?excludes@exp_member@@QAEPAVListOfexp_expression@@XZ 00430aa0 f   expx:exp_member.obj
 0001:0002fb70       ??0exp_member@@QAE@XZ      00430b70 f   expx:exp_member.obj
 0001:0002fc10       ??0exp_member@@QAE@PAVexp_source_file@@HPAVexp_symbol@@PAVexp_scope@@PAVListOfexp_definition@@PAVexp_extended_entity_ref@@PAVListOfexp_extended_entity_ref@@PAVListOfexp_where_clause@@PAVListOfexp_expression@@7@Z 00430c10 f   expx:exp_member.obj
 0001:0002fd80       ?_address@exp_member@@$4PPPPPPPM@A@AEPAXXZ 00430d80 f i expx:exp_member.obj
 0001:0002fd90       ?classType@exp_member@@$4PPPPPPPM@A@AEAAVRoseTypePtr@@XZ 00430d90 f i expx:exp_member.obj
 0001:0002fda0       ??_Eexp_member@@$4PPPPPPPM@A@AEPAXI@Z 00430da0 f i expx:exp_member.obj
 0001:0002fdb0       ??_Eexp_member@@UAEPAXI@Z  00430db0 f i expx:exp_member.obj
 0001:0002fdb0       ??_Gexp_member@@UAEPAXI@Z  00430db0 f i expx:exp_member.obj
 0001:0002fe20       ?_address@exp_procedure_call@@UAEPAXXZ 00430e20 f   expx:exp_procedure_call.obj
 0001:0002fe30       ?classType@exp_procedure_call@@UAEAAVRoseTypePtr@@XZ 00430e30 f   expx:exp_procedure_call.obj
 0001:0002fef0       ?exp_procedure_call_INIT_FCN@@YAXAAVRoseTypePtr@@@Z 00430ef0 f   expx:exp_procedure_call.obj
 0001:0002fff0       ?parameters@exp_procedure_call@@QAEPAVListOfexp_expression@@XZ 00430ff0 f   expx:exp_procedure_call.obj
 0001:000300c0       ??0exp_procedure_call@@QAE@XZ 004310c0 f   expx:exp_procedure_call.obj
 0001:00030140       ??0exp_procedure_call@@QAE@PAVexp_source_file@@HPAVexp_identifier@@PAVListOfexp_expression@@@Z 00431140 f   expx:exp_procedure_call.obj
 0001:00030210       ?_address@exp_procedure_call@@$4PPPPPPPM@A@AEPAXXZ 00431210 f i expx:exp_procedure_call.obj
 0001:00030220       ?classType@exp_procedure_call@@$4PPPPPPPM@A@AEAAVRoseTypePtr@@XZ 00431220 f i expx:exp_procedure_call.obj
 0001:00030230       ??_Eexp_procedure_call@@$4PPPPPPPM@A@AEPAXI@Z 00431230 f i expx:exp_procedure_call.obj
 0001:00030240       ??_Eexp_procedure_call@@UAEPAXI@Z 00431240 f i expx:exp_procedure_call.obj
 0001:00030240       ??_Gexp_procedure_call@@UAEPAXI@Z 00431240 f i expx:exp_procedure_call.obj
 0001:000302b0       ?_address@exp_repeat@@UAEPAXXZ 004312b0 f   expx:exp_repeat.obj
 0001:000302c0       ?classType@exp_repeat@@UAEAAVRoseTypePtr@@XZ 004312c0 f   expx:exp_repeat.obj
 0001:00030380       ?exp_repeat_INIT_FCN@@YAXAAVRoseTypePtr@@@Z 00431380 f   expx:exp_repeat.obj
 0001:000305d0       ?body@exp_repeat@@QAEPAVListOfexp_statement@@XZ 004315d0 f   expx:exp_repeat.obj
 0001:000306a0       ??0exp_repeat@@QAE@XZ      004316a0 f   expx:exp_repeat.obj
 0001:00030750       ??0exp_repeat@@QAE@PAVexp_source_file@@HPAVexp_symbol@@PAVexp_scope@@PAVListOfexp_definition@@PAVListOfexp_statement@@PAVexp_expression@@5555@Z 00431750 f   expx:exp_repeat.obj
 0001:000308e0       ?_address@exp_repeat@@$4PPPPPPPM@A@AEPAXXZ 004318e0 f i expx:exp_repeat.obj
 0001:000308f0       ?classType@exp_repeat@@$4PPPPPPPM@A@AEAAVRoseTypePtr@@XZ 004318f0 f i expx:exp_repeat.obj
 0001:00030900       ??_Eexp_repeat@@$4PPPPPPPM@A@AEPAXI@Z 00431900 f i expx:exp_repeat.obj
 0001:00030910       ??_Gexp_repeat@@UAEPAXI@Z  00431910 f i expx:exp_repeat.obj
 0001:00030910       ??_Eexp_repeat@@UAEPAXI@Z  00431910 f i expx:exp_repeat.obj
 0001:00030980       ?_address@exp_if@@UAEPAXXZ 00431980 f   expx:exp_if.obj
 0001:00030990       ?classType@exp_if@@UAEAAVRoseTypePtr@@XZ 00431990 f   expx:exp_if.obj
 0001:00030a50       ?exp_if_INIT_FCN@@YAXAAVRoseTypePtr@@@Z 00431a50 f   expx:exp_if.obj
 0001:00030b70       ?then_body@exp_if@@QAEPAVListOfexp_statement@@XZ 00431b70 f   expx:exp_if.obj
 0001:00030c40       ?else_body@exp_if@@QAEPAVListOfexp_statement@@XZ 00431c40 f   expx:exp_if.obj
 0001:00030d10       ??0exp_if@@QAE@XZ          00431d10 f   expx:exp_if.obj
 0001:00030d90       ??0exp_if@@QAE@PAVexp_source_file@@HPAVexp_expression@@PAVListOfexp_statement@@2@Z 00431d90 f   expx:exp_if.obj
 0001:00030e80       ?_address@exp_if@@$4PPPPPPPM@A@AEPAXXZ 00431e80 f i expx:exp_if.obj
 0001:00030e90       ?classType@exp_if@@$4PPPPPPPM@A@AEAAVRoseTypePtr@@XZ 00431e90 f i expx:exp_if.obj
 0001:00030ea0       ??_Eexp_if@@$4PPPPPPPM@A@AEPAXI@Z 00431ea0 f i expx:exp_if.obj
 0001:00030eb0       ??_Eexp_if@@UAEPAXI@Z      00431eb0 f i expx:exp_if.obj
 0001:00030eb0       ??_Gexp_if@@UAEPAXI@Z      00431eb0 f i expx:exp_if.obj
 0001:00030f20       ?_address@exp_case_item@@UAEPAXXZ 00431f20 f   expx:exp_case_item.obj
 0001:00030f30       ?classType@exp_case_item@@UAEAAVRoseTypePtr@@XZ 00431f30 f   expx:exp_case_item.obj
 0001:00030ff0       ?exp_case_item_INIT_FCN@@YAXAAVRoseTypePtr@@@Z 00431ff0 f   expx:exp_case_item.obj
 0001:000310f0       ?labels@exp_case_item@@QAEPAVListOfexp_expression@@XZ 004320f0 f   expx:exp_case_item.obj
 0001:000311c0       ??0exp_case_item@@QAE@XZ   004321c0 f   expx:exp_case_item.obj
 0001:00031240       ??0exp_case_item@@QAE@PAVexp_source_file@@HPAVListOfexp_expression@@PAVexp_statement@@@Z 00432240 f   expx:exp_case_item.obj
 0001:00031310       ?_address@exp_case_item@@$4PPPPPPPM@A@AEPAXXZ 00432310 f i expx:exp_case_item.obj
 0001:00031320       ?classType@exp_case_item@@$4PPPPPPPM@A@AEAAVRoseTypePtr@@XZ 00432320 f i expx:exp_case_item.obj
 0001:00031330       ??_Eexp_case_item@@$4PPPPPPPM@A@AEPAXI@Z 00432330 f i expx:exp_case_item.obj
 0001:00031340       ??_Eexp_case_item@@UAEPAXI@Z 00432340 f i expx:exp_case_item.obj
 0001:00031340       ??_Gexp_case_item@@UAEPAXI@Z 00432340 f i expx:exp_case_item.obj
 0001:000313b0       ?_address@exp_case@@UAEPAXXZ 004323b0 f   expx:exp_case.obj
 0001:000313c0       ?classType@exp_case@@UAEAAVRoseTypePtr@@XZ 004323c0 f   expx:exp_case.obj
 0001:00031480       ?exp_case_INIT_FCN@@YAXAAVRoseTypePtr@@@Z 00432480 f   expx:exp_case.obj
 0001:000315a0       ?labeled_cases@exp_case@@QAEPAVListOfexp_case_item@@XZ 004325a0 f   expx:exp_case.obj
 0001:00031670       ??_GListOfexp_case_item@@UAEPAXI@Z 00432670 f i expx:exp_case.obj
 0001:00031670       ??_EListOfexp_case_item@@UAEPAXI@Z 00432670 f i expx:exp_case.obj
 0001:00031690       ??0exp_case@@QAE@XZ        00432690 f   expx:exp_case.obj
 0001:00031710       ??0exp_case@@QAE@PAVexp_source_file@@HPAVexp_expression@@PAVListOfexp_case_item@@PAVexp_statement@@@Z 00432710 f   expx:exp_case.obj
 0001:00031800       ?_address@exp_case@@$4PPPPPPPM@A@AEPAXXZ 00432800 f i expx:exp_case.obj
 0001:00031810       ?classType@exp_case@@$4PPPPPPPM@A@AEAAVRoseTypePtr@@XZ 00432810 f i expx:exp_case.obj
 0001:00031820       ??_Eexp_case@@$4PPPPPPPM@A@AEPAXI@Z 00432820 f i expx:exp_case.obj
 0001:00031830       ??_Eexp_case@@UAEPAXI@Z    00432830 f i expx:exp_case.obj
 0001:00031830       ??_Gexp_case@@UAEPAXI@Z    00432830 f i expx:exp_case.obj
 0001:000318b0       ?_address@ListOfexp_case_item@@UAEPAXXZ 004328b0 f   expx:ListOfexp_case_item.obj
 0001:000318c0       ?classType@ListOfexp_case_item@@UAEAAVRoseTypePtr@@XZ 004328c0 f   expx:ListOfexp_case_item.obj
 0001:00031970       ?ListOfexp_case_item_INIT_FCN@@YAXAAVRoseTypePtr@@@Z 00432970 f   expx:ListOfexp_case_item.obj
 0001:00031a30       ?_data@ListOfexp_case_item@@QAEPAPAVexp_case_item@@XZ 00432a30 f   expx:ListOfexp_case_item.obj
 0001:00031a40       ??AListOfexp_case_item@@QAEPAVexp_case_item@@I@Z 00432a40 f   expx:ListOfexp_case_item.obj
 0001:00031a70       ?get@ListOfexp_case_item@@QAEPAVexp_case_item@@I@Z 00432a70 f   expx:ListOfexp_case_item.obj
 0001:00031aa0       ?first@ListOfexp_case_item@@QAEPAVexp_case_item@@XZ 00432aa0 f   expx:ListOfexp_case_item.obj
 0001:00031ac0       ?last@ListOfexp_case_item@@QAEPAVexp_case_item@@XZ 00432ac0 f   expx:ListOfexp_case_item.obj
 0001:00031af0       ?contains@ListOfexp_case_item@@QAEDPAVexp_case_item@@@Z 00432af0 f   expx:ListOfexp_case_item.obj
 0001:00031b10       ?_element@ListOfexp_case_item@@QAEPAVexp_case_item@@I@Z 00432b10 f   expx:ListOfexp_case_item.obj
 0001:00031b60       ?slotType@ListOfexp_case_item@@UAEAAVRoseTypePtr@@PAVRoseAttribute@@I@Z 00432b60 f   expx:ListOfexp_case_item.obj
 0001:00031bb0       ?_address@exp_compound@@UAEPAXXZ 00432bb0 f   expx:exp_compound.obj
 0001:00031bc0       ?classType@exp_compound@@UAEAAVRoseTypePtr@@XZ 00432bc0 f   expx:exp_compound.obj
 0001:00031c80       ?exp_compound_INIT_FCN@@YAXAAVRoseTypePtr@@@Z 00432c80 f   expx:exp_compound.obj
 0001:00031d70       ?body@exp_compound@@QAEPAVListOfexp_statement@@XZ 00432d70 f   expx:exp_compound.obj
 0001:00031e40       ??0exp_compound@@QAE@XZ    00432e40 f   expx:exp_compound.obj
 0001:00031ec0       ??0exp_compound@@QAE@PAVexp_source_file@@HPAVListOfexp_statement@@@Z 00432ec0 f   expx:exp_compound.obj
 0001:00031f80       ?_address@exp_compound@@$4PPPPPPPM@A@AEPAXXZ 00432f80 f i expx:exp_compound.obj
 0001:00031f90       ?classType@exp_compound@@$4PPPPPPPM@A@AEAAVRoseTypePtr@@XZ 00432f90 f i expx:exp_compound.obj
 0001:00031fa0       ??_Eexp_compound@@$4PPPPPPPM@A@AEPAXI@Z 00432fa0 f i expx:exp_compound.obj
 0001:00031fb0       ??_Eexp_compound@@UAEPAXI@Z 00432fb0 f i expx:exp_compound.obj
 0001:00031fb0       ??_Gexp_compound@@UAEPAXI@Z 00432fb0 f i expx:exp_compound.obj
 0001:00032020       ?_address@exp_return@@UAEPAXXZ 00433020 f   expx:exp_return.obj
 0001:00032030       ?classType@exp_return@@UAEAAVRoseTypePtr@@XZ 00433030 f   expx:exp_return.obj
 0001:000320f0       ?exp_return_INIT_FCN@@YAXAAVRoseTypePtr@@@Z 004330f0 f   expx:exp_return.obj
 0001:000321e0       ??0exp_return@@QAE@XZ      004331e0 f   expx:exp_return.obj
 0001:00032260       ??0exp_return@@QAE@PAVexp_source_file@@HPAVexp_expression@@@Z 00433260 f   expx:exp_return.obj
 0001:00032320       ?_address@exp_return@@$4PPPPPPPM@A@AEPAXXZ 00433320 f i expx:exp_return.obj
 0001:00032330       ?classType@exp_return@@$4PPPPPPPM@A@AEAAVRoseTypePtr@@XZ 00433330 f i expx:exp_return.obj
 0001:00032340       ??_Eexp_return@@$4PPPPPPPM@A@AEPAXI@Z 00433340 f i expx:exp_return.obj
 0001:00032350       ??_Eexp_return@@UAEPAXI@Z  00433350 f i expx:exp_return.obj
 0001:00032350       ??_Gexp_return@@UAEPAXI@Z  00433350 f i expx:exp_return.obj
 0001:000323c0       ?_address@exp_escape@@UAEPAXXZ 004333c0 f   expx:exp_escape.obj
 0001:000323d0       ?classType@exp_escape@@UAEAAVRoseTypePtr@@XZ 004333d0 f   expx:exp_escape.obj
 0001:00032490       ?exp_escape_INIT_FCN@@YAXAAVRoseTypePtr@@@Z 00433490 f   expx:exp_escape.obj
 0001:00032570       ??0exp_escape@@QAE@XZ      00433570 f   expx:exp_escape.obj
 0001:000325f0       ??0exp_escape@@QAE@PAVexp_source_file@@H@Z 004335f0 f   expx:exp_escape.obj
 0001:000326a0       ?_address@exp_escape@@$4PPPPPPPM@A@AEPAXXZ 004336a0 f i expx:exp_escape.obj
 0001:000326b0       ?classType@exp_escape@@$4PPPPPPPM@A@AEAAVRoseTypePtr@@XZ 004336b0 f i expx:exp_escape.obj
 0001:000326c0       ??_Eexp_escape@@$4PPPPPPPM@A@AEPAXI@Z 004336c0 f i expx:exp_escape.obj
 0001:000326d0       ??_Eexp_escape@@UAEPAXI@Z  004336d0 f i expx:exp_escape.obj
 0001:000326d0       ??_Gexp_escape@@UAEPAXI@Z  004336d0 f i expx:exp_escape.obj
 0001:00032740       ?_address@exp_skip@@UAEPAXXZ 00433740 f   expx:exp_skip.obj
 0001:00032750       ?classType@exp_skip@@UAEAAVRoseTypePtr@@XZ 00433750 f   expx:exp_skip.obj
 0001:00032810       ?exp_skip_INIT_FCN@@YAXAAVRoseTypePtr@@@Z 00433810 f   expx:exp_skip.obj
 0001:000328f0       ??0exp_skip@@QAE@XZ        004338f0 f   expx:exp_skip.obj
 0001:00032970       ??0exp_skip@@QAE@PAVexp_source_file@@H@Z 00433970 f   expx:exp_skip.obj
 0001:00032a20       ?_address@exp_skip@@$4PPPPPPPM@A@AEPAXXZ 00433a20 f i expx:exp_skip.obj
 0001:00032a30       ?classType@exp_skip@@$4PPPPPPPM@A@AEAAVRoseTypePtr@@XZ 00433a30 f i expx:exp_skip.obj
 0001:00032a40       ??_Eexp_skip@@$4PPPPPPPM@A@AEPAXI@Z 00433a40 f i expx:exp_skip.obj
 0001:00032a50       ??_Eexp_skip@@UAEPAXI@Z    00433a50 f i expx:exp_skip.obj
 0001:00032a50       ??_Gexp_skip@@UAEPAXI@Z    00433a50 f i expx:exp_skip.obj
 0001:00032ac0       ?_address@exp_assignment@@UAEPAXXZ 00433ac0 f   expx:exp_assignment.obj
 0001:00032ad0       ?classType@exp_assignment@@UAEAAVRoseTypePtr@@XZ 00433ad0 f   expx:exp_assignment.obj
 0001:00032b90       ?exp_assignment_INIT_FCN@@YAXAAVRoseTypePtr@@@Z 00433b90 f   expx:exp_assignment.obj
 0001:00032cc0       ??0exp_assignment@@QAE@XZ  00433cc0 f   expx:exp_assignment.obj
 0001:00032d40       ??0exp_assignment@@QAE@PAVexp_source_file@@HPAVexp_expression@@1PAVexp_identifier@@H@Z 00433d40 f   expx:exp_assignment.obj
 0001:00032e40       ?_address@exp_assignment@@$4PPPPPPPM@A@AEPAXXZ 00433e40 f i expx:exp_assignment.obj
 0001:00032e50       ?classType@exp_assignment@@$4PPPPPPPM@A@AEAAVRoseTypePtr@@XZ 00433e50 f i expx:exp_assignment.obj
 0001:00032e60       ??_Eexp_assignment@@$4PPPPPPPM@A@AEPAXI@Z 00433e60 f i expx:exp_assignment.obj
 0001:00032e70       ??_Eexp_assignment@@UAEPAXI@Z 00433e70 f i expx:exp_assignment.obj
 0001:00032e70       ??_Gexp_assignment@@UAEPAXI@Z 00433e70 f i expx:exp_assignment.obj
 0001:00032ee0       ?_address@exp_alias@@UAEPAXXZ 00433ee0 f   expx:exp_alias.obj
 0001:00032ef0       ?classType@exp_alias@@UAEAAVRoseTypePtr@@XZ 00433ef0 f   expx:exp_alias.obj
 0001:00032fb0       ?exp_alias_INIT_FCN@@YAXAAVRoseTypePtr@@@Z 00433fb0 f   expx:exp_alias.obj
 0001:000331a0       ?body@exp_alias@@QAEPAVListOfexp_statement@@XZ 004341a0 f   expx:exp_alias.obj
 0001:00033270       ??0exp_alias@@QAE@XZ       00434270 f   expx:exp_alias.obj
 0001:00033310       ??0exp_alias@@QAE@PAVexp_source_file@@HPAVexp_symbol@@PAVexp_scope@@PAVListOfexp_definition@@PAVexp_expression@@PAVListOfexp_statement@@@Z 00434310 f   expx:exp_alias.obj
 0001:00033450       ?_address@exp_alias@@$4PPPPPPPM@A@AEPAXXZ 00434450 f i expx:exp_alias.obj
 0001:00033460       ?classType@exp_alias@@$4PPPPPPPM@A@AEAAVRoseTypePtr@@XZ 00434460 f i expx:exp_alias.obj
 0001:00033470       ??_Eexp_alias@@$4PPPPPPPM@A@AEPAXI@Z 00434470 f i expx:exp_alias.obj
 0001:00033480       ??_Eexp_alias@@UAEPAXI@Z   00434480 f i expx:exp_alias.obj
 0001:00033480       ??_Gexp_alias@@UAEPAXI@Z   00434480 f i expx:exp_alias.obj
 0001:000334f0       ?_address@exp_literal@@UAEPAXXZ 004344f0 f   expx:exp_literal.obj
 0001:00033500       ?classType@exp_literal@@UAEAAVRoseTypePtr@@XZ 00434500 f   expx:exp_literal.obj
 0001:000335c0       ?exp_literal_INIT_FCN@@YAXAAVRoseTypePtr@@@Z 004345c0 f   expx:exp_literal.obj
 0001:000336b0       ??0exp_literal@@QAE@XZ     004346b0 f   expx:exp_literal.obj
 0001:00033730       ??0exp_literal@@QAE@PAVexp_source_file@@HPAVexp_literal_value@@@Z 00434730 f   expx:exp_literal.obj
 0001:000337f0       ?_address@exp_literal@@$4PPPPPPPM@A@AEPAXXZ 004347f0 f i expx:exp_literal.obj
 0001:00033800       ?classType@exp_literal@@$4PPPPPPPM@A@AEAAVRoseTypePtr@@XZ 00434800 f i expx:exp_literal.obj
 0001:00033810       ??_Eexp_literal@@$4PPPPPPPM@A@AEPAXI@Z 00434810 f i expx:exp_literal.obj
 0001:00033820       ??_Gexp_literal@@UAEPAXI@Z 00434820 f i expx:exp_literal.obj
 0001:00033820       ??_Eexp_literal@@UAEPAXI@Z 00434820 f i expx:exp_literal.obj
 0001:00033890       ?_address@exp_self_value@@UAEPAXXZ 00434890 f   expx:exp_self_value.obj
 0001:000338a0       ?classType@exp_self_value@@UAEAAVRoseTypePtr@@XZ 004348a0 f   expx:exp_self_value.obj
 0001:00033960       ?exp_self_value_INIT_FCN@@YAXAAVRoseTypePtr@@@Z 00434960 f   expx:exp_self_value.obj
 0001:000339f0       ??0exp_self_value@@QAE@XZ  004349f0 f   expx:exp_self_value.obj
 0001:00033a40       ?_address@exp_self_value@@$4PPPPPPPM@A@AEPAXXZ 00434a40 f i expx:exp_self_value.obj
 0001:00033a50       ?classType@exp_self_value@@$4PPPPPPPM@A@AEAAVRoseTypePtr@@XZ 00434a50 f i expx:exp_self_value.obj
 0001:00033a60       ??_Eexp_self_value@@$4PPPPPPPM@A@AEPAXI@Z 00434a60 f i expx:exp_self_value.obj
 0001:00033a70       ??_Gexp_self_value@@UAEPAXI@Z 00434a70 f i expx:exp_self_value.obj
 0001:00033a70       ??_Eexp_self_value@@UAEPAXI@Z 00434a70 f i expx:exp_self_value.obj
 0001:00033ae0       ?_address@exp_indeterminate_value@@UAEPAXXZ 00434ae0 f   expx:exp_indeterminate_value.obj
 0001:00033af0       ?classType@exp_indeterminate_value@@UAEAAVRoseTypePtr@@XZ 00434af0 f   expx:exp_indeterminate_value.obj
 0001:00033bb0       ?exp_indeterminate_value_INIT_FCN@@YAXAAVRoseTypePtr@@@Z 00434bb0 f   expx:exp_indeterminate_value.obj
 0001:00033c40       ??0exp_indeterminate_value@@QAE@XZ 00434c40 f   expx:exp_indeterminate_value.obj
 0001:00033c90       ?_address@exp_indeterminate_value@@$4PPPPPPPM@A@AEPAXXZ 00434c90 f i expx:exp_indeterminate_value.obj
 0001:00033ca0       ?classType@exp_indeterminate_value@@$4PPPPPPPM@A@AEAAVRoseTypePtr@@XZ 00434ca0 f i expx:exp_indeterminate_value.obj
 0001:00033cb0       ??_Eexp_indeterminate_value@@$4PPPPPPPM@A@AEPAXI@Z 00434cb0 f i expx:exp_indeterminate_value.obj
 0001:00033cc0       ??_Eexp_indeterminate_value@@UAEPAXI@Z 00434cc0 f i expx:exp_indeterminate_value.obj
 0001:00033cc0       ??_Gexp_indeterminate_value@@UAEPAXI@Z 00434cc0 f i expx:exp_indeterminate_value.obj
 0001:00033d30       ?_address@exp_aggregate_value@@UAEPAXXZ 00434d30 f   expx:exp_aggregate_value.obj
 0001:00033d40       ?classType@exp_aggregate_value@@UAEAAVRoseTypePtr@@XZ 00434d40 f   expx:exp_aggregate_value.obj
 0001:00033e00       ?exp_aggregate_value_INIT_FCN@@YAXAAVRoseTypePtr@@@Z 00434e00 f   expx:exp_aggregate_value.obj
 0001:00033ec0       ?value_elems@exp_aggregate_value@@QAEPAVListOfexp_expression@@XZ 00434ec0 f   expx:exp_aggregate_value.obj
 0001:00033f90       ?reps@exp_aggregate_value@@QAEPAVListOfexp_expression@@XZ 00434f90 f   expx:exp_aggregate_value.obj
 0001:00034060       ??0exp_aggregate_value@@QAE@XZ 00435060 f   expx:exp_aggregate_value.obj
 0001:000340c0       ??0exp_aggregate_value@@QAE@PAVListOfexp_expression@@0@Z 004350c0 f   expx:exp_aggregate_value.obj
 0001:00034140       ?_address@exp_aggregate_value@@$4PPPPPPPM@A@AEPAXXZ 00435140 f i expx:exp_aggregate_value.obj
 0001:00034150       ?classType@exp_aggregate_value@@$4PPPPPPPM@A@AEAAVRoseTypePtr@@XZ 00435150 f i expx:exp_aggregate_value.obj
 0001:00034160       ??_Eexp_aggregate_value@@$4PPPPPPPM@A@AEPAXI@Z 00435160 f i expx:exp_aggregate_value.obj
 0001:00034170       ??_Eexp_aggregate_value@@UAEPAXI@Z 00435170 f i expx:exp_aggregate_value.obj
 0001:00034170       ??_Gexp_aggregate_value@@UAEPAXI@Z 00435170 f i expx:exp_aggregate_value.obj
 0001:000341e0       ?_address@exp_function_call@@UAEPAXXZ 004351e0 f   expx:exp_function_call.obj
 0001:000341f0       ?classType@exp_function_call@@UAEAAVRoseTypePtr@@XZ 004351f0 f   expx:exp_function_call.obj
 0001:000342b0       ?exp_function_call_INIT_FCN@@YAXAAVRoseTypePtr@@@Z 004352b0 f   expx:exp_function_call.obj
 0001:000343b0       ?parameters@exp_function_call@@QAEPAVListOfexp_expression@@XZ 004353b0 f   expx:exp_function_call.obj
 0001:00034480       ??0exp_function_call@@QAE@XZ 00435480 f   expx:exp_function_call.obj
 0001:00034500       ??0exp_function_call@@QAE@PAVexp_source_file@@HPAVexp_identifier@@PAVListOfexp_expression@@@Z 00435500 f   expx:exp_function_call.obj
 0001:000345d0       ?_address@exp_function_call@@$4PPPPPPPM@A@AEPAXXZ 004355d0 f i expx:exp_function_call.obj
 0001:000345e0       ?classType@exp_function_call@@$4PPPPPPPM@A@AEAAVRoseTypePtr@@XZ 004355e0 f i expx:exp_function_call.obj
 0001:000345f0       ??_Eexp_function_call@@$4PPPPPPPM@A@AEPAXI@Z 004355f0 f i expx:exp_function_call.obj
 0001:00034600       ??_Eexp_function_call@@UAEPAXI@Z 00435600 f i expx:exp_function_call.obj
 0001:00034600       ??_Gexp_function_call@@UAEPAXI@Z 00435600 f i expx:exp_function_call.obj
 0001:00034670       ?_address@exp_query@@UAEPAXXZ 00435670 f   expx:exp_query.obj
 0001:00034680       ?classType@exp_query@@UAEAAVRoseTypePtr@@XZ 00435680 f   expx:exp_query.obj
 0001:00034740       ?exp_query_INIT_FCN@@YAXAAVRoseTypePtr@@@Z 00435740 f   expx:exp_query.obj
 0001:00034930       ??0exp_query@@QAE@XZ       00435930 f   expx:exp_query.obj
 0001:000349d0       ??0exp_query@@QAE@PAVexp_source_file@@HPAVexp_symbol@@PAVexp_scope@@PAVListOfexp_definition@@PAVexp_expression@@4@Z 004359d0 f   expx:exp_query.obj
 0001:00034b10       ?_address@exp_query@@$4PPPPPPPM@A@AEPAXXZ 00435b10 f i expx:exp_query.obj
 0001:00034b20       ?classType@exp_query@@$4PPPPPPPM@A@AEAAVRoseTypePtr@@XZ 00435b20 f i expx:exp_query.obj
 0001:00034b30       ??_Eexp_query@@$4PPPPPPPM@A@AEPAXI@Z 00435b30 f i expx:exp_query.obj
 0001:00034b40       ??_Eexp_query@@UAEPAXI@Z   00435b40 f i expx:exp_query.obj
 0001:00034b40       ??_Gexp_query@@UAEPAXI@Z   00435b40 f i expx:exp_query.obj
 0001:00034bb0       ?_address@exp_op_expression@@UAEPAXXZ 00435bb0 f   expx:exp_op_expression.obj
 0001:00034bc0       ?classType@exp_op_expression@@UAEAAVRoseTypePtr@@XZ 00435bc0 f   expx:exp_op_expression.obj
 0001:00034c80       ?exp_op_expression_INIT_FCN@@YAXAAVRoseTypePtr@@@Z 00435c80 f   expx:exp_op_expression.obj
 0001:00034db0       ??0exp_op_expression@@QAE@XZ 00435db0 f   expx:exp_op_expression.obj
 0001:00034e40       ??0exp_op_expression@@QAE@PAVexp_source_file@@HPAVexp_type_ref@@W4exp_operator@@PAVexp_expression@@3@Z 00435e40 f   expx:exp_op_expression.obj
 0001:00034f40       ?_address@exp_op_expression@@$4PPPPPPPM@A@AEPAXXZ 00435f40 f i expx:exp_op_expression.obj
 0001:00034f50       ?classType@exp_op_expression@@$4PPPPPPPM@A@AEAAVRoseTypePtr@@XZ 00435f50 f i expx:exp_op_expression.obj
 0001:00034f60       ??_Eexp_op_expression@@$4PPPPPPPM@A@AEPAXI@Z 00435f60 f i expx:exp_op_expression.obj
 0001:00034f70       ??_Gexp_op_expression@@UAEPAXI@Z 00435f70 f i expx:exp_op_expression.obj
 0001:00034f70       ??_Eexp_op_expression@@UAEPAXI@Z 00435f70 f i expx:exp_op_expression.obj
 0001:00034fe0       ?_address@exp_generic_type@@UAEPAXXZ 00435fe0 f   expx:exp_generic_type.obj
 0001:00034ff0       ?classType@exp_generic_type@@UAEAAVRoseTypePtr@@XZ 00435ff0 f   expx:exp_generic_type.obj
 0001:000350b0       ?exp_generic_type_INIT_FCN@@YAXAAVRoseTypePtr@@@Z 004360b0 f   expx:exp_generic_type.obj
 0001:00035190       ??0exp_generic_type@@QAE@XZ 00436190 f   expx:exp_generic_type.obj
 0001:00035210       ??0exp_generic_type@@QAE@PAVexp_source_file@@HPAVexp_symbol@@PAVexp_scope@@@Z 00436210 f   expx:exp_generic_type.obj
 0001:000352f0       ?_address@exp_generic_type@@$4PPPPPPPM@A@AEPAXXZ 004362f0 f i expx:exp_generic_type.obj
 0001:00035300       ?classType@exp_generic_type@@$4PPPPPPPM@A@AEAAVRoseTypePtr@@XZ 00436300 f i expx:exp_generic_type.obj
 0001:00035310       ??_Eexp_generic_type@@$4PPPPPPPM@A@AEPAXI@Z 00436310 f i expx:exp_generic_type.obj
 0001:00035320       ??_Eexp_generic_type@@UAEPAXI@Z 00436320 f i expx:exp_generic_type.obj
 0001:00035320       ??_Gexp_generic_type@@UAEPAXI@Z 00436320 f i expx:exp_generic_type.obj
 0001:00035390       ?_address@exp_aggregate_ref@@UAEPAXXZ 00436390 f   expx:exp_aggregate_ref.obj
 0001:000353a0       ?classType@exp_aggregate_ref@@UAEAAVRoseTypePtr@@XZ 004363a0 f   expx:exp_aggregate_ref.obj
 0001:00035460       ?exp_aggregate_ref_INIT_FCN@@YAXAAVRoseTypePtr@@@Z 00436460 f   expx:exp_aggregate_ref.obj
 0001:00035540       ??0exp_aggregate_ref@@QAE@XZ 00436540 f   expx:exp_aggregate_ref.obj
 0001:000355b0       ??0exp_aggregate_ref@@QAE@PAVexp_type_ref@@0@Z 004365b0 f   expx:exp_aggregate_ref.obj
 0001:00035640       ?_address@exp_aggregate_ref@@$4PPPPPPPM@A@AEPAXXZ 00436640 f i expx:exp_aggregate_ref.obj
 0001:00035650       ?classType@exp_aggregate_ref@@$4PPPPPPPM@A@AEAAVRoseTypePtr@@XZ 00436650 f i expx:exp_aggregate_ref.obj
 0001:00035660       ??_Eexp_aggregate_ref@@$4PPPPPPPM@A@AEPAXI@Z 00436660 f i expx:exp_aggregate_ref.obj
 0001:00035670       ??_Eexp_aggregate_ref@@UAEPAXI@Z 00436670 f i expx:exp_aggregate_ref.obj
 0001:00035670       ??_Gexp_aggregate_ref@@UAEPAXI@Z 00436670 f i expx:exp_aggregate_ref.obj
 0001:000356e0       ?_address@exp_set_type@@UAEPAXXZ 004366e0 f   expx:exp_set_type.obj
 0001:000356f0       ?classType@exp_set_type@@UAEAAVRoseTypePtr@@XZ 004366f0 f   expx:exp_set_type.obj
 0001:000357b0       ?exp_set_type_INIT_FCN@@YAXAAVRoseTypePtr@@@Z 004367b0 f   expx:exp_set_type.obj
 0001:00035890       ??0exp_set_type@@QAE@XZ    00436890 f   expx:exp_set_type.obj
 0001:00035910       ??0exp_set_type@@QAE@PAVexp_expression@@0@Z 00436910 f   expx:exp_set_type.obj
 0001:000359c0       ?_address@exp_set_type@@$4PPPPPPPM@A@AEPAXXZ 004369c0 f i expx:exp_set_type.obj
 0001:000359d0       ?classType@exp_set_type@@$4PPPPPPPM@A@AEAAVRoseTypePtr@@XZ 004369d0 f i expx:exp_set_type.obj
 0001:000359e0       ??_Eexp_set_type@@$4PPPPPPPM@A@AEPAXI@Z 004369e0 f i expx:exp_set_type.obj
 0001:000359f0       ??_Gexp_set_type@@UAEPAXI@Z 004369f0 f i expx:exp_set_type.obj
 0001:000359f0       ??_Eexp_set_type@@UAEPAXI@Z 004369f0 f i expx:exp_set_type.obj
 0001:00035a60       ?_address@exp_list_type@@UAEPAXXZ 00436a60 f   expx:exp_list_type.obj
 0001:00035a70       ?classType@exp_list_type@@UAEAAVRoseTypePtr@@XZ 00436a70 f   expx:exp_list_type.obj
 0001:00035b30       ?exp_list_type_INIT_FCN@@YAXAAVRoseTypePtr@@@Z 00436b30 f   expx:exp_list_type.obj
 0001:00035c20       ??0exp_list_type@@QAE@XZ   00436c20 f   expx:exp_list_type.obj
 0001:00035ca0       ??0exp_list_type@@QAE@PAVexp_expression@@0D@Z 00436ca0 f   expx:exp_list_type.obj
 0001:00035d60       ?_address@exp_list_type@@$4PPPPPPPM@A@AEPAXXZ 00436d60 f i expx:exp_list_type.obj
 0001:00035d70       ?classType@exp_list_type@@$4PPPPPPPM@A@AEAAVRoseTypePtr@@XZ 00436d70 f i expx:exp_list_type.obj
 0001:00035d80       ??_Eexp_list_type@@$4PPPPPPPM@A@AEPAXI@Z 00436d80 f i expx:exp_list_type.obj
 0001:00035d90       ??_Eexp_list_type@@UAEPAXI@Z 00436d90 f i expx:exp_list_type.obj
 0001:00035d90       ??_Gexp_list_type@@UAEPAXI@Z 00436d90 f i expx:exp_list_type.obj
 0001:00035e00       ?_address@exp_bag_type@@UAEPAXXZ 00436e00 f   expx:exp_bag_type.obj
 0001:00035e10       ?classType@exp_bag_type@@UAEAAVRoseTypePtr@@XZ 00436e10 f   expx:exp_bag_type.obj
 0001:00035ed0       ?exp_bag_type_INIT_FCN@@YAXAAVRoseTypePtr@@@Z 00436ed0 f   expx:exp_bag_type.obj
 0001:00035fb0       ??0exp_bag_type@@QAE@XZ    00436fb0 f   expx:exp_bag_type.obj
 0001:00036030       ??0exp_bag_type@@QAE@PAVexp_expression@@0@Z 00437030 f   expx:exp_bag_type.obj
 0001:000360e0       ?_address@exp_bag_type@@$4PPPPPPPM@A@AEPAXXZ 004370e0 f i expx:exp_bag_type.obj
 0001:000360f0       ?classType@exp_bag_type@@$4PPPPPPPM@A@AEAAVRoseTypePtr@@XZ 004370f0 f i expx:exp_bag_type.obj
 0001:00036100       ??_Eexp_bag_type@@$4PPPPPPPM@A@AEPAXI@Z 00437100 f i expx:exp_bag_type.obj
 0001:00036110       ??_Gexp_bag_type@@UAEPAXI@Z 00437110 f i expx:exp_bag_type.obj
 0001:00036110       ??_Eexp_bag_type@@UAEPAXI@Z 00437110 f i expx:exp_bag_type.obj
 0001:00036180       ?_address@exp_array_type@@UAEPAXXZ 00437180 f   expx:exp_array_type.obj
 0001:00036190       ?classType@exp_array_type@@UAEAAVRoseTypePtr@@XZ 00437190 f   expx:exp_array_type.obj
 0001:00036250       ?exp_array_type_INIT_FCN@@YAXAAVRoseTypePtr@@@Z 00437250 f   expx:exp_array_type.obj
 0001:00036350       ??0exp_array_type@@QAE@XZ  00437350 f   expx:exp_array_type.obj
 0001:000363d0       ??0exp_array_type@@QAE@PAVexp_expression@@0DD@Z 004373d0 f   expx:exp_array_type.obj
 0001:000364a0       ?_address@exp_array_type@@$4PPPPPPPM@A@AEPAXXZ 004374a0 f i expx:exp_array_type.obj
 0001:000364b0       ?classType@exp_array_type@@$4PPPPPPPM@A@AEAAVRoseTypePtr@@XZ 004374b0 f i expx:exp_array_type.obj
 0001:000364c0       ??_Eexp_array_type@@$4PPPPPPPM@A@AEPAXI@Z 004374c0 f i expx:exp_array_type.obj
 0001:000364d0       ??_Eexp_array_type@@UAEPAXI@Z 004374d0 f i expx:exp_array_type.obj
 0001:000364d0       ??_Gexp_array_type@@UAEPAXI@Z 004374d0 f i expx:exp_array_type.obj
 0001:00036540       ?_address@exp_aggregate_type@@UAEPAXXZ 00437540 f   expx:exp_aggregate_type.obj
 0001:00036550       ?classType@exp_aggregate_type@@UAEAAVRoseTypePtr@@XZ 00437550 f   expx:exp_aggregate_type.obj
 0001:00036610       ?exp_aggregate_type_INIT_FCN@@YAXAAVRoseTypePtr@@@Z 00437610 f   expx:exp_aggregate_type.obj
 0001:000366f0       ??0exp_aggregate_type@@QAE@XZ 004376f0 f   expx:exp_aggregate_type.obj
 0001:00036760       ??0exp_aggregate_type@@QAE@PAVexp_expression@@0@Z 00437760 f   expx:exp_aggregate_type.obj
 0001:000367f0       ?_address@exp_aggregate_type@@$4PPPPPPPM@A@AEPAXXZ 004377f0 f i expx:exp_aggregate_type.obj
 0001:00036800       ?classType@exp_aggregate_type@@$4PPPPPPPM@A@AEAAVRoseTypePtr@@XZ 00437800 f i expx:exp_aggregate_type.obj
 0001:00036810       ??_Eexp_aggregate_type@@$4PPPPPPPM@A@AEPAXI@Z 00437810 f i expx:exp_aggregate_type.obj
 0001:00036820       ??_Gexp_aggregate_type@@UAEPAXI@Z 00437820 f i expx:exp_aggregate_type.obj
 0001:00036820       ??_Eexp_aggregate_type@@UAEPAXI@Z 00437820 f i expx:exp_aggregate_type.obj
 0001:00036890       ?_address@exp_simple_ref@@UAEPAXXZ 00437890 f   expx:exp_simple_ref.obj
 0001:000368a0       ?classType@exp_simple_ref@@UAEAAVRoseTypePtr@@XZ 004378a0 f   expx:exp_simple_ref.obj
 0001:00036960       ?exp_simple_ref_INIT_FCN@@YAXAAVRoseTypePtr@@@Z 00437960 f   expx:exp_simple_ref.obj
 0001:00036a50       ??0exp_simple_ref@@QAE@XZ  00437a50 f   expx:exp_simple_ref.obj
 0001:00036ad0       ??0exp_simple_ref@@QAE@W4exp_simple_type@@PAVexp_expression@@D@Z 00437ad0 f   expx:exp_simple_ref.obj
 0001:00036b70       ?_address@exp_simple_ref@@$4PPPPPPPM@A@AEPAXXZ 00437b70 f i expx:exp_simple_ref.obj
 0001:00036b80       ?classType@exp_simple_ref@@$4PPPPPPPM@A@AEAAVRoseTypePtr@@XZ 00437b80 f i expx:exp_simple_ref.obj
 0001:00036b90       ??_Eexp_simple_ref@@$4PPPPPPPM@A@AEPAXI@Z 00437b90 f i expx:exp_simple_ref.obj
 0001:00036ba0       ??_Eexp_simple_ref@@UAEPAXI@Z 00437ba0 f i expx:exp_simple_ref.obj
 0001:00036ba0       ??_Gexp_simple_ref@@UAEPAXI@Z 00437ba0 f i expx:exp_simple_ref.obj
 0001:00036c10       ?_address@exp_extended_entity_ref@@UAEPAXXZ 00437c10 f   expx:exp_extended_entity_ref.obj
 0001:00036c20       ?classType@exp_extended_entity_ref@@UAEAAVRoseTypePtr@@XZ 00437c20 f   expx:exp_extended_entity_ref.obj
 0001:00036ce0       ?exp_extended_entity_ref_INIT_FCN@@YAXAAVRoseTypePtr@@@Z 00437ce0 f   expx:exp_extended_entity_ref.obj
 0001:00036ef0       ??0exp_extended_entity_ref@@QAE@XZ 00437ef0 f   expx:exp_extended_entity_ref.obj
 0001:00036fa0       ??0exp_extended_entity_ref@@QAE@PAVexp_source_file@@HPAVexp_symbol@@PAVexp_scope@@PAVexp_definition@@PAVexp_type_ref@@PAVexp_identifier@@@Z 00437fa0 f   expx:exp_extended_entity_ref.obj
 0001:00037100       ?_address@exp_extended_entity_ref@@$4PPPPPPPM@A@AEPAXXZ 00438100 f i expx:exp_extended_entity_ref.obj
 0001:00037110       ?classType@exp_extended_entity_ref@@$4PPPPPPPM@A@AEAAVRoseTypePtr@@XZ 00438110 f i expx:exp_extended_entity_ref.obj
 0001:00037120       ??_Eexp_extended_entity_ref@@$4PPPPPPPM@A@AEPAXI@Z 00438120 f i expx:exp_extended_entity_ref.obj
 0001:00037130       ??_Eexp_extended_entity_ref@@UAEPAXI@Z 00438130 f i expx:exp_extended_entity_ref.obj
 0001:00037130       ??_Gexp_extended_entity_ref@@UAEPAXI@Z 00438130 f i expx:exp_extended_entity_ref.obj
 0001:000371a0       ?_address@exp_schema_instance@@UAEPAXXZ 004381a0 f   expx:exp_schema_instance.obj
 0001:000371b0       ?classType@exp_schema_instance@@UAEAAVRoseTypePtr@@XZ 004381b0 f   expx:exp_schema_instance.obj
 0001:00037270       ?exp_schema_instance_INIT_FCN@@YAXAAVRoseTypePtr@@@Z 00438270 f   expx:exp_schema_instance.obj
 0001:00037390       ??0exp_schema_instance@@QAE@XZ 00438390 f   expx:exp_schema_instance.obj
 0001:00037430       ??0exp_schema_instance@@QAE@PAVexp_source_file@@HPAVexp_symbol@@PAVexp_scope@@PAVexp_definition@@PAVexp_type_ref@@@Z 00438430 f   expx:exp_schema_instance.obj
 0001:00037570       ?_address@exp_schema_instance@@$4PPPPPPPM@A@AEPAXXZ 00438570 f i expx:exp_schema_instance.obj
 0001:00037580       ?classType@exp_schema_instance@@$4PPPPPPPM@A@AEAAVRoseTypePtr@@XZ 00438580 f i expx:exp_schema_instance.obj
 0001:00037590       ??_Eexp_schema_instance@@$4PPPPPPPM@A@AEPAXI@Z 00438590 f i expx:exp_schema_instance.obj
 0001:000375a0       ??_Gexp_schema_instance@@UAEPAXI@Z 004385a0 f i expx:exp_schema_instance.obj
 0001:000375a0       ??_Eexp_schema_instance@@UAEPAXI@Z 004385a0 f i expx:exp_schema_instance.obj
 0001:00037610       ?_address@exp_localvar@@UAEPAXXZ 00438610 f   expx:exp_localvar.obj
 0001:00037620       ?classType@exp_localvar@@UAEAAVRoseTypePtr@@XZ 00438620 f   expx:exp_localvar.obj
 0001:000376e0       ?exp_localvar_INIT_FCN@@YAXAAVRoseTypePtr@@@Z 004386e0 f   expx:exp_localvar.obj
 0001:00037820       ??0exp_localvar@@QAE@XZ    00438820 f   expx:exp_localvar.obj
 0001:000378c0       ??0exp_localvar@@QAE@PAVexp_source_file@@HPAVexp_symbol@@PAVexp_scope@@PAVexp_definition@@PAVexp_type_ref@@PAVexp_expression@@@Z 004388c0 f   expx:exp_localvar.obj
 0001:00037a10       ?_address@exp_localvar@@$4PPPPPPPM@A@AEPAXXZ 00438a10 f i expx:exp_localvar.obj
 0001:00037a20       ?classType@exp_localvar@@$4PPPPPPPM@A@AEAAVRoseTypePtr@@XZ 00438a20 f i expx:exp_localvar.obj
 0001:00037a30       ??_Eexp_localvar@@$4PPPPPPPM@A@AEPAXI@Z 00438a30 f i expx:exp_localvar.obj
 0001:00037a40       ??_Gexp_localvar@@UAEPAXI@Z 00438a40 f i expx:exp_localvar.obj
 0001:00037a40       ??_Eexp_localvar@@UAEPAXI@Z 00438a40 f i expx:exp_localvar.obj
 0001:00037ab0       ?_address@exp_parameter@@UAEPAXXZ 00438ab0 f   expx:exp_parameter.obj
 0001:00037ac0       ?classType@exp_parameter@@UAEAAVRoseTypePtr@@XZ 00438ac0 f   expx:exp_parameter.obj
 0001:00037b80       ?exp_parameter_INIT_FCN@@YAXAAVRoseTypePtr@@@Z 00438b80 f   expx:exp_parameter.obj
 0001:00037cc0       ??0exp_parameter@@QAE@XZ   00438cc0 f   expx:exp_parameter.obj
 0001:00037d60       ??0exp_parameter@@QAE@PAVexp_source_file@@HPAVexp_symbol@@PAVexp_scope@@PAVexp_definition@@PAVexp_type_ref@@D@Z 00438d60 f   expx:exp_parameter.obj
 0001:00037eb0       ?_address@exp_parameter@@$4PPPPPPPM@A@AEPAXXZ 00438eb0 f i expx:exp_parameter.obj
 0001:00037ec0       ?classType@exp_parameter@@$4PPPPPPPM@A@AEAAVRoseTypePtr@@XZ 00438ec0 f i expx:exp_parameter.obj
 0001:00037ed0       ??_Eexp_parameter@@$4PPPPPPPM@A@AEPAXI@Z 00438ed0 f i expx:exp_parameter.obj
 0001:00037ee0       ??_Eexp_parameter@@UAEPAXI@Z 00438ee0 f i expx:exp_parameter.obj
 0001:00037ee0       ??_Gexp_parameter@@UAEPAXI@Z 00438ee0 f i expx:exp_parameter.obj
 0001:00037f50       ?_address@exp_variable@@UAEPAXXZ 00438f50 f   expx:exp_variable.obj
 0001:00037f60       ?classType@exp_variable@@UAEAAVRoseTypePtr@@XZ 00438f60 f   expx:exp_variable.obj
 0001:00038020       ?exp_variable_INIT_FCN@@YAXAAVRoseTypePtr@@@Z 00439020 f   expx:exp_variable.obj
 0001:00038130       ??0exp_variable@@QAE@XZ    00439130 f   expx:exp_variable.obj
 0001:000381c0       ??0exp_variable@@QAE@PAVexp_source_file@@HPAVexp_symbol@@PAVexp_scope@@PAVexp_definition@@PAVexp_type_ref@@@Z 004391c0 f   expx:exp_variable.obj
 0001:000382e0       ?_address@exp_variable@@$4PPPPPPPM@A@AEPAXXZ 004392e0 f i expx:exp_variable.obj
 0001:000382f0       ?classType@exp_variable@@$4PPPPPPPM@A@AEAAVRoseTypePtr@@XZ 004392f0 f i expx:exp_variable.obj
 0001:00038300       ??_Eexp_variable@@$4PPPPPPPM@A@AEPAXI@Z 00439300 f i expx:exp_variable.obj
 0001:00038310       ??_Gexp_variable@@UAEPAXI@Z 00439310 f i expx:exp_variable.obj
 0001:00038310       ??_Eexp_variable@@UAEPAXI@Z 00439310 f i expx:exp_variable.obj
 0001:00038380       ?_address@exp_where_clause@@UAEPAXXZ 00439380 f   expx:exp_where_clause.obj
 0001:00038390       ?classType@exp_where_clause@@UAEAAVRoseTypePtr@@XZ 00439390 f   expx:exp_where_clause.obj
 0001:00038450       ?exp_where_clause_INIT_FCN@@YAXAAVRoseTypePtr@@@Z 00439450 f   expx:exp_where_clause.obj
 0001:00038590       ??0exp_where_clause@@QAE@XZ 00439590 f   expx:exp_where_clause.obj
 0001:00038630       ??0exp_where_clause@@QAE@PAVexp_source_file@@HPAVexp_symbol@@PAVexp_scope@@PAVexp_definition@@PAVexp_expression@@@Z 00439630 f   expx:exp_where_clause.obj
 0001:00038760       ?_address@exp_where_clause@@$4PPPPPPPM@A@AEPAXXZ 00439760 f i expx:exp_where_clause.obj
 0001:00038770       ?classType@exp_where_clause@@$4PPPPPPPM@A@AEAAVRoseTypePtr@@XZ 00439770 f i expx:exp_where_clause.obj
 0001:00038780       ??_Eexp_where_clause@@$4PPPPPPPM@A@AEPAXI@Z 00439780 f i expx:exp_where_clause.obj
 0001:00038790       ??_Eexp_where_clause@@UAEPAXI@Z 00439790 f i expx:exp_where_clause.obj
 0001:00038790       ??_Gexp_where_clause@@UAEPAXI@Z 00439790 f i expx:exp_where_clause.obj
 0001:00038800       ?_address@exp_unique@@UAEPAXXZ 00439800 f   expx:exp_unique.obj
 0001:00038810       ?classType@exp_unique@@UAEAAVRoseTypePtr@@XZ 00439810 f   expx:exp_unique.obj
 0001:000388d0       ?exp_unique_INIT_FCN@@YAXAAVRoseTypePtr@@@Z 004398d0 f   expx:exp_unique.obj
 0001:00038a10       ?for_attrib@exp_unique@@QAEPAVListOfexp_expression@@XZ 00439a10 f   expx:exp_unique.obj
 0001:00038ae0       ??0exp_unique@@QAE@XZ      00439ae0 f   expx:exp_unique.obj
 0001:00038b80       ??0exp_unique@@QAE@PAVexp_source_file@@HPAVexp_symbol@@PAVexp_scope@@PAVexp_definition@@PAVListOfexp_expression@@@Z 00439b80 f   expx:exp_unique.obj
 0001:00038cb0       ?_address@exp_unique@@$4PPPPPPPM@A@AEPAXXZ 00439cb0 f i expx:exp_unique.obj
 0001:00038cc0       ?classType@exp_unique@@$4PPPPPPPM@A@AEAAVRoseTypePtr@@XZ 00439cc0 f i expx:exp_unique.obj
 0001:00038cd0       ??_Eexp_unique@@$4PPPPPPPM@A@AEPAXI@Z 00439cd0 f i expx:exp_unique.obj
 0001:00038ce0       ??_Eexp_unique@@UAEPAXI@Z  00439ce0 f i expx:exp_unique.obj
 0001:00038ce0       ??_Gexp_unique@@UAEPAXI@Z  00439ce0 f i expx:exp_unique.obj
 0001:00038d50       ?_address@exp_constraint@@UAEPAXXZ 00439d50 f   expx:exp_constraint.obj
 0001:00038d60       ?classType@exp_constraint@@UAEAAVRoseTypePtr@@XZ 00439d60 f   expx:exp_constraint.obj
 0001:00038e20       ?exp_constraint_INIT_FCN@@YAXAAVRoseTypePtr@@@Z 00439e20 f   expx:exp_constraint.obj
 0001:00038f20       ??0exp_constraint@@QAE@XZ  00439f20 f   expx:exp_constraint.obj
 0001:00038fb0       ??0exp_constraint@@QAE@PAVexp_source_file@@HPAVexp_symbol@@PAVexp_scope@@PAVexp_definition@@@Z 00439fb0 f   expx:exp_constraint.obj
 0001:000390c0       ?_address@exp_constraint@@$4PPPPPPPM@A@AEPAXXZ 0043a0c0 f i expx:exp_constraint.obj
 0001:000390d0       ?classType@exp_constraint@@$4PPPPPPPM@A@AEAAVRoseTypePtr@@XZ 0043a0d0 f i expx:exp_constraint.obj
 0001:000390e0       ??_Eexp_constraint@@$4PPPPPPPM@A@AEPAXI@Z 0043a0e0 f i expx:exp_constraint.obj
 0001:000390f0       ??_Eexp_constraint@@UAEPAXI@Z 0043a0f0 f i expx:exp_constraint.obj
 0001:000390f0       ??_Gexp_constraint@@UAEPAXI@Z 0043a0f0 f i expx:exp_constraint.obj
 0001:00039160       ?_address@exp_inverse@@UAEPAXXZ 0043a160 f   expx:exp_inverse.obj
 0001:00039170       ?classType@exp_inverse@@UAEAAVRoseTypePtr@@XZ 0043a170 f   expx:exp_inverse.obj
 0001:00039230       ?exp_inverse_INIT_FCN@@YAXAAVRoseTypePtr@@@Z 0043a230 f   expx:exp_inverse.obj
 0001:00039370       ??0exp_inverse@@QAE@XZ     0043a370 f   expx:exp_inverse.obj
 0001:00039410       ??0exp_inverse@@QAE@PAVexp_source_file@@HPAVexp_symbol@@PAVexp_scope@@PAVexp_definition@@PAVexp_op_expression@@PAVexp_type_ref@@PAVexp_identifier@@@Z 0043a410 f   expx:exp_inverse.obj
 0001:00039570       ?_address@exp_inverse@@$4PPPPPPPM@A@AEPAXXZ 0043a570 f i expx:exp_inverse.obj
 0001:00039580       ?classType@exp_inverse@@$4PPPPPPPM@A@AEAAVRoseTypePtr@@XZ 0043a580 f i expx:exp_inverse.obj
 0001:00039590       ??_Eexp_inverse@@$4PPPPPPPM@A@AEPAXI@Z 0043a590 f i expx:exp_inverse.obj
 0001:000395a0       ??_Gexp_inverse@@UAEPAXI@Z 0043a5a0 f i expx:exp_inverse.obj
 0001:000395a0       ??_Eexp_inverse@@UAEPAXI@Z 0043a5a0 f i expx:exp_inverse.obj
 0001:00039610       ?_address@exp_derived@@UAEPAXXZ 0043a610 f   expx:exp_derived.obj
 0001:00039620       ?classType@exp_derived@@UAEAAVRoseTypePtr@@XZ 0043a620 f   expx:exp_derived.obj
 0001:000396e0       ?exp_derived_INIT_FCN@@YAXAAVRoseTypePtr@@@Z 0043a6e0 f   expx:exp_derived.obj
 0001:00039820       ??0exp_derived@@QAE@XZ     0043a820 f   expx:exp_derived.obj
 0001:000398c0       ??0exp_derived@@QAE@PAVexp_source_file@@HPAVexp_symbol@@PAVexp_scope@@PAVexp_definition@@PAVexp_op_expression@@PAVexp_type_ref@@PAVexp_expression@@@Z 0043a8c0 f   expx:exp_derived.obj
 0001:00039a20       ?_address@exp_derived@@$4PPPPPPPM@A@AEPAXXZ 0043aa20 f i expx:exp_derived.obj
 0001:00039a30       ?classType@exp_derived@@$4PPPPPPPM@A@AEAAVRoseTypePtr@@XZ 0043aa30 f i expx:exp_derived.obj
 0001:00039a40       ??_Eexp_derived@@$4PPPPPPPM@A@AEPAXI@Z 0043aa40 f i expx:exp_derived.obj
 0001:00039a50       ??_Gexp_derived@@UAEPAXI@Z 0043aa50 f i expx:exp_derived.obj
 0001:00039a50       ??_Eexp_derived@@UAEPAXI@Z 0043aa50 f i expx:exp_derived.obj
 0001:00039ac0       ?_address@exp_explicit@@UAEPAXXZ 0043aac0 f   expx:exp_explicit.obj
 0001:00039ad0       ?classType@exp_explicit@@UAEAAVRoseTypePtr@@XZ 0043aad0 f   expx:exp_explicit.obj
 0001:00039b90       ?exp_explicit_INIT_FCN@@YAXAAVRoseTypePtr@@@Z 0043ab90 f   expx:exp_explicit.obj
 0001:00039cd0       ??0exp_explicit@@QAE@XZ    0043acd0 f   expx:exp_explicit.obj
 0001:00039d70       ??0exp_explicit@@QAE@PAVexp_source_file@@HPAVexp_symbol@@PAVexp_scope@@PAVexp_definition@@PAVexp_op_expression@@PAVexp_type_ref@@D@Z 0043ad70 f   expx:exp_explicit.obj
 0001:00039ed0       ?_address@exp_explicit@@$4PPPPPPPM@A@AEPAXXZ 0043aed0 f i expx:exp_explicit.obj
 0001:00039ee0       ?classType@exp_explicit@@$4PPPPPPPM@A@AEAAVRoseTypePtr@@XZ 0043aee0 f i expx:exp_explicit.obj
 0001:00039ef0       ??_Eexp_explicit@@$4PPPPPPPM@A@AEPAXI@Z 0043aef0 f i expx:exp_explicit.obj
 0001:00039f00       ??_Eexp_explicit@@UAEPAXI@Z 0043af00 f i expx:exp_explicit.obj
 0001:00039f00       ??_Gexp_explicit@@UAEPAXI@Z 0043af00 f i expx:exp_explicit.obj
 0001:00039f70       ?_address@exp_attribute@@UAEPAXXZ 0043af70 f   expx:exp_attribute.obj
 0001:00039f80       ?classType@exp_attribute@@UAEAAVRoseTypePtr@@XZ 0043af80 f   expx:exp_attribute.obj
 0001:0003a040       ?exp_attribute_INIT_FCN@@YAXAAVRoseTypePtr@@@Z 0043b040 f   expx:exp_attribute.obj
 0001:0003a170       ??0exp_attribute@@QAE@XZ   0043b170 f   expx:exp_attribute.obj
 0001:0003a200       ??0exp_attribute@@QAE@PAVexp_source_file@@HPAVexp_symbol@@PAVexp_scope@@PAVexp_definition@@PAVexp_op_expression@@PAVexp_type_ref@@@Z 0043b200 f   expx:exp_attribute.obj
 0001:0003a330       ?_address@exp_attribute@@$4PPPPPPPM@A@AEPAXXZ 0043b330 f i expx:exp_attribute.obj
 0001:0003a340       ?classType@exp_attribute@@$4PPPPPPPM@A@AEAAVRoseTypePtr@@XZ 0043b340 f i expx:exp_attribute.obj
 0001:0003a350       ??_Eexp_attribute@@$4PPPPPPPM@A@AEPAXI@Z 0043b350 f i expx:exp_attribute.obj
 0001:0003a360       ??_Gexp_attribute@@UAEPAXI@Z 0043b360 f i expx:exp_attribute.obj
 0001:0003a360       ??_Eexp_attribute@@UAEPAXI@Z 0043b360 f i expx:exp_attribute.obj
 0001:0003a3d0       ?_address@exp_constant@@UAEPAXXZ 0043b3d0 f   expx:exp_constant.obj
 0001:0003a3e0       ?classType@exp_constant@@UAEAAVRoseTypePtr@@XZ 0043b3e0 f   expx:exp_constant.obj
 0001:0003a4a0       ?exp_constant_INIT_FCN@@YAXAAVRoseTypePtr@@@Z 0043b4a0 f   expx:exp_constant.obj
 0001:0003a5a0       ??0exp_constant@@QAE@XZ    0043b5a0 f   expx:exp_constant.obj
 0001:0003a620       ??0exp_constant@@QAE@PAVexp_source_file@@HPAVexp_symbol@@PAVexp_scope@@PAVexp_type_ref@@PAVexp_expression@@@Z 0043b620 f   expx:exp_constant.obj
 0001:0003a730       ?_address@exp_constant@@$4PPPPPPPM@A@AEPAXXZ 0043b730 f i expx:exp_constant.obj
 0001:0003a740       ?classType@exp_constant@@$4PPPPPPPM@A@AEAAVRoseTypePtr@@XZ 0043b740 f i expx:exp_constant.obj
 0001:0003a750       ??_Eexp_constant@@$4PPPPPPPM@A@AEPAXI@Z 0043b750 f i expx:exp_constant.obj
 0001:0003a760       ??_Eexp_constant@@UAEPAXI@Z 0043b760 f i expx:exp_constant.obj
 0001:0003a760       ??_Gexp_constant@@UAEPAXI@Z 0043b760 f i expx:exp_constant.obj
 0001:0003a7d0       ?_address@exp_create@@UAEPAXXZ 0043b7d0 f   expx:exp_create.obj
 0001:0003a7e0       ?classType@exp_create@@UAEAAVRoseTypePtr@@XZ 0043b7e0 f   expx:exp_create.obj
 0001:0003a8a0       ?exp_create_INIT_FCN@@YAXAAVRoseTypePtr@@@Z 0043b8a0 f   expx:exp_create.obj
 0001:0003a9d0       ?body@exp_create@@QAEPAVListOfexp_view_attribute@@XZ 0043b9d0 f   expx:exp_create.obj
 0001:0003aaa0       ??_GListOfexp_view_attribute@@UAEPAXI@Z 0043baa0 f i expx:exp_create.obj
 0001:0003aaa0       ??_EListOfexp_view_attribute@@UAEPAXI@Z 0043baa0 f i expx:exp_create.obj
 0001:0003aac0       ??0exp_create@@QAE@XZ      0043bac0 f   expx:exp_create.obj
 0001:0003ab50       ??0exp_create@@QAE@PAVexp_source_file@@HPAVexp_symbol@@PAVexp_scope@@PAVListOfexp_definition@@PAVexp_identifier@@PAVListOfexp_view_attribute@@@Z 0043bb50 f   expx:exp_create.obj
 0001:0003ac80       ?_address@exp_create@@$4PPPPPPPM@A@AEPAXXZ 0043bc80 f i expx:exp_create.obj
 0001:0003ac90       ?classType@exp_create@@$4PPPPPPPM@A@AEAAVRoseTypePtr@@XZ 0043bc90 f i expx:exp_create.obj
 0001:0003aca0       ??_Eexp_create@@$4PPPPPPPM@A@AEPAXI@Z 0043bca0 f i expx:exp_create.obj
 0001:0003acb0       ??_Gexp_create@@UAEPAXI@Z  0043bcb0 f i expx:exp_create.obj
 0001:0003acb0       ??_Eexp_create@@UAEPAXI@Z  0043bcb0 f i expx:exp_create.obj
 0001:0003ad20       ?_address@exp_view_conditional_expr@@UAEPAXXZ 0043bd20 f   expx:exp_view_conditional_expr.obj
 0001:0003ad30       ?classType@exp_view_conditional_expr@@UAEAAVRoseTypePtr@@XZ 0043bd30 f   expx:exp_view_conditional_expr.obj
 0001:0003adf0       ?exp_view_conditional_expr_INIT_FCN@@YAXAAVRoseTypePtr@@@Z 0043bdf0 f   expx:exp_view_conditional_expr.obj
 0001:0003af10       ??0exp_view_conditional_expr@@QAE@XZ 0043bf10 f   expx:exp_view_conditional_expr.obj
 0001:0003af90       ??0exp_view_conditional_expr@@QAE@PAVexp_source_file@@HPAVexp_expression@@11@Z 0043bf90 f   expx:exp_view_conditional_expr.obj
 0001:0003b080       ?_address@exp_view_conditional_expr@@$4PPPPPPPM@A@AEPAXXZ 0043c080 f i expx:exp_view_conditional_expr.obj
 0001:0003b090       ?classType@exp_view_conditional_expr@@$4PPPPPPPM@A@AEAAVRoseTypePtr@@XZ 0043c090 f i expx:exp_view_conditional_expr.obj
 0001:0003b0a0       ??_Eexp_view_conditional_expr@@$4PPPPPPPM@A@AEPAXI@Z 0043c0a0 f i expx:exp_view_conditional_expr.obj
 0001:0003b0b0       ??_Eexp_view_conditional_expr@@UAEPAXI@Z 0043c0b0 f i expx:exp_view_conditional_expr.obj
 0001:0003b0b0       ??_Gexp_view_conditional_expr@@UAEPAXI@Z 0043c0b0 f i expx:exp_view_conditional_expr.obj
 0001:0003b120       ?_address@exp_view_attribute@@UAEPAXXZ 0043c120 f   expx:exp_view_attribute.obj
 0001:0003b130       ?classType@exp_view_attribute@@UAEAAVRoseTypePtr@@XZ 0043c130 f   expx:exp_view_attribute.obj
 0001:0003b1f0       ?exp_view_attribute_INIT_FCN@@YAXAAVRoseTypePtr@@@Z 0043c1f0 f   expx:exp_view_attribute.obj
 0001:0003b330       ??0exp_view_attribute@@QAE@XZ 0043c330 f   expx:exp_view_attribute.obj
 0001:0003b3c0       ??0exp_view_attribute@@QAE@PAVexp_source_file@@HPAVexp_symbol@@PAVexp_scope@@PAVexp_definition@@PAVexp_type_ref@@PAVexp_expression@@D@Z 0043c3c0 f   expx:exp_view_attribute.obj
 0001:0003b500       ?_address@exp_view_attribute@@$4PPPPPPPM@A@AEPAXXZ 0043c500 f i expx:exp_view_attribute.obj
 0001:0003b510       ?classType@exp_view_attribute@@$4PPPPPPPM@A@AEAAVRoseTypePtr@@XZ 0043c510 f i expx:exp_view_attribute.obj
 0001:0003b520       ??_Eexp_view_attribute@@$4PPPPPPPM@A@AEPAXI@Z 0043c520 f i expx:exp_view_attribute.obj
 0001:0003b530       ??_Eexp_view_attribute@@UAEPAXI@Z 0043c530 f i expx:exp_view_attribute.obj
 0001:0003b530       ??_Gexp_view_attribute@@UAEPAXI@Z 0043c530 f i expx:exp_view_attribute.obj
 0001:0003b5a0       ?_address@exp_partition@@UAEPAXXZ 0043c5a0 f   expx:exp_partition.obj
 0001:0003b5b0       ?classType@exp_partition@@UAEAAVRoseTypePtr@@XZ 0043c5b0 f   expx:exp_partition.obj
 0001:0003b670       ?exp_partition_INIT_FCN@@YAXAAVRoseTypePtr@@@Z 0043c670 f   expx:exp_partition.obj
 0001:0003b820       ?from_clause@exp_partition@@QAEPAVListOfexp_parameter@@XZ 0043c820 f   expx:exp_partition.obj
 0001:0003b8f0       ??_EListOfexp_parameter@@UAEPAXI@Z 0043c8f0 f i expx:exp_partition.obj
 0001:0003b8f0       ??_GListOfexp_parameter@@UAEPAXI@Z 0043c8f0 f i expx:exp_partition.obj
 0001:0003b910       ?id_by@exp_partition@@QAEPAVListOfexp_expression@@XZ 0043c910 f   expx:exp_partition.obj
 0001:0003b9e0       ?where_clause@exp_partition@@QAEPAVListOfexp_where_clause@@XZ 0043c9e0 f   expx:exp_partition.obj
 0001:0003bab0       ?body@exp_partition@@QAEPAVListOfexp_view_attribute@@XZ 0043cab0 f   expx:exp_partition.obj
 0001:0003bb80       ?derived_atts@exp_partition@@QAEPAVListOfexp_derived@@XZ 0043cb80 f   expx:exp_partition.obj
 0001:0003bc50       ??_GListOfexp_derived@@UAEPAXI@Z 0043cc50 f i expx:exp_partition.obj
 0001:0003bc50       ??_EListOfexp_derived@@UAEPAXI@Z 0043cc50 f i expx:exp_partition.obj
 0001:0003bc70       ?unique_atts@exp_partition@@QAEPAVListOfexp_unique@@XZ 0043cc70 f   expx:exp_partition.obj
 0001:0003bd40       ??_EListOfexp_unique@@UAEPAXI@Z 0043cd40 f i expx:exp_partition.obj
 0001:0003bd40       ??_GListOfexp_unique@@UAEPAXI@Z 0043cd40 f i expx:exp_partition.obj
 0001:0003bd60       ?inverse_atts@exp_partition@@QAEPAVListOfexp_inverse@@XZ 0043cd60 f   expx:exp_partition.obj
 0001:0003be30       ??_GListOfexp_inverse@@UAEPAXI@Z 0043ce30 f i expx:exp_partition.obj
 0001:0003be30       ??_EListOfexp_inverse@@UAEPAXI@Z 0043ce30 f i expx:exp_partition.obj
 0001:0003be50       ?constraints@exp_partition@@QAEPAVListOfexp_where_clause@@XZ 0043ce50 f   expx:exp_partition.obj
 0001:0003bf20       ??0exp_partition@@QAE@XZ   0043cf20 f   expx:exp_partition.obj
 0001:0003bfc0       ??0exp_partition@@QAE@PAVexp_source_file@@HPAVexp_symbol@@PAVexp_scope@@PAVListOfexp_definition@@PAVListOfexp_parameter@@PAVListOfexp_expression@@PAVListOfexp_where_clause@@PAVListOfexp_view_attribute@@PAVListOfexp_derived@@PAVListOfexp_unique@@PAVListOfexp_inverse@@6@Z 0043cfc0 f   expx:exp_partition.obj
 0001:0003c160       ?_address@exp_partition@@$4PPPPPPPM@A@AEPAXXZ 0043d160 f i expx:exp_partition.obj
 0001:0003c170       ?classType@exp_partition@@$4PPPPPPPM@A@AEAAVRoseTypePtr@@XZ 0043d170 f i expx:exp_partition.obj
 0001:0003c180       ??_Eexp_partition@@$4PPPPPPPM@A@AEPAXI@Z 0043d180 f i expx:exp_partition.obj
 0001:0003c190       ??_Eexp_partition@@UAEPAXI@Z 0043d190 f i expx:exp_partition.obj
 0001:0003c190       ??_Gexp_partition@@UAEPAXI@Z 0043d190 f i expx:exp_partition.obj
 0001:0003c210       ?_address@ListOfexp_view_attribute@@UAEPAXXZ 0043d210 f   expx:ListOfexp_view_attribute.obj
 0001:0003c220       ?classType@ListOfexp_view_attribute@@UAEAAVRoseTypePtr@@XZ 0043d220 f   expx:ListOfexp_view_attribute.obj
 0001:0003c2d0       ?ListOfexp_view_attribute_INIT_FCN@@YAXAAVRoseTypePtr@@@Z 0043d2d0 f   expx:ListOfexp_view_attribute.obj
 0001:0003c390       ?_data@ListOfexp_view_attribute@@QAEPAPAVexp_view_attribute@@XZ 0043d390 f   expx:ListOfexp_view_attribute.obj
 0001:0003c3a0       ??AListOfexp_view_attribute@@QAEPAVexp_view_attribute@@I@Z 0043d3a0 f   expx:ListOfexp_view_attribute.obj
 0001:0003c3d0       ?get@ListOfexp_view_attribute@@QAEPAVexp_view_attribute@@I@Z 0043d3d0 f   expx:ListOfexp_view_attribute.obj
 0001:0003c400       ?first@ListOfexp_view_attribute@@QAEPAVexp_view_attribute@@XZ 0043d400 f   expx:ListOfexp_view_attribute.obj
 0001:0003c420       ?last@ListOfexp_view_attribute@@QAEPAVexp_view_attribute@@XZ 0043d420 f   expx:ListOfexp_view_attribute.obj
 0001:0003c450       ?contains@ListOfexp_view_attribute@@QAEDPAVexp_view_attribute@@@Z 0043d450 f   expx:ListOfexp_view_attribute.obj
 0001:0003c470       ?_element@ListOfexp_view_attribute@@QAEPAVexp_view_attribute@@I@Z 0043d470 f   expx:ListOfexp_view_attribute.obj
 0001:0003c4c0       ?slotType@ListOfexp_view_attribute@@UAEAAVRoseTypePtr@@PAVRoseAttribute@@I@Z 0043d4c0 f   expx:ListOfexp_view_attribute.obj
 0001:0003c520       ?_address@ListOfexp_expression@@UAEPAXXZ 0043d520 f   expx:ListOfexp_expression.obj
 0001:0003c530       ?classType@ListOfexp_expression@@UAEAAVRoseTypePtr@@XZ 0043d530 f   expx:ListOfexp_expression.obj
 0001:0003c5e0       ?ListOfexp_expression_INIT_FCN@@YAXAAVRoseTypePtr@@@Z 0043d5e0 f   expx:ListOfexp_expression.obj
 0001:0003c6a0       ?_data@ListOfexp_expression@@QAEPAPAVexp_expression@@XZ 0043d6a0 f   expx:ListOfexp_expression.obj
 0001:0003c6b0       ??AListOfexp_expression@@QAEPAVexp_expression@@I@Z 0043d6b0 f   expx:ListOfexp_expression.obj
 0001:0003c6e0       ?get@ListOfexp_expression@@QAEPAVexp_expression@@I@Z 0043d6e0 f   expx:ListOfexp_expression.obj
 0001:0003c710       ?first@ListOfexp_expression@@QAEPAVexp_expression@@XZ 0043d710 f   expx:ListOfexp_expression.obj
 0001:0003c730       ?last@ListOfexp_expression@@QAEPAVexp_expression@@XZ 0043d730 f   expx:ListOfexp_expression.obj
 0001:0003c760       ?contains@ListOfexp_expression@@QAEDPAVexp_expression@@@Z 0043d760 f   expx:ListOfexp_expression.obj
 0001:0003c780       ?_element@ListOfexp_expression@@QAEPAVexp_expression@@I@Z 0043d780 f   expx:ListOfexp_expression.obj
 0001:0003c7d0       ?slotType@ListOfexp_expression@@UAEAAVRoseTypePtr@@PAVRoseAttribute@@I@Z 0043d7d0 f   expx:ListOfexp_expression.obj
 0001:0003c820       ?_address@exp_inline_view@@UAEPAXXZ 0043d820 f   expx:exp_inline_view.obj
 0001:0003c830       ?classType@exp_inline_view@@UAEAAVRoseTypePtr@@XZ 0043d830 f   expx:exp_inline_view.obj
 0001:0003c8f0       ?exp_inline_view_INIT_FCN@@YAXAAVRoseTypePtr@@@Z 0043d8f0 f   expx:exp_inline_view.obj
 0001:0003cae0       ??0exp_inline_view@@QAE@XZ 0043dae0 f   expx:exp_inline_view.obj
 0001:0003cb90       ??0exp_inline_view@@QAE@PAVexp_source_file@@HPAVexp_symbol@@PAVexp_scope@@PAVListOfexp_definition@@PAVexp_identifier@@4PAVListOfexp_partition@@@Z 0043db90 f   expx:exp_inline_view.obj
 0001:0003cd10       ?_address@exp_inline_view@@$4PPPPPPPM@A@AEPAXXZ 0043dd10 f i expx:exp_inline_view.obj
 0001:0003cd20       ?classType@exp_inline_view@@$4PPPPPPPM@A@AEAAVRoseTypePtr@@XZ 0043dd20 f i expx:exp_inline_view.obj
 0001:0003cd30       ??_Eexp_inline_view@@$4PPPPPPPM@A@AEPAXI@Z 0043dd30 f i expx:exp_inline_view.obj
 0001:0003cd40       ??_Gexp_inline_view@@UAEPAXI@Z 0043dd40 f i expx:exp_inline_view.obj
 0001:0003cd40       ??_Eexp_inline_view@@UAEPAXI@Z 0043dd40 f i expx:exp_inline_view.obj
 0001:0003cdb0       ?_address@exp_view2@@UAEPAXXZ 0043ddb0 f   expx:exp_view2.obj
 0001:0003cdc0       ?classType@exp_view2@@UAEAAVRoseTypePtr@@XZ 0043ddc0 f   expx:exp_view2.obj
 0001:0003ce80       ?exp_view2_INIT_FCN@@YAXAAVRoseTypePtr@@@Z 0043de80 f   expx:exp_view2.obj
 0001:0003cfc0       ?partitions@exp_view2@@QAEPAVListOfexp_partition@@XZ 0043dfc0 f   expx:exp_view2.obj
 0001:0003d090       ??_EListOfexp_partition@@UAEPAXI@Z 0043e090 f i expx:exp_view2.obj
 0001:0003d090       ??_GListOfexp_partition@@UAEPAXI@Z 0043e090 f i expx:exp_view2.obj
 0001:0003d0b0       ??0exp_view2@@QAE@XZ       0043e0b0 f   expx:exp_view2.obj
 0001:0003d140       ??0exp_view2@@QAE@PAVexp_source_file@@HPAVexp_symbol@@PAVexp_scope@@PAVListOfexp_definition@@PAVexp_identifier@@4PAVListOfexp_partition@@@Z 0043e140 f   expx:exp_view2.obj
 0001:0003d280       ?_address@exp_view2@@$4PPPPPPPM@A@AEPAXXZ 0043e280 f i expx:exp_view2.obj
 0001:0003d290       ?classType@exp_view2@@$4PPPPPPPM@A@AEAAVRoseTypePtr@@XZ 0043e290 f i expx:exp_view2.obj
 0001:0003d2a0       ??_Eexp_view2@@$4PPPPPPPM@A@AEPAXI@Z 0043e2a0 f i expx:exp_view2.obj
 0001:0003d2b0       ??_Gexp_view2@@UAEPAXI@Z   0043e2b0 f i expx:exp_view2.obj
 0001:0003d2b0       ??_Eexp_view2@@UAEPAXI@Z   0043e2b0 f i expx:exp_view2.obj
 0001:0003d330       ?_address@ListOfexp_partition@@UAEPAXXZ 0043e330 f   expx:ListOfexp_partition.obj
 0001:0003d340       ?classType@ListOfexp_partition@@UAEAAVRoseTypePtr@@XZ 0043e340 f   expx:ListOfexp_partition.obj
 0001:0003d3f0       ?ListOfexp_partition_INIT_FCN@@YAXAAVRoseTypePtr@@@Z 0043e3f0 f   expx:ListOfexp_partition.obj
 0001:0003d4b0       ?_data@ListOfexp_partition@@QAEPAPAVexp_partition@@XZ 0043e4b0 f   expx:ListOfexp_partition.obj
 0001:0003d4c0       ??AListOfexp_partition@@QAEPAVexp_partition@@I@Z 0043e4c0 f   expx:ListOfexp_partition.obj
 0001:0003d4f0       ?get@ListOfexp_partition@@QAEPAVexp_partition@@I@Z 0043e4f0 f   expx:ListOfexp_partition.obj
 0001:0003d520       ?first@ListOfexp_partition@@QAEPAVexp_partition@@XZ 0043e520 f   expx:ListOfexp_partition.obj
 0001:0003d540       ?last@ListOfexp_partition@@QAEPAVexp_partition@@XZ 0043e540 f   expx:ListOfexp_partition.obj
 0001:0003d570       ?contains@ListOfexp_partition@@QAEDPAVexp_partition@@@Z 0043e570 f   expx:ListOfexp_partition.obj
 0001:0003d590       ?_element@ListOfexp_partition@@QAEPAVexp_partition@@I@Z 0043e590 f   expx:ListOfexp_partition.obj
 0001:0003d5e0       ?slotType@ListOfexp_partition@@UAEAAVRoseTypePtr@@PAVRoseAttribute@@I@Z 0043e5e0 f   expx:ListOfexp_partition.obj
 0001:0003d630       ?_address@exp_cast@@UAEPAXXZ 0043e630 f   expx:exp_cast.obj
 0001:0003d640       ?classType@exp_cast@@UAEAAVRoseTypePtr@@XZ 0043e640 f   expx:exp_cast.obj
 0001:0003d700       ?exp_cast_INIT_FCN@@YAXAAVRoseTypePtr@@@Z 0043e700 f   expx:exp_cast.obj
 0001:0003d800       ??0exp_cast@@QAE@XZ        0043e800 f   expx:exp_cast.obj
 0001:0003d880       ??0exp_cast@@QAE@PAVexp_source_file@@HPAVexp_type_ref@@PAVexp_expression@@@Z 0043e880 f   expx:exp_cast.obj
 0001:0003d950       ?_address@exp_cast@@$4PPPPPPPM@A@AEPAXXZ 0043e950 f i expx:exp_cast.obj
 0001:0003d960       ?classType@exp_cast@@$4PPPPPPPM@A@AEAAVRoseTypePtr@@XZ 0043e960 f i expx:exp_cast.obj
 0001:0003d970       ??_Eexp_cast@@$4PPPPPPPM@A@AEPAXI@Z 0043e970 f i expx:exp_cast.obj
 0001:0003d980       ??_Gexp_cast@@UAEPAXI@Z    0043e980 f i expx:exp_cast.obj
 0001:0003d980       ??_Eexp_cast@@UAEPAXI@Z    0043e980 f i expx:exp_cast.obj
 0001:0003d9f0       ?_address@exp_extended_id@@UAEPAXXZ 0043e9f0 f   expx:exp_extended_id.obj
 0001:0003da00       ?classType@exp_extended_id@@UAEAAVRoseTypePtr@@XZ 0043ea00 f   expx:exp_extended_id.obj
 0001:0003dac0       ?exp_extended_id_INIT_FCN@@YAXAAVRoseTypePtr@@@Z 0043eac0 f   expx:exp_extended_id.obj
 0001:0003dc60       ??0exp_extended_id@@QAE@XZ 0043ec60 f   expx:exp_extended_id.obj
 0001:0003dd00       ??0exp_extended_id@@QAE@PAVexp_source_file@@HPAVexp_binding@@PAVexp_identifier@@@Z 0043ed00 f   expx:exp_extended_id.obj
 0001:0003de00       ?_address@exp_extended_id@@$4PPPPPPPM@A@AEPAXXZ 0043ee00 f i expx:exp_extended_id.obj
 0001:0003de10       ?classType@exp_extended_id@@$4PPPPPPPM@A@AEAAVRoseTypePtr@@XZ 0043ee10 f i expx:exp_extended_id.obj
 0001:0003de20       ??_Eexp_extended_id@@$4PPPPPPPM@A@AEPAXI@Z 0043ee20 f i expx:exp_extended_id.obj
 0001:0003de30       ??_Gexp_extended_id@@UAEPAXI@Z 0043ee30 f i expx:exp_extended_id.obj
 0001:0003de30       ??_Eexp_extended_id@@UAEPAXI@Z 0043ee30 f i expx:exp_extended_id.obj
 0001:0003dea0       ?_address@exp_identifier@@UAEPAXXZ 0043eea0 f   expx:exp_identifier.obj
 0001:0003deb0       ?classType@exp_identifier@@UAEAAVRoseTypePtr@@XZ 0043eeb0 f   expx:exp_identifier.obj
 0001:0003df70       ?exp_identifier_INIT_FCN@@YAXAAVRoseTypePtr@@@Z 0043ef70 f   expx:exp_identifier.obj
 0001:0003e0f0       ??0exp_identifier@@QAE@XZ  0043f0f0 f   expx:exp_identifier.obj
 0001:0003e180       ??0exp_identifier@@QAE@PAVexp_source_file@@HPAVexp_binding@@@Z 0043f180 f   expx:exp_identifier.obj
 0001:0003e250       ?_address@exp_identifier@@$4PPPPPPPM@A@AEPAXXZ 0043f250 f i expx:exp_identifier.obj
 0001:0003e260       ?classType@exp_identifier@@$4PPPPPPPM@A@AEAAVRoseTypePtr@@XZ 0043f260 f i expx:exp_identifier.obj
 0001:0003e270       ??_Eexp_identifier@@$4PPPPPPPM@A@AEPAXI@Z 0043f270 f i expx:exp_identifier.obj
 0001:0003e280       ??_Gexp_identifier@@UAEPAXI@Z 0043f280 f i expx:exp_identifier.obj
 0001:0003e280       ??_Eexp_identifier@@UAEPAXI@Z 0043f280 f i expx:exp_identifier.obj
 0001:0003e2f0       ?_address@exp_expression@@UAEPAXXZ 0043f2f0 f   expx:exp_expression.obj
 0001:0003e300       ?classType@exp_expression@@UAEAAVRoseTypePtr@@XZ 0043f300 f   expx:exp_expression.obj
 0001:0003e3c0       ?exp_expression_INIT_FCN@@YAXAAVRoseTypePtr@@@Z 0043f3c0 f   expx:exp_expression.obj
 0001:0003e470       ??0exp_expression@@QAE@XZ  0043f470 f   expx:exp_expression.obj
 0001:0003e4d0       ??0exp_expression@@QAE@PAVexp_source_file@@H@Z 0043f4d0 f   expx:exp_expression.obj
 0001:0003e570       ?_address@exp_expression@@$4PPPPPPPM@A@AEPAXXZ 0043f570 f i expx:exp_expression.obj
 0001:0003e580       ?classType@exp_expression@@$4PPPPPPPM@A@AEAAVRoseTypePtr@@XZ 0043f580 f i expx:exp_expression.obj
 0001:0003e590       ??_Eexp_expression@@$4PPPPPPPM@A@AEPAXI@Z 0043f590 f i expx:exp_expression.obj
 0001:0003e5a0       ??_Eexp_expression@@UAEPAXI@Z 0043f5a0 f i expx:exp_expression.obj
 0001:0003e5a0       ??_Gexp_expression@@UAEPAXI@Z 0043f5a0 f i expx:exp_expression.obj
 0001:0003e610       ?_address@exp_new@@UAEPAXXZ 0043f610 f   expx:exp_new.obj
 0001:0003e620       ?classType@exp_new@@UAEAAVRoseTypePtr@@XZ 0043f620 f   expx:exp_new.obj
 0001:0003e6e0       ?exp_new_INIT_FCN@@YAXAAVRoseTypePtr@@@Z 0043f6e0 f   expx:exp_new.obj
 0001:0003e7d0       ??0exp_new@@QAE@XZ         0043f7d0 f   expx:exp_new.obj
 0001:0003e850       ??0exp_new@@QAE@PAVexp_source_file@@HPAVexp_expression@@@Z 0043f850 f   expx:exp_new.obj
 0001:0003e910       ?_address@exp_new@@$4PPPPPPPM@A@AEPAXXZ 0043f910 f i expx:exp_new.obj
 0001:0003e920       ?classType@exp_new@@$4PPPPPPPM@A@AEAAVRoseTypePtr@@XZ 0043f920 f i expx:exp_new.obj
 0001:0003e930       ??_Eexp_new@@$4PPPPPPPM@A@AEPAXI@Z 0043f930 f i expx:exp_new.obj
 0001:0003e940       ??_Eexp_new@@UAEPAXI@Z     0043f940 f i expx:exp_new.obj
 0001:0003e940       ??_Gexp_new@@UAEPAXI@Z     0043f940 f i expx:exp_new.obj
 0001:0003e9b0       ?_address@exp_from_stmt@@UAEPAXXZ 0043f9b0 f   expx:exp_from_stmt.obj
 0001:0003e9c0       ?classType@exp_from_stmt@@UAEAAVRoseTypePtr@@XZ 0043f9c0 f   expx:exp_from_stmt.obj
 0001:0003ea80       ?exp_from_stmt_INIT_FCN@@YAXAAVRoseTypePtr@@@Z 0043fa80 f   expx:exp_from_stmt.obj
 0001:0003eca0       ?parameters@exp_from_stmt@@QAEPAVListOfexp_extended_entity_ref@@XZ 0043fca0 f   expx:exp_from_stmt.obj
 0001:0003ed70       ?when_clause@exp_from_stmt@@QAEPAVListOfexp_where_clause@@XZ 0043fd70 f   expx:exp_from_stmt.obj
 0001:0003ee40       ??0exp_from_stmt@@QAE@XZ   0043fe40 f   expx:exp_from_stmt.obj
 0001:0003eef0       ??0exp_from_stmt@@QAE@PAVexp_source_file@@HPAVexp_symbol@@PAVexp_scope@@PAVListOfexp_definition@@PAVListOfexp_statement@@PAVListOfexp_extended_entity_ref@@PAVListOfexp_where_clause@@@Z 0043fef0 f   expx:exp_from_stmt.obj
 0001:0003f060       ?_address@exp_from_stmt@@$4PPPPPPPM@A@AEPAXXZ 00440060 f i expx:exp_from_stmt.obj
 0001:0003f070       ?classType@exp_from_stmt@@$4PPPPPPPM@A@AEAAVRoseTypePtr@@XZ 00440070 f i expx:exp_from_stmt.obj
 0001:0003f080       ??_Eexp_from_stmt@@$4PPPPPPPM@A@AEPAXI@Z 00440080 f i expx:exp_from_stmt.obj
 0001:0003f090       ??_Gexp_from_stmt@@UAEPAXI@Z 00440090 f i expx:exp_from_stmt.obj
 0001:0003f090       ??_Eexp_from_stmt@@UAEPAXI@Z 00440090 f i expx:exp_from_stmt.obj
 0001:0003f100       ?_address@exp_statement@@UAEPAXXZ 00440100 f   expx:exp_statement.obj
 0001:0003f110       ?classType@exp_statement@@UAEAAVRoseTypePtr@@XZ 00440110 f   expx:exp_statement.obj
 0001:0003f1d0       ?exp_statement_INIT_FCN@@YAXAAVRoseTypePtr@@@Z 004401d0 f   expx:exp_statement.obj
 0001:0003f280       ??0exp_statement@@QAE@XZ   00440280 f   expx:exp_statement.obj
 0001:0003f2e0       ??0exp_statement@@QAE@PAVexp_source_file@@H@Z 004402e0 f   expx:exp_statement.obj
 0001:0003f380       ?_address@exp_statement@@$4PPPPPPPM@A@AEPAXXZ 00440380 f i expx:exp_statement.obj
 0001:0003f390       ?classType@exp_statement@@$4PPPPPPPM@A@AEAAVRoseTypePtr@@XZ 00440390 f i expx:exp_statement.obj
 0001:0003f3a0       ??_Eexp_statement@@$4PPPPPPPM@A@AEPAXI@Z 004403a0 f i expx:exp_statement.obj
 0001:0003f3b0       ??_Eexp_statement@@UAEPAXI@Z 004403b0 f i expx:exp_statement.obj
 0001:0003f3b0       ??_Gexp_statement@@UAEPAXI@Z 004403b0 f i expx:exp_statement.obj
 0001:0003f420       ?_address@exp_compose@@UAEPAXXZ 00440420 f   expx:exp_compose.obj
 0001:0003f430       ?classType@exp_compose@@UAEAAVRoseTypePtr@@XZ 00440430 f   expx:exp_compose.obj
 0001:0003f4f0       ?exp_compose_INIT_FCN@@YAXAAVRoseTypePtr@@@Z 004404f0 f   expx:exp_compose.obj
 0001:0003f660       ?parameters@exp_compose@@QAEPAVListOfexp_extended_entity_ref@@XZ 00440660 f   expx:exp_compose.obj
 0001:0003f730       ?when_clause@exp_compose@@QAEPAVListOfexp_where_clause@@XZ 00440730 f   expx:exp_compose.obj
 0001:0003f800       ??0exp_compose@@QAE@XZ     00440800 f   expx:exp_compose.obj
 0001:0003f8a0       ??0exp_compose@@QAE@PAVexp_source_file@@HPAVexp_symbol@@PAVexp_scope@@PAVListOfexp_definition@@PAVListOfexp_statement@@PAVexp_extended_entity_ref@@PAVListOfexp_extended_entity_ref@@PAVListOfexp_where_clause@@@Z 004408a0 f   expx:exp_compose.obj
 0001:0003fa10       ?_address@exp_compose@@$4PPPPPPPM@A@AEPAXXZ 00440a10 f i expx:exp_compose.obj
 0001:0003fa20       ?classType@exp_compose@@$4PPPPPPPM@A@AEAAVRoseTypePtr@@XZ 00440a20 f i expx:exp_compose.obj
 0001:0003fa30       ??_Eexp_compose@@$4PPPPPPPM@A@AEPAXI@Z 00440a30 f i expx:exp_compose.obj
 0001:0003fa40       ??_Gexp_compose@@UAEPAXI@Z 00440a40 f i expx:exp_compose.obj
 0001:0003fa40       ??_Eexp_compose@@UAEPAXI@Z 00440a40 f i expx:exp_compose.obj
 0001:0003fab0       ?_address@exp_view@@UAEPAXXZ 00440ab0 f   expx:exp_view.obj
 0001:0003fac0       ?classType@exp_view@@UAEAAVRoseTypePtr@@XZ 00440ac0 f   expx:exp_view.obj
 0001:0003fb80       ?exp_view_INIT_FCN@@YAXAAVRoseTypePtr@@@Z 00440b80 f   expx:exp_view.obj
 0001:0003fcf0       ?parameters@exp_view@@QAEPAVListOfexp_extended_entity_ref@@XZ 00440cf0 f   expx:exp_view.obj
 0001:0003fdc0       ?when_clause@exp_view@@QAEPAVListOfexp_where_clause@@XZ 00440dc0 f   expx:exp_view.obj
 0001:0003fe90       ??0exp_view@@QAE@XZ        00440e90 f   expx:exp_view.obj
 0001:0003ff30       ??0exp_view@@QAE@PAVexp_source_file@@HPAVexp_symbol@@PAVexp_scope@@PAVListOfexp_definition@@PAVListOfexp_statement@@PAVexp_extended_entity_ref@@PAVListOfexp_extended_entity_ref@@PAVListOfexp_where_clause@@@Z 00440f30 f   expx:exp_view.obj
 0001:000400a0       ?_address@exp_view@@$4PPPPPPPM@A@AEPAXXZ 004410a0 f i expx:exp_view.obj
 0001:000400b0       ?classType@exp_view@@$4PPPPPPPM@A@AEAAVRoseTypePtr@@XZ 004410b0 f i expx:exp_view.obj
 0001:000400c0       ??_Eexp_view@@$4PPPPPPPM@A@AEPAXI@Z 004410c0 f i expx:exp_view.obj
 0001:000400d0       ??_Gexp_view@@UAEPAXI@Z    004410d0 f i expx:exp_view.obj
 0001:000400d0       ??_Eexp_view@@UAEPAXI@Z    004410d0 f i expx:exp_view.obj
 0001:00040150       ?_address@ListOfexp_extended_entity_ref@@UAEPAXXZ 00441150 f   expx:ListOfexp_extended_entity_ref.obj
 0001:00040160       ?classType@ListOfexp_extended_entity_ref@@UAEAAVRoseTypePtr@@XZ 00441160 f   expx:ListOfexp_extended_entity_ref.obj
 0001:00040210       ?ListOfexp_extended_entity_ref_INIT_FCN@@YAXAAVRoseTypePtr@@@Z 00441210 f   expx:ListOfexp_extended_entity_ref.obj
 0001:000402d0       ?_data@ListOfexp_extended_entity_ref@@QAEPAPAVexp_extended_entity_ref@@XZ 004412d0 f   expx:ListOfexp_extended_entity_ref.obj
 0001:000402e0       ??AListOfexp_extended_entity_ref@@QAEPAVexp_extended_entity_ref@@I@Z 004412e0 f   expx:ListOfexp_extended_entity_ref.obj
 0001:00040310       ?get@ListOfexp_extended_entity_ref@@QAEPAVexp_extended_entity_ref@@I@Z 00441310 f   expx:ListOfexp_extended_entity_ref.obj
 0001:00040340       ?first@ListOfexp_extended_entity_ref@@QAEPAVexp_extended_entity_ref@@XZ 00441340 f   expx:ListOfexp_extended_entity_ref.obj
 0001:00040360       ?last@ListOfexp_extended_entity_ref@@QAEPAVexp_extended_entity_ref@@XZ 00441360 f   expx:ListOfexp_extended_entity_ref.obj
 0001:00040390       ?contains@ListOfexp_extended_entity_ref@@QAEDPAVexp_extended_entity_ref@@@Z 00441390 f   expx:ListOfexp_extended_entity_ref.obj
 0001:000403b0       ?_element@ListOfexp_extended_entity_ref@@QAEPAVexp_extended_entity_ref@@I@Z 004413b0 f   expx:ListOfexp_extended_entity_ref.obj
 0001:00040400       ?slotType@ListOfexp_extended_entity_ref@@UAEAAVRoseTypePtr@@PAVRoseAttribute@@I@Z 00441400 f   expx:ListOfexp_extended_entity_ref.obj
 0001:00040450       ?_address@exp_subroutine@@UAEPAXXZ 00441450 f   expx:exp_subroutine.obj
 0001:00040460       ?classType@exp_subroutine@@UAEAAVRoseTypePtr@@XZ 00441460 f   expx:exp_subroutine.obj
 0001:00040520       ?exp_subroutine_INIT_FCN@@YAXAAVRoseTypePtr@@@Z 00441520 f   expx:exp_subroutine.obj
 0001:00040680       ?parameters@exp_subroutine@@QAEPAVListOfexp_parameter@@XZ 00441680 f   expx:exp_subroutine.obj
 0001:00040750       ??0exp_subroutine@@QAE@XZ  00441750 f   expx:exp_subroutine.obj
 0001:000407f0       ??0exp_subroutine@@QAE@PAVexp_source_file@@HPAVexp_symbol@@PAVexp_scope@@PAVListOfexp_definition@@PAVListOfexp_statement@@PAVListOfexp_parameter@@PAVexp_type_ref@@@Z 004417f0 f   expx:exp_subroutine.obj
 0001:00040950       ?_address@exp_subroutine@@$4PPPPPPPM@A@AEPAXXZ 00441950 f i expx:exp_subroutine.obj
 0001:00040960       ?classType@exp_subroutine@@$4PPPPPPPM@A@AEAAVRoseTypePtr@@XZ 00441960 f i expx:exp_subroutine.obj
 0001:00040970       ??_Eexp_subroutine@@$4PPPPPPPM@A@AEPAXI@Z 00441970 f i expx:exp_subroutine.obj
 0001:00040980       ??_Eexp_subroutine@@UAEPAXI@Z 00441980 f i expx:exp_subroutine.obj
 0001:00040980       ??_Gexp_subroutine@@UAEPAXI@Z 00441980 f i expx:exp_subroutine.obj
 0001:000409f0       ?_address@exp_rule@@UAEPAXXZ 004419f0 f   expx:exp_rule.obj
 0001:00040a00       ?classType@exp_rule@@UAEAAVRoseTypePtr@@XZ 00441a00 f   expx:exp_rule.obj
 0001:00040ac0       ?exp_rule_INIT_FCN@@YAXAAVRoseTypePtr@@@Z 00441ac0 f   expx:exp_rule.obj
 0001:00040c20       ?parameters@exp_rule@@QAEPAVListOfexp_parameter@@XZ 00441c20 f   expx:exp_rule.obj
 0001:00040cf0       ?clauses@exp_rule@@QAEPAVListOfexp_where_clause@@XZ 00441cf0 f   expx:exp_rule.obj
 0001:00040dc0       ??0exp_rule@@QAE@XZ        00441dc0 f   expx:exp_rule.obj
 0001:00040e60       ??0exp_rule@@QAE@PAVexp_source_file@@HPAVexp_symbol@@PAVexp_scope@@PAVListOfexp_definition@@PAVListOfexp_statement@@PAVListOfexp_parameter@@PAVListOfexp_where_clause@@@Z 00441e60 f   expx:exp_rule.obj
 0001:00040fc0       ?_address@exp_rule@@$4PPPPPPPM@A@AEPAXXZ 00441fc0 f i expx:exp_rule.obj
 0001:00040fd0       ?classType@exp_rule@@$4PPPPPPPM@A@AEAAVRoseTypePtr@@XZ 00441fd0 f i expx:exp_rule.obj
 0001:00040fe0       ??_Eexp_rule@@$4PPPPPPPM@A@AEPAXI@Z 00441fe0 f i expx:exp_rule.obj
 0001:00040ff0       ??_Eexp_rule@@UAEPAXI@Z    00441ff0 f i expx:exp_rule.obj
 0001:00040ff0       ??_Gexp_rule@@UAEPAXI@Z    00441ff0 f i expx:exp_rule.obj
 0001:00041070       ?_address@ListOfexp_parameter@@UAEPAXXZ 00442070 f   expx:ListOfexp_parameter.obj
 0001:00041080       ?classType@ListOfexp_parameter@@UAEAAVRoseTypePtr@@XZ 00442080 f   expx:ListOfexp_parameter.obj
 0001:00041130       ?ListOfexp_parameter_INIT_FCN@@YAXAAVRoseTypePtr@@@Z 00442130 f   expx:ListOfexp_parameter.obj
 0001:000411f0       ?_data@ListOfexp_parameter@@QAEPAPAVexp_parameter@@XZ 004421f0 f   expx:ListOfexp_parameter.obj
 0001:00041200       ??AListOfexp_parameter@@QAEPAVexp_parameter@@I@Z 00442200 f   expx:ListOfexp_parameter.obj
 0001:00041230       ?get@ListOfexp_parameter@@QAEPAVexp_parameter@@I@Z 00442230 f   expx:ListOfexp_parameter.obj
 0001:00041260       ?first@ListOfexp_parameter@@QAEPAVexp_parameter@@XZ 00442260 f   expx:ListOfexp_parameter.obj
 0001:00041280       ?last@ListOfexp_parameter@@QAEPAVexp_parameter@@XZ 00442280 f   expx:ListOfexp_parameter.obj
 0001:000412b0       ?contains@ListOfexp_parameter@@QAEDPAVexp_parameter@@@Z 004422b0 f   expx:ListOfexp_parameter.obj
 0001:000412d0       ?_element@ListOfexp_parameter@@QAEPAVexp_parameter@@I@Z 004422d0 f   expx:ListOfexp_parameter.obj
 0001:00041320       ?slotType@ListOfexp_parameter@@UAEAAVRoseTypePtr@@PAVRoseAttribute@@I@Z 00442320 f   expx:ListOfexp_parameter.obj
 0001:00041370       ?_address@exp_algorithm@@UAEPAXXZ 00442370 f   expx:exp_algorithm.obj
 0001:00041380       ?classType@exp_algorithm@@UAEAAVRoseTypePtr@@XZ 00442380 f   expx:exp_algorithm.obj
 0001:00041440       ?exp_algorithm_INIT_FCN@@YAXAAVRoseTypePtr@@@Z 00442440 f   expx:exp_algorithm.obj
 0001:00041550       ?body@exp_algorithm@@QAEPAVListOfexp_statement@@XZ 00442550 f   expx:exp_algorithm.obj
 0001:00041620       ??0exp_algorithm@@QAE@XZ   00442620 f   expx:exp_algorithm.obj
 0001:000416b0       ??0exp_algorithm@@QAE@PAVexp_source_file@@HPAVexp_symbol@@PAVexp_scope@@PAVListOfexp_definition@@PAVListOfexp_statement@@@Z 004426b0 f   expx:exp_algorithm.obj
 0001:000417d0       ?_address@exp_algorithm@@$4PPPPPPPM@A@AEPAXXZ 004427d0 f i expx:exp_algorithm.obj
 0001:000417e0       ?classType@exp_algorithm@@$4PPPPPPPM@A@AEAAVRoseTypePtr@@XZ 004427e0 f i expx:exp_algorithm.obj
 0001:000417f0       ??_Eexp_algorithm@@$4PPPPPPPM@A@AEPAXI@Z 004427f0 f i expx:exp_algorithm.obj
 0001:00041800       ??_Gexp_algorithm@@UAEPAXI@Z 00442800 f i expx:exp_algorithm.obj
 0001:00041800       ??_Eexp_algorithm@@UAEPAXI@Z 00442800 f i expx:exp_algorithm.obj
 0001:00041880       ?_address@ListOfexp_statement@@UAEPAXXZ 00442880 f   expx:ListOfexp_statement.obj
 0001:00041890       ?classType@ListOfexp_statement@@UAEAAVRoseTypePtr@@XZ 00442890 f   expx:ListOfexp_statement.obj
 0001:00041940       ?ListOfexp_statement_INIT_FCN@@YAXAAVRoseTypePtr@@@Z 00442940 f   expx:ListOfexp_statement.obj
 0001:00041a00       ?_data@ListOfexp_statement@@QAEPAPAVexp_statement@@XZ 00442a00 f   expx:ListOfexp_statement.obj
 0001:00041a10       ??AListOfexp_statement@@QAEPAVexp_statement@@I@Z 00442a10 f   expx:ListOfexp_statement.obj
 0001:00041a40       ?get@ListOfexp_statement@@QAEPAVexp_statement@@I@Z 00442a40 f   expx:ListOfexp_statement.obj
 0001:00041a70       ?first@ListOfexp_statement@@QAEPAVexp_statement@@XZ 00442a70 f   expx:ListOfexp_statement.obj
 0001:00041a90       ?last@ListOfexp_statement@@QAEPAVexp_statement@@XZ 00442a90 f   expx:ListOfexp_statement.obj
 0001:00041ac0       ?contains@ListOfexp_statement@@QAEDPAVexp_statement@@@Z 00442ac0 f   expx:ListOfexp_statement.obj
 0001:00041ae0       ?_element@ListOfexp_statement@@QAEPAVexp_statement@@I@Z 00442ae0 f   expx:ListOfexp_statement.obj
 0001:00041b30       ?slotType@ListOfexp_statement@@UAEAAVRoseTypePtr@@PAVRoseAttribute@@I@Z 00442b30 f   expx:ListOfexp_statement.obj
 0001:00041b80       ?_address@exp_foreign_ref@@UAEPAXXZ 00442b80 f   expx:exp_foreign_ref.obj
 0001:00041b90       ?classType@exp_foreign_ref@@UAEAAVRoseTypePtr@@XZ 00442b90 f   expx:exp_foreign_ref.obj
 0001:00041c50       ?exp_foreign_ref_INIT_FCN@@YAXAAVRoseTypePtr@@@Z 00442c50 f   expx:exp_foreign_ref.obj
 0001:00041d80       ??0exp_foreign_ref@@QAE@XZ 00442d80 f   expx:exp_foreign_ref.obj
 0001:00041e10       ??0exp_foreign_ref@@QAE@PAVexp_source_file@@HPAVexp_symbol@@PAVexp_scope@@PAVexp_definition@@13@Z 00442e10 f   expx:exp_foreign_ref.obj
 0001:00041f40       ?_address@exp_foreign_ref@@$4PPPPPPPM@A@AEPAXXZ 00442f40 f i expx:exp_foreign_ref.obj
 0001:00041f50       ?classType@exp_foreign_ref@@$4PPPPPPPM@A@AEAAVRoseTypePtr@@XZ 00442f50 f i expx:exp_foreign_ref.obj
 0001:00041f60       ??_Eexp_foreign_ref@@$4PPPPPPPM@A@AEPAXI@Z 00442f60 f i expx:exp_foreign_ref.obj
 0001:00041f70       ??_Gexp_foreign_ref@@UAEPAXI@Z 00442f70 f i expx:exp_foreign_ref.obj
 0001:00041f70       ??_Eexp_foreign_ref@@UAEPAXI@Z 00442f70 f i expx:exp_foreign_ref.obj
 0001:00041fe0       ?_address@exp_schema_imports@@UAEPAXXZ 00442fe0 f   expx:exp_schema_imports.obj
 0001:00041ff0       ?classType@exp_schema_imports@@UAEAAVRoseTypePtr@@XZ 00442ff0 f   expx:exp_schema_imports.obj
 0001:000420b0       ?exp_schema_imports_INIT_FCN@@YAXAAVRoseTypePtr@@@Z 004430b0 f   expx:exp_schema_imports.obj
 0001:000421d0       ?imported_types@exp_schema_imports@@QAEPAVListOfexp_foreign_ref@@XZ 004431d0 f   expx:exp_schema_imports.obj
 0001:000422a0       ??_EListOfexp_foreign_ref@@UAEPAXI@Z 004432a0 f i expx:exp_schema_imports.obj
 0001:000422a0       ??_GListOfexp_foreign_ref@@UAEPAXI@Z 004432a0 f i expx:exp_schema_imports.obj
 0001:000422c0       ??0exp_schema_imports@@QAE@XZ 004432c0 f   expx:exp_schema_imports.obj
 0001:00042340       ??0exp_schema_imports@@QAE@PAVexp_source_file@@HPAVexp_symbol@@PAVexp_scope@@DPAVexp_identifier@@PAVListOfexp_foreign_ref@@@Z 00443340 f   expx:exp_schema_imports.obj
 0001:00042460       ?_address@exp_schema_imports@@$4PPPPPPPM@A@AEPAXXZ 00443460 f i expx:exp_schema_imports.obj
 0001:00042470       ?classType@exp_schema_imports@@$4PPPPPPPM@A@AEAAVRoseTypePtr@@XZ 00443470 f i expx:exp_schema_imports.obj
 0001:00042480       ??_Eexp_schema_imports@@$4PPPPPPPM@A@AEPAXI@Z 00443480 f i expx:exp_schema_imports.obj
 0001:00042490       ??_Eexp_schema_imports@@UAEPAXI@Z 00443490 f i expx:exp_schema_imports.obj
 0001:00042490       ??_Gexp_schema_imports@@UAEPAXI@Z 00443490 f i expx:exp_schema_imports.obj
 0001:00042510       ?_address@ListOfexp_foreign_ref@@UAEPAXXZ 00443510 f   expx:ListOfexp_foreign_ref.obj
 0001:00042520       ?classType@ListOfexp_foreign_ref@@UAEAAVRoseTypePtr@@XZ 00443520 f   expx:ListOfexp_foreign_ref.obj
 0001:000425d0       ?ListOfexp_foreign_ref_INIT_FCN@@YAXAAVRoseTypePtr@@@Z 004435d0 f   expx:ListOfexp_foreign_ref.obj
 0001:00042690       ?_data@ListOfexp_foreign_ref@@QAEPAPAVexp_foreign_ref@@XZ 00443690 f   expx:ListOfexp_foreign_ref.obj
 0001:000426a0       ??AListOfexp_foreign_ref@@QAEPAVexp_foreign_ref@@I@Z 004436a0 f   expx:ListOfexp_foreign_ref.obj
 0001:000426d0       ?get@ListOfexp_foreign_ref@@QAEPAVexp_foreign_ref@@I@Z 004436d0 f   expx:ListOfexp_foreign_ref.obj
 0001:00042700       ?first@ListOfexp_foreign_ref@@QAEPAVexp_foreign_ref@@XZ 00443700 f   expx:ListOfexp_foreign_ref.obj
 0001:00042720       ?last@ListOfexp_foreign_ref@@QAEPAVexp_foreign_ref@@XZ 00443720 f   expx:ListOfexp_foreign_ref.obj
 0001:00042750       ?contains@ListOfexp_foreign_ref@@QAEDPAVexp_foreign_ref@@@Z 00443750 f   expx:ListOfexp_foreign_ref.obj
 0001:00042770       ?_element@ListOfexp_foreign_ref@@QAEPAVexp_foreign_ref@@I@Z 00443770 f   expx:ListOfexp_foreign_ref.obj
 0001:000427c0       ?slotType@ListOfexp_foreign_ref@@UAEAAVRoseTypePtr@@PAVRoseAttribute@@I@Z 004437c0 f   expx:ListOfexp_foreign_ref.obj
 0001:00042810       ?_address@exp_schema_view@@UAEPAXXZ 00443810 f   expx:exp_schema_view.obj
 0001:00042820       ?classType@exp_schema_view@@UAEAAVRoseTypePtr@@XZ 00443820 f   expx:exp_schema_view.obj
 0001:000428e0       ?exp_schema_view_INIT_FCN@@YAXAAVRoseTypePtr@@@Z 004438e0 f   expx:exp_schema_view.obj
 0001:00042a00       ??0exp_schema_view@@QAE@XZ 00443a00 f   expx:exp_schema_view.obj
 0001:00042aa0       ??0exp_schema_view@@QAE@PAVexp_source_file@@HPAVexp_symbol@@PAVexp_scope@@PAVListOfexp_definition@@PAVListOfexp_schema_imports@@@Z 00443aa0 f   expx:exp_schema_view.obj
 0001:00042be0       ?_address@exp_schema_view@@$4PPPPPPPM@A@AEPAXXZ 00443be0 f i expx:exp_schema_view.obj
 0001:00042bf0       ?classType@exp_schema_view@@$4PPPPPPPM@A@AEAAVRoseTypePtr@@XZ 00443bf0 f i expx:exp_schema_view.obj
 0001:00042c00       ??_Eexp_schema_view@@$4PPPPPPPM@A@AEPAXI@Z 00443c00 f i expx:exp_schema_view.obj
 0001:00042c10       ??_Gexp_schema_view@@UAEPAXI@Z 00443c10 f i expx:exp_schema_view.obj
 0001:00042c10       ??_Eexp_schema_view@@UAEPAXI@Z 00443c10 f i expx:exp_schema_view.obj
 0001:00042c80       ?_address@exp_schema_map@@UAEPAXXZ 00443c80 f   expx:exp_schema_map.obj
 0001:00042c90       ?classType@exp_schema_map@@UAEAAVRoseTypePtr@@XZ 00443c90 f   expx:exp_schema_map.obj
 0001:00042d50       ?exp_schema_map_INIT_FCN@@YAXAAVRoseTypePtr@@@Z 00443d50 f   expx:exp_schema_map.obj
 0001:00042e70       ??0exp_schema_map@@QAE@XZ  00443e70 f   expx:exp_schema_map.obj
 0001:00042f10       ??0exp_schema_map@@QAE@PAVexp_source_file@@HPAVexp_symbol@@PAVexp_scope@@PAVListOfexp_definition@@PAVListOfexp_schema_imports@@@Z 00443f10 f   expx:exp_schema_map.obj
 0001:00043050       ?_address@exp_schema_map@@$4PPPPPPPM@A@AEPAXXZ 00444050 f i expx:exp_schema_map.obj
 0001:00043060       ?classType@exp_schema_map@@$4PPPPPPPM@A@AEAAVRoseTypePtr@@XZ 00444060 f i expx:exp_schema_map.obj
 0001:00043070       ??_Eexp_schema_map@@$4PPPPPPPM@A@AEPAXI@Z 00444070 f i expx:exp_schema_map.obj
 0001:00043080       ??_Gexp_schema_map@@UAEPAXI@Z 00444080 f i expx:exp_schema_map.obj
 0001:00043080       ??_Eexp_schema_map@@UAEPAXI@Z 00444080 f i expx:exp_schema_map.obj
 0001:000430f0       ?_address@exp_schema@@UAEPAXXZ 004440f0 f   expx:exp_schema.obj
 0001:00043100       ?classType@exp_schema@@UAEAAVRoseTypePtr@@XZ 00444100 f   expx:exp_schema.obj
 0001:000431c0       ?exp_schema_INIT_FCN@@YAXAAVRoseTypePtr@@@Z 004441c0 f   expx:exp_schema.obj
 0001:000432d0       ?imports@exp_schema@@QAEPAVListOfexp_schema_imports@@XZ 004442d0 f   expx:exp_schema.obj
 0001:000433a0       ??_GListOfexp_schema_imports@@UAEPAXI@Z 004443a0 f i expx:exp_schema.obj
 0001:000433a0       ??_EListOfexp_schema_imports@@UAEPAXI@Z 004443a0 f i expx:exp_schema.obj
 0001:000433c0       ??0exp_schema@@QAE@XZ      004443c0 f   expx:exp_schema.obj
 0001:00043450       ??0exp_schema@@QAE@PAVexp_source_file@@HPAVexp_symbol@@PAVexp_scope@@PAVListOfexp_definition@@PAVListOfexp_schema_imports@@@Z 00444450 f   expx:exp_schema.obj
 0001:00043570       ?_address@exp_schema@@$4PPPPPPPM@A@AEPAXXZ 00444570 f i expx:exp_schema.obj
 0001:00043580       ?classType@exp_schema@@$4PPPPPPPM@A@AEAAVRoseTypePtr@@XZ 00444580 f i expx:exp_schema.obj
 0001:00043590       ??_Eexp_schema@@$4PPPPPPPM@A@AEPAXI@Z 00444590 f i expx:exp_schema.obj
 0001:000435a0       ??_Gexp_schema@@UAEPAXI@Z  004445a0 f i expx:exp_schema.obj
 0001:000435a0       ??_Eexp_schema@@UAEPAXI@Z  004445a0 f i expx:exp_schema.obj
 0001:00043620       ?_address@ListOfexp_schema_imports@@UAEPAXXZ 00444620 f   expx:ListOfexp_schema_imports.obj
 0001:00043630       ?classType@ListOfexp_schema_imports@@UAEAAVRoseTypePtr@@XZ 00444630 f   expx:ListOfexp_schema_imports.obj
 0001:000436e0       ?ListOfexp_schema_imports_INIT_FCN@@YAXAAVRoseTypePtr@@@Z 004446e0 f   expx:ListOfexp_schema_imports.obj
 0001:000437a0       ?_data@ListOfexp_schema_imports@@QAEPAPAVexp_schema_imports@@XZ 004447a0 f   expx:ListOfexp_schema_imports.obj
 0001:000437b0       ??AListOfexp_schema_imports@@QAEPAVexp_schema_imports@@I@Z 004447b0 f   expx:ListOfexp_schema_imports.obj
 0001:000437e0       ?get@ListOfexp_schema_imports@@QAEPAVexp_schema_imports@@I@Z 004447e0 f   expx:ListOfexp_schema_imports.obj
 0001:00043810       ?first@ListOfexp_schema_imports@@QAEPAVexp_schema_imports@@XZ 00444810 f   expx:ListOfexp_schema_imports.obj
 0001:00043830       ?last@ListOfexp_schema_imports@@QAEPAVexp_schema_imports@@XZ 00444830 f   expx:ListOfexp_schema_imports.obj
 0001:00043860       ?contains@ListOfexp_schema_imports@@QAEDPAVexp_schema_imports@@@Z 00444860 f   expx:ListOfexp_schema_imports.obj
 0001:00043880       ?_element@ListOfexp_schema_imports@@QAEPAVexp_schema_imports@@I@Z 00444880 f   expx:ListOfexp_schema_imports.obj
 0001:000438d0       ?slotType@ListOfexp_schema_imports@@UAEAAVRoseTypePtr@@PAVRoseAttribute@@I@Z 004448d0 f   expx:ListOfexp_schema_imports.obj
 0001:00043920       ?_address@exp_entity@@UAEPAXXZ 00444920 f   expx:exp_entity.obj
 0001:00043930       ?classType@exp_entity@@UAEAAVRoseTypePtr@@XZ 00444930 f   expx:exp_entity.obj
 0001:000439f0       ?exp_entity_INIT_FCN@@YAXAAVRoseTypePtr@@@Z 004449f0 f   expx:exp_entity.obj
 0001:00043bd0       ?supertypes@exp_entity@@QAEPAVListOfexp_identifier@@XZ 00444bd0 f   expx:exp_entity.obj
 0001:00043ca0       ??_EListOfexp_identifier@@UAEPAXI@Z 00444ca0 f i expx:exp_entity.obj
 0001:00043ca0       ??_GListOfexp_identifier@@UAEPAXI@Z 00444ca0 f i expx:exp_entity.obj
 0001:00043cc0       ?subtypes@exp_entity@@QAEPAVListOfexp_entity@@XZ 00444cc0 f   expx:exp_entity.obj
 0001:00043d90       ??_EListOfexp_entity@@UAEPAXI@Z 00444d90 f i expx:exp_entity.obj
 0001:00043d90       ??_GListOfexp_entity@@UAEPAXI@Z 00444d90 f i expx:exp_entity.obj
 0001:00043db0       ?explicit_atts@exp_entity@@QAEPAVListOfexp_explicit@@XZ 00444db0 f   expx:exp_entity.obj
 0001:00043e80       ??_GListOfexp_explicit@@UAEPAXI@Z 00444e80 f i expx:exp_entity.obj
 0001:00043e80       ??_EListOfexp_explicit@@UAEPAXI@Z 00444e80 f i expx:exp_entity.obj
 0001:00043ea0       ?derived_atts@exp_entity@@QAEPAVListOfexp_derived@@XZ 00444ea0 f   expx:exp_entity.obj
 0001:00043f70       ?unique_atts@exp_entity@@QAEPAVListOfexp_unique@@XZ 00444f70 f   expx:exp_entity.obj
 0001:00044040       ?inverse_atts@exp_entity@@QAEPAVListOfexp_inverse@@XZ 00445040 f   expx:exp_entity.obj
 0001:00044110       ??0exp_entity@@QAE@XZ      00445110 f   expx:exp_entity.obj
 0001:000441c0       ??0exp_entity@@QAE@PAVexp_source_file@@HPAVexp_symbol@@PAVexp_scope@@PAVListOfexp_definition@@PAVListOfexp_where_clause@@PAVListOfexp_identifier@@PAVListOfexp_entity@@PAVexp_expression@@PAVListOfexp_explicit@@PAVListOfexp_derived@@PAVListOfexp_unique@@PAVListOfexp_inverse@@D@Z 004451c0 f   expx:exp_entity.obj
 0001:00044390       ?_address@exp_entity@@$4PPPPPPPM@A@AEPAXXZ 00445390 f i expx:exp_entity.obj
 0001:000443a0       ?classType@exp_entity@@$4PPPPPPPM@A@AEAAVRoseTypePtr@@XZ 004453a0 f i expx:exp_entity.obj
 0001:000443b0       ??_Eexp_entity@@$4PPPPPPPM@A@AEPAXI@Z 004453b0 f i expx:exp_entity.obj
 0001:000443c0       ??_Eexp_entity@@UAEPAXI@Z  004453c0 f i expx:exp_entity.obj
 0001:000443c0       ??_Gexp_entity@@UAEPAXI@Z  004453c0 f i expx:exp_entity.obj
 0001:00044440       ?_address@ListOfexp_inverse@@UAEPAXXZ 00445440 f   expx:ListOfexp_inverse.obj
 0001:00044450       ?classType@ListOfexp_inverse@@UAEAAVRoseTypePtr@@XZ 00445450 f   expx:ListOfexp_inverse.obj
 0001:00044500       ?ListOfexp_inverse_INIT_FCN@@YAXAAVRoseTypePtr@@@Z 00445500 f   expx:ListOfexp_inverse.obj
 0001:000445c0       ?_data@ListOfexp_inverse@@QAEPAPAVexp_inverse@@XZ 004455c0 f   expx:ListOfexp_inverse.obj
 0001:000445d0       ??AListOfexp_inverse@@QAEPAVexp_inverse@@I@Z 004455d0 f   expx:ListOfexp_inverse.obj
 0001:00044600       ?get@ListOfexp_inverse@@QAEPAVexp_inverse@@I@Z 00445600 f   expx:ListOfexp_inverse.obj
 0001:00044630       ?first@ListOfexp_inverse@@QAEPAVexp_inverse@@XZ 00445630 f   expx:ListOfexp_inverse.obj
 0001:00044650       ?last@ListOfexp_inverse@@QAEPAVexp_inverse@@XZ 00445650 f   expx:ListOfexp_inverse.obj
 0001:00044680       ?contains@ListOfexp_inverse@@QAEDPAVexp_inverse@@@Z 00445680 f   expx:ListOfexp_inverse.obj
 0001:000446a0       ?_element@ListOfexp_inverse@@QAEPAVexp_inverse@@I@Z 004456a0 f   expx:ListOfexp_inverse.obj
 0001:000446f0       ?slotType@ListOfexp_inverse@@UAEAAVRoseTypePtr@@PAVRoseAttribute@@I@Z 004456f0 f   expx:ListOfexp_inverse.obj
 0001:00044750       ?_address@ListOfexp_unique@@UAEPAXXZ 00445750 f   expx:ListOfexp_unique.obj
 0001:00044760       ?classType@ListOfexp_unique@@UAEAAVRoseTypePtr@@XZ 00445760 f   expx:ListOfexp_unique.obj
 0001:00044810       ?ListOfexp_unique_INIT_FCN@@YAXAAVRoseTypePtr@@@Z 00445810 f   expx:ListOfexp_unique.obj
 0001:000448d0       ?_data@ListOfexp_unique@@QAEPAPAVexp_unique@@XZ 004458d0 f   expx:ListOfexp_unique.obj
 0001:000448e0       ??AListOfexp_unique@@QAEPAVexp_unique@@I@Z 004458e0 f   expx:ListOfexp_unique.obj
 0001:00044910       ?get@ListOfexp_unique@@QAEPAVexp_unique@@I@Z 00445910 f   expx:ListOfexp_unique.obj
 0001:00044940       ?first@ListOfexp_unique@@QAEPAVexp_unique@@XZ 00445940 f   expx:ListOfexp_unique.obj
 0001:00044960       ?last@ListOfexp_unique@@QAEPAVexp_unique@@XZ 00445960 f   expx:ListOfexp_unique.obj
 0001:00044990       ?contains@ListOfexp_unique@@QAEDPAVexp_unique@@@Z 00445990 f   expx:ListOfexp_unique.obj
 0001:000449b0       ?_element@ListOfexp_unique@@QAEPAVexp_unique@@I@Z 004459b0 f   expx:ListOfexp_unique.obj
 0001:00044a00       ?slotType@ListOfexp_unique@@UAEAAVRoseTypePtr@@PAVRoseAttribute@@I@Z 00445a00 f   expx:ListOfexp_unique.obj
 0001:00044a60       ?_address@ListOfexp_derived@@UAEPAXXZ 00445a60 f   expx:ListOfexp_derived.obj
 0001:00044a70       ?classType@ListOfexp_derived@@UAEAAVRoseTypePtr@@XZ 00445a70 f   expx:ListOfexp_derived.obj
 0001:00044b20       ?ListOfexp_derived_INIT_FCN@@YAXAAVRoseTypePtr@@@Z 00445b20 f   expx:ListOfexp_derived.obj
 0001:00044be0       ?_data@ListOfexp_derived@@QAEPAPAVexp_derived@@XZ 00445be0 f   expx:ListOfexp_derived.obj
 0001:00044bf0       ??AListOfexp_derived@@QAEPAVexp_derived@@I@Z 00445bf0 f   expx:ListOfexp_derived.obj
 0001:00044c20       ?get@ListOfexp_derived@@QAEPAVexp_derived@@I@Z 00445c20 f   expx:ListOfexp_derived.obj
 0001:00044c50       ?first@ListOfexp_derived@@QAEPAVexp_derived@@XZ 00445c50 f   expx:ListOfexp_derived.obj
 0001:00044c70       ?last@ListOfexp_derived@@QAEPAVexp_derived@@XZ 00445c70 f   expx:ListOfexp_derived.obj
 0001:00044ca0       ?contains@ListOfexp_derived@@QAEDPAVexp_derived@@@Z 00445ca0 f   expx:ListOfexp_derived.obj
 0001:00044cc0       ?_element@ListOfexp_derived@@QAEPAVexp_derived@@I@Z 00445cc0 f   expx:ListOfexp_derived.obj
 0001:00044d10       ?slotType@ListOfexp_derived@@UAEAAVRoseTypePtr@@PAVRoseAttribute@@I@Z 00445d10 f   expx:ListOfexp_derived.obj
 0001:00044d70       ?_address@ListOfexp_explicit@@UAEPAXXZ 00445d70 f   expx:ListOfexp_explicit.obj
 0001:00044d80       ?classType@ListOfexp_explicit@@UAEAAVRoseTypePtr@@XZ 00445d80 f   expx:ListOfexp_explicit.obj
 0001:00044e30       ?ListOfexp_explicit_INIT_FCN@@YAXAAVRoseTypePtr@@@Z 00445e30 f   expx:ListOfexp_explicit.obj
 0001:00044ef0       ?_data@ListOfexp_explicit@@QAEPAPAVexp_explicit@@XZ 00445ef0 f   expx:ListOfexp_explicit.obj
 0001:00044f00       ??AListOfexp_explicit@@QAEPAVexp_explicit@@I@Z 00445f00 f   expx:ListOfexp_explicit.obj
 0001:00044f30       ?get@ListOfexp_explicit@@QAEPAVexp_explicit@@I@Z 00445f30 f   expx:ListOfexp_explicit.obj
 0001:00044f60       ?first@ListOfexp_explicit@@QAEPAVexp_explicit@@XZ 00445f60 f   expx:ListOfexp_explicit.obj
 0001:00044f80       ?last@ListOfexp_explicit@@QAEPAVexp_explicit@@XZ 00445f80 f   expx:ListOfexp_explicit.obj
 0001:00044fb0       ?contains@ListOfexp_explicit@@QAEDPAVexp_explicit@@@Z 00445fb0 f   expx:ListOfexp_explicit.obj
 0001:00044fd0       ?_element@ListOfexp_explicit@@QAEPAVexp_explicit@@I@Z 00445fd0 f   expx:ListOfexp_explicit.obj
 0001:00045020       ?slotType@ListOfexp_explicit@@UAEAAVRoseTypePtr@@PAVRoseAttribute@@I@Z 00446020 f   expx:ListOfexp_explicit.obj
 0001:00045080       ?_address@ListOfexp_entity@@UAEPAXXZ 00446080 f   expx:ListOfexp_entity.obj
 0001:00045090       ?classType@ListOfexp_entity@@UAEAAVRoseTypePtr@@XZ 00446090 f   expx:ListOfexp_entity.obj
 0001:00045140       ?ListOfexp_entity_INIT_FCN@@YAXAAVRoseTypePtr@@@Z 00446140 f   expx:ListOfexp_entity.obj
 0001:00045200       ?_data@ListOfexp_entity@@QAEPAPAVexp_entity@@XZ 00446200 f   expx:ListOfexp_entity.obj
 0001:00045210       ??AListOfexp_entity@@QAEPAVexp_entity@@I@Z 00446210 f   expx:ListOfexp_entity.obj
 0001:00045240       ?get@ListOfexp_entity@@QAEPAVexp_entity@@I@Z 00446240 f   expx:ListOfexp_entity.obj
 0001:00045270       ?first@ListOfexp_entity@@QAEPAVexp_entity@@XZ 00446270 f   expx:ListOfexp_entity.obj
 0001:00045290       ?last@ListOfexp_entity@@QAEPAVexp_entity@@XZ 00446290 f   expx:ListOfexp_entity.obj
 0001:000452c0       ?contains@ListOfexp_entity@@QAEDPAVexp_entity@@@Z 004462c0 f   expx:ListOfexp_entity.obj
 0001:000452e0       ?_element@ListOfexp_entity@@QAEPAVexp_entity@@I@Z 004462e0 f   expx:ListOfexp_entity.obj
 0001:00045330       ?slotType@ListOfexp_entity@@UAEAAVRoseTypePtr@@PAVRoseAttribute@@I@Z 00446330 f   expx:ListOfexp_entity.obj
 0001:00045380       ?_address@exp_enum_value@@UAEPAXXZ 00446380 f   expx:exp_enum_value.obj
 0001:00045390       ?classType@exp_enum_value@@UAEAAVRoseTypePtr@@XZ 00446390 f   expx:exp_enum_value.obj
 0001:00045450       ?exp_enum_value_INIT_FCN@@YAXAAVRoseTypePtr@@@Z 00446450 f   expx:exp_enum_value.obj
 0001:00045560       ??0exp_enum_value@@QAE@XZ  00446560 f   expx:exp_enum_value.obj
 0001:000455f0       ??0exp_enum_value@@QAE@PAVexp_source_file@@HPAVexp_symbol@@PAVexp_scope@@PAVexp_definition@@H@Z 004465f0 f   expx:exp_enum_value.obj
 0001:00045710       ?_address@exp_enum_value@@$4PPPPPPPM@A@AEPAXXZ 00446710 f i expx:exp_enum_value.obj
 0001:00045720       ?classType@exp_enum_value@@$4PPPPPPPM@A@AEAAVRoseTypePtr@@XZ 00446720 f i expx:exp_enum_value.obj
 0001:00045730       ??_Eexp_enum_value@@$4PPPPPPPM@A@AEPAXI@Z 00446730 f i expx:exp_enum_value.obj
 0001:00045740       ??_Gexp_enum_value@@UAEPAXI@Z 00446740 f i expx:exp_enum_value.obj
 0001:00045740       ??_Eexp_enum_value@@UAEPAXI@Z 00446740 f i expx:exp_enum_value.obj
 0001:000457b0       ?_address@exp_enum_item@@UAEPAXXZ 004467b0 f   expx:exp_enum_item.obj
 0001:000457c0       ?classType@exp_enum_item@@UAEAAVRoseTypePtr@@XZ 004467c0 f   expx:exp_enum_item.obj
 0001:00045880       ?exp_enum_item_INIT_FCN@@YAXAAVRoseTypePtr@@@Z 00446880 f   expx:exp_enum_item.obj
 0001:00045970       ?used_by@exp_enum_item@@QAEPAVListOfexp_enum_value@@XZ 00446970 f   expx:exp_enum_item.obj
 0001:00045a40       ??_GListOfexp_enum_value@@UAEPAXI@Z 00446a40 f i expx:exp_enum_item.obj
 0001:00045a40       ??_EListOfexp_enum_value@@UAEPAXI@Z 00446a40 f i expx:exp_enum_item.obj
 0001:00045a60       ??0exp_enum_item@@QAE@XZ   00446a60 f   expx:exp_enum_item.obj
 0001:00045ae0       ??0exp_enum_item@@QAE@PAVexp_source_file@@HPAVexp_symbol@@PAVexp_scope@@PAVListOfexp_enum_value@@@Z 00446ae0 f   expx:exp_enum_item.obj
 0001:00045bd0       ?_address@exp_enum_item@@$4PPPPPPPM@A@AEPAXXZ 00446bd0 f i expx:exp_enum_item.obj
 0001:00045be0       ?classType@exp_enum_item@@$4PPPPPPPM@A@AEAAVRoseTypePtr@@XZ 00446be0 f i expx:exp_enum_item.obj
 0001:00045bf0       ??_Eexp_enum_item@@$4PPPPPPPM@A@AEPAXI@Z 00446bf0 f i expx:exp_enum_item.obj
 0001:00045c00       ??_Eexp_enum_item@@UAEPAXI@Z 00446c00 f i expx:exp_enum_item.obj
 0001:00045c00       ??_Gexp_enum_item@@UAEPAXI@Z 00446c00 f i expx:exp_enum_item.obj
 0001:00045c80       ?_address@ListOfexp_enum_value@@UAEPAXXZ 00446c80 f   expx:ListOfexp_enum_value.obj
 0001:00045c90       ?classType@ListOfexp_enum_value@@UAEAAVRoseTypePtr@@XZ 00446c90 f   expx:ListOfexp_enum_value.obj
 0001:00045d40       ?ListOfexp_enum_value_INIT_FCN@@YAXAAVRoseTypePtr@@@Z 00446d40 f   expx:ListOfexp_enum_value.obj
 0001:00045e00       ?_data@ListOfexp_enum_value@@QAEPAPAVexp_enum_value@@XZ 00446e00 f   expx:ListOfexp_enum_value.obj
 0001:00045e10       ??AListOfexp_enum_value@@QAEPAVexp_enum_value@@I@Z 00446e10 f   expx:ListOfexp_enum_value.obj
 0001:00045e40       ?get@ListOfexp_enum_value@@QAEPAVexp_enum_value@@I@Z 00446e40 f   expx:ListOfexp_enum_value.obj
 0001:00045e70       ?first@ListOfexp_enum_value@@QAEPAVexp_enum_value@@XZ 00446e70 f   expx:ListOfexp_enum_value.obj
 0001:00045e90       ?last@ListOfexp_enum_value@@QAEPAVexp_enum_value@@XZ 00446e90 f   expx:ListOfexp_enum_value.obj
 0001:00045ec0       ?contains@ListOfexp_enum_value@@QAEDPAVexp_enum_value@@@Z 00446ec0 f   expx:ListOfexp_enum_value.obj
 0001:00045ee0       ?_element@ListOfexp_enum_value@@QAEPAVexp_enum_value@@I@Z 00446ee0 f   expx:ListOfexp_enum_value.obj
 0001:00045f30       ?slotType@ListOfexp_enum_value@@UAEAAVRoseTypePtr@@PAVRoseAttribute@@I@Z 00446f30 f   expx:ListOfexp_enum_value.obj
 0001:00045f80       ?_address@exp_enum@@UAEPAXXZ 00446f80 f   expx:exp_enum.obj
 0001:00045f90       ?classType@exp_enum@@UAEAAVRoseTypePtr@@XZ 00446f90 f   expx:exp_enum.obj
 0001:00046050       ?exp_enum_INIT_FCN@@YAXAAVRoseTypePtr@@@Z 00447050 f   expx:exp_enum.obj
 0001:00046220       ?enumerators@exp_enum@@QAEPAVListOfexp_enum_item@@XZ 00447220 f   expx:exp_enum.obj
 0001:000462f0       ??_EListOfexp_enum_item@@UAEPAXI@Z 004472f0 f i expx:exp_enum.obj
 0001:000462f0       ??_GListOfexp_enum_item@@UAEPAXI@Z 004472f0 f i expx:exp_enum.obj
 0001:00046310       ??0exp_enum@@QAE@XZ        00447310 f   expx:exp_enum.obj
 0001:000463c0       ??0exp_enum@@QAE@PAVexp_source_file@@HPAVexp_symbol@@PAVexp_scope@@PAVexp_definition@@PAVListOfexp_enum_item@@@Z 004473c0 f   expx:exp_enum.obj
 0001:00046500       ?_address@exp_enum@@$4PPPPPPPM@A@AEPAXXZ 00447500 f i expx:exp_enum.obj
 0001:00046510       ?classType@exp_enum@@$4PPPPPPPM@A@AEAAVRoseTypePtr@@XZ 00447510 f i expx:exp_enum.obj
 0001:00046520       ??_Eexp_enum@@$4PPPPPPPM@A@AEPAXI@Z 00447520 f i expx:exp_enum.obj
 0001:00046530       ??_Gexp_enum@@UAEPAXI@Z    00447530 f i expx:exp_enum.obj
 0001:00046530       ??_Eexp_enum@@UAEPAXI@Z    00447530 f i expx:exp_enum.obj
 0001:000465b0       ?_address@ListOfexp_enum_item@@UAEPAXXZ 004475b0 f   expx:ListOfexp_enum_item.obj
 0001:000465c0       ?classType@ListOfexp_enum_item@@UAEAAVRoseTypePtr@@XZ 004475c0 f   expx:ListOfexp_enum_item.obj
 0001:00046670       ?ListOfexp_enum_item_INIT_FCN@@YAXAAVRoseTypePtr@@@Z 00447670 f   expx:ListOfexp_enum_item.obj
 0001:00046730       ?_data@ListOfexp_enum_item@@QAEPAPAVexp_enum_item@@XZ 00447730 f   expx:ListOfexp_enum_item.obj
 0001:00046740       ??AListOfexp_enum_item@@QAEPAVexp_enum_item@@I@Z 00447740 f   expx:ListOfexp_enum_item.obj
 0001:00046770       ?get@ListOfexp_enum_item@@QAEPAVexp_enum_item@@I@Z 00447770 f   expx:ListOfexp_enum_item.obj
 0001:000467a0       ?first@ListOfexp_enum_item@@QAEPAVexp_enum_item@@XZ 004477a0 f   expx:ListOfexp_enum_item.obj
 0001:000467c0       ?last@ListOfexp_enum_item@@QAEPAVexp_enum_item@@XZ 004477c0 f   expx:ListOfexp_enum_item.obj
 0001:000467f0       ?contains@ListOfexp_enum_item@@QAEDPAVexp_enum_item@@@Z 004477f0 f   expx:ListOfexp_enum_item.obj
 0001:00046810       ?_element@ListOfexp_enum_item@@QAEPAVexp_enum_item@@I@Z 00447810 f   expx:ListOfexp_enum_item.obj
 0001:00046860       ?slotType@ListOfexp_enum_item@@UAEAAVRoseTypePtr@@PAVRoseAttribute@@I@Z 00447860 f   expx:ListOfexp_enum_item.obj
 0001:000468b0       ?_address@exp_select@@UAEPAXXZ 004478b0 f   expx:exp_select.obj
 0001:000468c0       ?classType@exp_select@@UAEAAVRoseTypePtr@@XZ 004478c0 f   expx:exp_select.obj
 0001:00046980       ?exp_select_INIT_FCN@@YAXAAVRoseTypePtr@@@Z 00447980 f   expx:exp_select.obj
 0001:00046b50       ?base_types@exp_select@@QAEPAVListOfexp_identifier@@XZ 00447b50 f   expx:exp_select.obj
 0001:00046c20       ??0exp_select@@QAE@XZ      00447c20 f   expx:exp_select.obj
 0001:00046cd0       ??0exp_select@@QAE@PAVexp_source_file@@HPAVexp_symbol@@PAVexp_scope@@PAVexp_definition@@PAVListOfexp_identifier@@@Z 00447cd0 f   expx:exp_select.obj
 0001:00046e10       ?_address@exp_select@@$4PPPPPPPM@A@AEPAXXZ 00447e10 f i expx:exp_select.obj
 0001:00046e20       ?classType@exp_select@@$4PPPPPPPM@A@AEAAVRoseTypePtr@@XZ 00447e20 f i expx:exp_select.obj
 0001:00046e30       ??_Eexp_select@@$4PPPPPPPM@A@AEPAXI@Z 00447e30 f i expx:exp_select.obj
 0001:00046e40       ??_Eexp_select@@UAEPAXI@Z  00447e40 f i expx:exp_select.obj
 0001:00046e40       ??_Gexp_select@@UAEPAXI@Z  00447e40 f i expx:exp_select.obj
 0001:00046ec0       ?_address@ListOfexp_identifier@@UAEPAXXZ 00447ec0 f   expx:ListOfexp_identifier.obj
 0001:00046ed0       ?classType@ListOfexp_identifier@@UAEAAVRoseTypePtr@@XZ 00447ed0 f   expx:ListOfexp_identifier.obj
 0001:00046f80       ?ListOfexp_identifier_INIT_FCN@@YAXAAVRoseTypePtr@@@Z 00447f80 f   expx:ListOfexp_identifier.obj
 0001:00047040       ?_data@ListOfexp_identifier@@QAEPAPAVexp_identifier@@XZ 00448040 f   expx:ListOfexp_identifier.obj
 0001:00047050       ??AListOfexp_identifier@@QAEPAVexp_identifier@@I@Z 00448050 f   expx:ListOfexp_identifier.obj
 0001:00047080       ?get@ListOfexp_identifier@@QAEPAVexp_identifier@@I@Z 00448080 f   expx:ListOfexp_identifier.obj
 0001:000470b0       ?first@ListOfexp_identifier@@QAEPAVexp_identifier@@XZ 004480b0 f   expx:ListOfexp_identifier.obj
 0001:000470d0       ?last@ListOfexp_identifier@@QAEPAVexp_identifier@@XZ 004480d0 f   expx:ListOfexp_identifier.obj
 0001:00047100       ?contains@ListOfexp_identifier@@QAEDPAVexp_identifier@@@Z 00448100 f   expx:ListOfexp_identifier.obj
 0001:00047120       ?_element@ListOfexp_identifier@@QAEPAVexp_identifier@@I@Z 00448120 f   expx:ListOfexp_identifier.obj
 0001:00047170       ?slotType@ListOfexp_identifier@@UAEAAVRoseTypePtr@@PAVRoseAttribute@@I@Z 00448170 f   expx:ListOfexp_identifier.obj
 0001:000471c0       ?_address@exp_defined_type@@UAEPAXXZ 004481c0 f   expx:exp_defined_type.obj
 0001:000471d0       ?classType@exp_defined_type@@UAEAAVRoseTypePtr@@XZ 004481d0 f   expx:exp_defined_type.obj
 0001:00047290       ?exp_defined_type_INIT_FCN@@YAXAAVRoseTypePtr@@@Z 00448290 f   expx:exp_defined_type.obj
 0001:000473d0       ??0exp_defined_type@@QAE@XZ 004483d0 f   expx:exp_defined_type.obj
 0001:00047470       ??0exp_defined_type@@QAE@PAVexp_source_file@@HPAVexp_symbol@@PAVexp_scope@@PAVListOfexp_definition@@PAVListOfexp_where_clause@@PAVexp_type_ref@@@Z 00448470 f   expx:exp_defined_type.obj
 0001:000475c0       ?_address@exp_defined_type@@$4PPPPPPPM@A@AEPAXXZ 004485c0 f i expx:exp_defined_type.obj
 0001:000475d0       ?classType@exp_defined_type@@$4PPPPPPPM@A@AEAAVRoseTypePtr@@XZ 004485d0 f i expx:exp_defined_type.obj
 0001:000475e0       ??_Eexp_defined_type@@$4PPPPPPPM@A@AEPAXI@Z 004485e0 f i expx:exp_defined_type.obj
 0001:000475f0       ??_Gexp_defined_type@@UAEPAXI@Z 004485f0 f i expx:exp_defined_type.obj
 0001:000475f0       ??_Eexp_defined_type@@UAEPAXI@Z 004485f0 f i expx:exp_defined_type.obj
 0001:00047660       ?_address@exp_constructed_type@@UAEPAXXZ 00448660 f   expx:exp_constructed_type.obj
 0001:00047670       ?classType@exp_constructed_type@@UAEAAVRoseTypePtr@@XZ 00448670 f   expx:exp_constructed_type.obj
 0001:00047730       ?exp_constructed_type_INIT_FCN@@YAXAAVRoseTypePtr@@@Z 00448730 f   expx:exp_constructed_type.obj
 0001:000478c0       ??0exp_constructed_type@@QAE@XZ 004488c0 f   expx:exp_constructed_type.obj
 0001:00047960       ??0exp_constructed_type@@QAE@PAVexp_source_file@@HPAVexp_symbol@@PAVexp_scope@@PAVexp_definition@@@Z 00448960 f   expx:exp_constructed_type.obj
 0001:00047a80       ?_address@exp_constructed_type@@$4PPPPPPPM@A@AEPAXXZ 00448a80 f i expx:exp_constructed_type.obj
 0001:00047a90       ?classType@exp_constructed_type@@$4PPPPPPPM@A@AEAAVRoseTypePtr@@XZ 00448a90 f i expx:exp_constructed_type.obj
 0001:00047aa0       ??_Eexp_constructed_type@@$4PPPPPPPM@A@AEPAXI@Z 00448aa0 f i expx:exp_constructed_type.obj
 0001:00047ab0       ??_Gexp_constructed_type@@UAEPAXI@Z 00448ab0 f i expx:exp_constructed_type.obj
 0001:00047ab0       ??_Eexp_constructed_type@@UAEPAXI@Z 00448ab0 f i expx:exp_constructed_type.obj
 0001:00047b20       ?_address@exp_type_ref@@UAEPAXXZ 00448b20 f   expx:exp_type_ref.obj
 0001:00047b30       ?classType@exp_type_ref@@UAEAAVRoseTypePtr@@XZ 00448b30 f   expx:exp_type_ref.obj
 0001:00047bf0       ?exp_type_ref_INIT_FCN@@YAXAAVRoseTypePtr@@@Z 00448bf0 f   expx:exp_type_ref.obj
 0001:00047c80       ??0exp_type_ref@@QAE@XZ    00448c80 f   expx:exp_type_ref.obj
 0001:00047cd0       ?_address@exp_type_ref@@$4PPPPPPPM@A@AEPAXXZ 00448cd0 f i expx:exp_type_ref.obj
 0001:00047ce0       ?classType@exp_type_ref@@$4PPPPPPPM@A@AEAAVRoseTypePtr@@XZ 00448ce0 f i expx:exp_type_ref.obj
 0001:00047cf0       ??_Eexp_type_ref@@$4PPPPPPPM@A@AEPAXI@Z 00448cf0 f i expx:exp_type_ref.obj
 0001:00047d00       ??_Gexp_type_ref@@UAEPAXI@Z 00448d00 f i expx:exp_type_ref.obj
 0001:00047d00       ??_Eexp_type_ref@@UAEPAXI@Z 00448d00 f i expx:exp_type_ref.obj
 0001:00047d70       ?_address@exp_property@@UAEPAXXZ 00448d70 f   expx:exp_property.obj
 0001:00047d80       ?classType@exp_property@@UAEAAVRoseTypePtr@@XZ 00448d80 f   expx:exp_property.obj
 0001:00047e40       ?exp_property_INIT_FCN@@YAXAAVRoseTypePtr@@@Z 00448e40 f   expx:exp_property.obj
 0001:00047f30       ??0exp_property@@QAE@XZ    00448f30 f   expx:exp_property.obj
 0001:00047fb0       ??0exp_property@@QAE@PAVexp_source_file@@HPAVexp_symbol@@PAVexp_scope@@PAVexp_definition@@@Z 00448fb0 f   expx:exp_property.obj
 0001:000480a0       ?_address@exp_property@@$4PPPPPPPM@A@AEPAXXZ 004490a0 f i expx:exp_property.obj
 0001:000480b0       ?classType@exp_property@@$4PPPPPPPM@A@AEAAVRoseTypePtr@@XZ 004490b0 f i expx:exp_property.obj
 0001:000480c0       ??_Eexp_property@@$4PPPPPPPM@A@AEPAXI@Z 004490c0 f i expx:exp_property.obj
 0001:000480d0       ??_Eexp_property@@UAEPAXI@Z 004490d0 f i expx:exp_property.obj
 0001:000480d0       ??_Gexp_property@@UAEPAXI@Z 004490d0 f i expx:exp_property.obj
 0001:00048140       ?_address@exp_named_type@@UAEPAXXZ 00449140 f   expx:exp_named_type.obj
 0001:00048150       ?classType@exp_named_type@@UAEAAVRoseTypePtr@@XZ 00449150 f   expx:exp_named_type.obj
 0001:00048210       ?exp_named_type_INIT_FCN@@YAXAAVRoseTypePtr@@@Z 00449210 f   expx:exp_named_type.obj
 0001:00048320       ?constraints@exp_named_type@@QAEPAVListOfexp_where_clause@@XZ 00449320 f   expx:exp_named_type.obj
 0001:000483f0       ??0exp_named_type@@QAE@XZ  004493f0 f   expx:exp_named_type.obj
 0001:00048480       ??0exp_named_type@@QAE@PAVexp_source_file@@HPAVexp_symbol@@PAVexp_scope@@PAVListOfexp_definition@@PAVListOfexp_where_clause@@@Z 00449480 f   expx:exp_named_type.obj
 0001:000485a0       ?_address@exp_named_type@@$4PPPPPPPM@A@AEPAXXZ 004495a0 f i expx:exp_named_type.obj
 0001:000485b0       ?classType@exp_named_type@@$4PPPPPPPM@A@AEAAVRoseTypePtr@@XZ 004495b0 f i expx:exp_named_type.obj
 0001:000485c0       ??_Eexp_named_type@@$4PPPPPPPM@A@AEPAXI@Z 004495c0 f i expx:exp_named_type.obj
 0001:000485d0       ??_Eexp_named_type@@UAEPAXI@Z 004495d0 f i expx:exp_named_type.obj
 0001:000485d0       ??_Gexp_named_type@@UAEPAXI@Z 004495d0 f i expx:exp_named_type.obj
 0001:00048650       ?_address@ListOfexp_where_clause@@UAEPAXXZ 00449650 f   expx:ListOfexp_where_clause.obj
 0001:00048660       ?classType@ListOfexp_where_clause@@UAEAAVRoseTypePtr@@XZ 00449660 f   expx:ListOfexp_where_clause.obj
 0001:00048710       ?ListOfexp_where_clause_INIT_FCN@@YAXAAVRoseTypePtr@@@Z 00449710 f   expx:ListOfexp_where_clause.obj
 0001:000487d0       ?_data@ListOfexp_where_clause@@QAEPAPAVexp_where_clause@@XZ 004497d0 f   expx:ListOfexp_where_clause.obj
 0001:000487e0       ??AListOfexp_where_clause@@QAEPAVexp_where_clause@@I@Z 004497e0 f   expx:ListOfexp_where_clause.obj
 0001:00048810       ?get@ListOfexp_where_clause@@QAEPAVexp_where_clause@@I@Z 00449810 f   expx:ListOfexp_where_clause.obj
 0001:00048840       ?first@ListOfexp_where_clause@@QAEPAVexp_where_clause@@XZ 00449840 f   expx:ListOfexp_where_clause.obj
 0001:00048860       ?last@ListOfexp_where_clause@@QAEPAVexp_where_clause@@XZ 00449860 f   expx:ListOfexp_where_clause.obj
 0001:00048890       ?contains@ListOfexp_where_clause@@QAEDPAVexp_where_clause@@@Z 00449890 f   expx:ListOfexp_where_clause.obj
 0001:000488b0       ?_element@ListOfexp_where_clause@@QAEPAVexp_where_clause@@I@Z 004498b0 f   expx:ListOfexp_where_clause.obj
 0001:00048900       ?slotType@ListOfexp_where_clause@@UAEAAVRoseTypePtr@@PAVRoseAttribute@@I@Z 00449900 f   expx:ListOfexp_where_clause.obj
 0001:00048950       ?_address@exp_scope@@UAEPAXXZ 00449950 f   expx:exp_scope.obj
 0001:00048960       ?classType@exp_scope@@UAEAAVRoseTypePtr@@XZ 00449960 f   expx:exp_scope.obj
 0001:00048a20       ?exp_scope_INIT_FCN@@YAXAAVRoseTypePtr@@@Z 00449a20 f   expx:exp_scope.obj
 0001:00048b10       ?contents@exp_scope@@QAEPAVListOfexp_definition@@XZ 00449b10 f   expx:exp_scope.obj
 0001:00048be0       ??_GListOfexp_definition@@UAEPAXI@Z 00449be0 f i expx:exp_scope.obj
 0001:00048be0       ??_EListOfexp_definition@@UAEPAXI@Z 00449be0 f i expx:exp_scope.obj
 0001:00048c00       ??0exp_scope@@QAE@XZ       00449c00 f   expx:exp_scope.obj
 0001:00048c80       ??0exp_scope@@QAE@PAVexp_source_file@@HPAVexp_symbol@@PAV0@PAVListOfexp_definition@@@Z 00449c80 f   expx:exp_scope.obj
 0001:00048d70       ?_address@exp_scope@@$4PPPPPPPM@A@AEPAXXZ 00449d70 f i expx:exp_scope.obj
 0001:00048d80       ?classType@exp_scope@@$4PPPPPPPM@A@AEAAVRoseTypePtr@@XZ 00449d80 f i expx:exp_scope.obj
 0001:00048d90       ??_Eexp_scope@@$4PPPPPPPM@A@AEPAXI@Z 00449d90 f i expx:exp_scope.obj
 0001:00048da0       ??_Gexp_scope@@UAEPAXI@Z   00449da0 f i expx:exp_scope.obj
 0001:00048da0       ??_Eexp_scope@@UAEPAXI@Z   00449da0 f i expx:exp_scope.obj
 0001:00048e10       ?_address@exp_definition@@UAEPAXXZ 00449e10 f   expx:exp_definition.obj
 0001:00048e20       ?classType@exp_definition@@UAEAAVRoseTypePtr@@XZ 00449e20 f   expx:exp_definition.obj
 0001:00048ee0       ?exp_definition_INIT_FCN@@YAXAAVRoseTypePtr@@@Z 00449ee0 f   expx:exp_definition.obj
 0001:00048fc0       ??0exp_definition@@QAE@XZ  00449fc0 f   expx:exp_definition.obj
 0001:00049030       ??0exp_definition@@QAE@PAVexp_source_file@@HPAVexp_symbol@@PAVexp_scope@@@Z 0044a030 f   expx:exp_definition.obj
 0001:000490f0       ?_address@exp_definition@@$4PPPPPPPM@A@AEPAXXZ 0044a0f0 f i expx:exp_definition.obj
 0001:00049100       ?classType@exp_definition@@$4PPPPPPPM@A@AEAAVRoseTypePtr@@XZ 0044a100 f i expx:exp_definition.obj
 0001:00049110       ??_Eexp_definition@@$4PPPPPPPM@A@AEPAXI@Z 0044a110 f i expx:exp_definition.obj
 0001:00049120       ??_Gexp_definition@@UAEPAXI@Z 0044a120 f i expx:exp_definition.obj
 0001:00049120       ??_Eexp_definition@@UAEPAXI@Z 0044a120 f i expx:exp_definition.obj
 0001:00049190       ?_address@exp_construct@@UAEPAXXZ 0044a190 f   expx:exp_construct.obj
 0001:000491a0       ?classType@exp_construct@@UAEAAVRoseTypePtr@@XZ 0044a1a0 f   expx:exp_construct.obj
 0001:00049260       ?exp_construct_INIT_FCN@@YAXAAVRoseTypePtr@@@Z 0044a260 f   expx:exp_construct.obj
 0001:00049320       ??0exp_construct@@QAE@XZ   0044a320 f   expx:exp_construct.obj
 0001:00049380       ??0exp_construct@@QAE@PAVexp_source_file@@H@Z 0044a380 f   expx:exp_construct.obj
 0001:00049400       ?_address@exp_construct@@$4PPPPPPPM@A@AEPAXXZ 0044a400 f i expx:exp_construct.obj
 0001:00049410       ?classType@exp_construct@@$4PPPPPPPM@A@AEAAVRoseTypePtr@@XZ 0044a410 f i expx:exp_construct.obj
 0001:00049420       ??_Eexp_construct@@$4PPPPPPPM@A@AEPAXI@Z 0044a420 f i expx:exp_construct.obj
 0001:00049430       ??_Gexp_construct@@UAEPAXI@Z 0044a430 f i expx:exp_construct.obj
 0001:00049430       ??_Eexp_construct@@UAEPAXI@Z 0044a430 f i expx:exp_construct.obj
 0001:000494a0       ?_address@exp_source_file@@UAEPAXXZ 0044a4a0 f   expx:exp_source_file.obj
 0001:000494b0       ?classType@exp_source_file@@UAEAAVRoseTypePtr@@XZ 0044a4b0 f   expx:exp_source_file.obj
 0001:00049570       ?exp_source_file_INIT_FCN@@YAXAAVRoseTypePtr@@@Z 0044a570 f   expx:exp_source_file.obj
 0001:00049610       ??0exp_source_file@@QAE@XZ 0044a610 f   expx:exp_source_file.obj
 0001:00049670       ??0exp_source_file@@QAE@PAD@Z 0044a670 f   expx:exp_source_file.obj
 0001:000496e0       ?_address@exp_source_file@@$4PPPPPPPM@A@AEPAXXZ 0044a6e0 f i expx:exp_source_file.obj
 0001:000496f0       ?classType@exp_source_file@@$4PPPPPPPM@A@AEAAVRoseTypePtr@@XZ 0044a6f0 f i expx:exp_source_file.obj
 0001:00049700       ??_Eexp_source_file@@$4PPPPPPPM@A@AEPAXI@Z 0044a700 f i expx:exp_source_file.obj
 0001:00049710       ??_Eexp_source_file@@UAEPAXI@Z 0044a710 f i expx:exp_source_file.obj
 0001:00049710       ??_Gexp_source_file@@UAEPAXI@Z 0044a710 f i expx:exp_source_file.obj
 0001:00049780       ?_address@exp_binding@@UAEPAXXZ 0044a780 f   expx:exp_binding.obj
 0001:00049790       ?classType@exp_binding@@UAEAAVRoseTypePtr@@XZ 0044a790 f   expx:exp_binding.obj
 0001:00049850       ?exp_binding_INIT_FCN@@YAXAAVRoseTypePtr@@@Z 0044a850 f   expx:exp_binding.obj
 0001:00049910       ??0exp_binding@@QAE@XZ     0044a910 f   expx:exp_binding.obj
 0001:00049970       ??0exp_binding@@QAE@PAVexp_symbol@@PAVexp_definition@@@Z 0044a970 f   expx:exp_binding.obj
 0001:000499f0       ?_address@exp_binding@@$4PPPPPPPM@A@AEPAXXZ 0044a9f0 f i expx:exp_binding.obj
 0001:00049a00       ?classType@exp_binding@@$4PPPPPPPM@A@AEAAVRoseTypePtr@@XZ 0044aa00 f i expx:exp_binding.obj
 0001:00049a10       ??_Eexp_binding@@$4PPPPPPPM@A@AEPAXI@Z 0044aa10 f i expx:exp_binding.obj
 0001:00049a20       ??_Gexp_binding@@UAEPAXI@Z 0044aa20 f i expx:exp_binding.obj
 0001:00049a20       ??_Eexp_binding@@UAEPAXI@Z 0044aa20 f i expx:exp_binding.obj
 0001:00049a90       ?_address@exp_symbol@@UAEPAXXZ 0044aa90 f   expx:exp_symbol.obj
 0001:00049aa0       ?classType@exp_symbol@@UAEAAVRoseTypePtr@@XZ 0044aaa0 f   expx:exp_symbol.obj
 0001:00049b60       ?exp_symbol_INIT_FCN@@YAXAAVRoseTypePtr@@@Z 0044ab60 f   expx:exp_symbol.obj
 0001:00049c30       ?defs@exp_symbol@@QAEPAVListOfexp_definition@@XZ 0044ac30 f   expx:exp_symbol.obj
 0001:00049d00       ?uses@exp_symbol@@QAEPAVListOfexp_construct@@XZ 0044ad00 f   expx:exp_symbol.obj
 0001:00049dd0       ??_GListOfexp_construct@@UAEPAXI@Z 0044add0 f i expx:exp_symbol.obj
 0001:00049dd0       ??_EListOfexp_construct@@UAEPAXI@Z 0044add0 f i expx:exp_symbol.obj
 0001:00049df0       ??0exp_symbol@@QAE@XZ      0044adf0 f   expx:exp_symbol.obj
 0001:00049e50       ??0exp_symbol@@QAE@PADPAVListOfexp_definition@@PAVListOfexp_construct@@@Z 0044ae50 f   expx:exp_symbol.obj
 0001:00049ef0       ?_address@exp_symbol@@$4PPPPPPPM@A@AEPAXXZ 0044aef0 f i expx:exp_symbol.obj
 0001:00049f00       ?classType@exp_symbol@@$4PPPPPPPM@A@AEAAVRoseTypePtr@@XZ 0044af00 f i expx:exp_symbol.obj
 0001:00049f10       ??_Eexp_symbol@@$4PPPPPPPM@A@AEPAXI@Z 0044af10 f i expx:exp_symbol.obj
 0001:00049f20       ??_Gexp_symbol@@UAEPAXI@Z  0044af20 f i expx:exp_symbol.obj
 0001:00049f20       ??_Eexp_symbol@@UAEPAXI@Z  0044af20 f i expx:exp_symbol.obj
 0001:00049fa0       ?_address@ListOfexp_construct@@UAEPAXXZ 0044afa0 f   expx:ListOfexp_construct.obj
 0001:00049fb0       ?classType@ListOfexp_construct@@UAEAAVRoseTypePtr@@XZ 0044afb0 f   expx:ListOfexp_construct.obj
 0001:0004a060       ?ListOfexp_construct_INIT_FCN@@YAXAAVRoseTypePtr@@@Z 0044b060 f   expx:ListOfexp_construct.obj
 0001:0004a120       ?_data@ListOfexp_construct@@QAEPAPAVexp_construct@@XZ 0044b120 f   expx:ListOfexp_construct.obj
 0001:0004a130       ??AListOfexp_construct@@QAEPAVexp_construct@@I@Z 0044b130 f   expx:ListOfexp_construct.obj
 0001:0004a160       ?get@ListOfexp_construct@@QAEPAVexp_construct@@I@Z 0044b160 f   expx:ListOfexp_construct.obj
 0001:0004a190       ?first@ListOfexp_construct@@QAEPAVexp_construct@@XZ 0044b190 f   expx:ListOfexp_construct.obj
 0001:0004a1b0       ?last@ListOfexp_construct@@QAEPAVexp_construct@@XZ 0044b1b0 f   expx:ListOfexp_construct.obj
 0001:0004a1e0       ?contains@ListOfexp_construct@@QAEDPAVexp_construct@@@Z 0044b1e0 f   expx:ListOfexp_construct.obj
 0001:0004a200       ?_element@ListOfexp_construct@@QAEPAVexp_construct@@I@Z 0044b200 f   expx:ListOfexp_construct.obj
 0001:0004a250       ?slotType@ListOfexp_construct@@UAEAAVRoseTypePtr@@PAVRoseAttribute@@I@Z 0044b250 f   expx:ListOfexp_construct.obj
 0001:0004a2b0       ?_address@ListOfexp_definition@@UAEPAXXZ 0044b2b0 f   expx:ListOfexp_definition.obj
 0001:0004a2c0       ?classType@ListOfexp_definition@@UAEAAVRoseTypePtr@@XZ 0044b2c0 f   expx:ListOfexp_definition.obj
 0001:0004a370       ?ListOfexp_definition_INIT_FCN@@YAXAAVRoseTypePtr@@@Z 0044b370 f   expx:ListOfexp_definition.obj
 0001:0004a430       ?_data@ListOfexp_definition@@QAEPAPAVexp_definition@@XZ 0044b430 f   expx:ListOfexp_definition.obj
 0001:0004a440       ??AListOfexp_definition@@QAEPAVexp_definition@@I@Z 0044b440 f   expx:ListOfexp_definition.obj
 0001:0004a470       ?get@ListOfexp_definition@@QAEPAVexp_definition@@I@Z 0044b470 f   expx:ListOfexp_definition.obj
 0001:0004a4a0       ?first@ListOfexp_definition@@QAEPAVexp_definition@@XZ 0044b4a0 f   expx:ListOfexp_definition.obj
 0001:0004a4c0       ?last@ListOfexp_definition@@QAEPAVexp_definition@@XZ 0044b4c0 f   expx:ListOfexp_definition.obj
 0001:0004a4f0       ?contains@ListOfexp_definition@@QAEDPAVexp_definition@@@Z 0044b4f0 f   expx:ListOfexp_definition.obj
 0001:0004a510       ?_element@ListOfexp_definition@@QAEPAVexp_definition@@I@Z 0044b510 f   expx:ListOfexp_definition.obj
 0001:0004a560       ?slotType@ListOfexp_definition@@UAEAAVRoseTypePtr@@PAVRoseAttribute@@I@Z 0044b560 f   expx:ListOfexp_definition.obj
 0001:0004a5b0       ?_address@exp_literal_value@@UAEPAXXZ 0044b5b0 f   expx:exp_literal_value.obj
 0001:0004a5c0       ?classType@exp_literal_value@@UAEAAVRoseTypePtr@@XZ 0044b5c0 f   expx:exp_literal_value.obj
 0001:0004a650       ?exp_literal_value_INIT_FCN@@YAXAAVRoseTypePtr@@@Z 0044b650 f   expx:exp_literal_value.obj
 0001:0004a780       ??0exp_literal_value@@QAE@XZ 0044b780 f   expx:exp_literal_value.obj
 0001:0004a7a0       ??_Gexp_literal_value@@UAEPAXI@Z 0044b7a0 f i expx:exp_literal_value.obj
 0001:0004a7a0       ??_Eexp_literal_value@@UAEPAXI@Z 0044b7a0 f i expx:exp_literal_value.obj
 0001:0004a7f0       ??_GListOfArrayOfInteger@@UAEPAXI@Z 0044b7f0 f i expx:ListOfArrayOfInteger.obj
 0001:0004a7f0       ??_EListOfArrayOfInteger@@UAEPAXI@Z 0044b7f0 f i expx:ListOfArrayOfInteger.obj
 0001:0004a830       ?_address@ListOfArrayOfInteger@@UAEPAXXZ 0044b830 f   expx:ListOfArrayOfInteger.obj
 0001:0004a840       ?classType@ListOfArrayOfInteger@@UAEAAVRoseTypePtr@@XZ 0044b840 f   expx:ListOfArrayOfInteger.obj
 0001:0004a8f0       ?ListOfArrayOfInteger_INIT_FCN@@YAXAAVRoseTypePtr@@@Z 0044b8f0 f   expx:ListOfArrayOfInteger.obj
 0001:0004a9b0       ?_data@ListOfArrayOfInteger@@QAEPAPAVArrayOfInteger@@XZ 0044b9b0 f   expx:ListOfArrayOfInteger.obj
 0001:0004a9c0       ??AListOfArrayOfInteger@@QAEPAVArrayOfInteger@@I@Z 0044b9c0 f   expx:ListOfArrayOfInteger.obj
 0001:0004a9f0       ?get@ListOfArrayOfInteger@@QAEPAVArrayOfInteger@@I@Z 0044b9f0 f   expx:ListOfArrayOfInteger.obj
 0001:0004aa20       ?first@ListOfArrayOfInteger@@QAEPAVArrayOfInteger@@XZ 0044ba20 f   expx:ListOfArrayOfInteger.obj
 0001:0004aa40       ?last@ListOfArrayOfInteger@@QAEPAVArrayOfInteger@@XZ 0044ba40 f   expx:ListOfArrayOfInteger.obj
 0001:0004aa70       ?contains@ListOfArrayOfInteger@@QAEDPAVArrayOfInteger@@@Z 0044ba70 f   expx:ListOfArrayOfInteger.obj
 0001:0004aa90       ?_element@ListOfArrayOfInteger@@QAEPAVArrayOfInteger@@I@Z 0044ba90 f   expx:ListOfArrayOfInteger.obj
 0001:0004aae0       ?slotType@ListOfArrayOfInteger@@UAEAAVRoseTypePtr@@PAVRoseAttribute@@I@Z 0044bae0 f   expx:ListOfArrayOfInteger.obj
 0001:0004aaf0       ?update_prim@@YAXPAVRoseObject@@PAW4exp_operator@@W42@@Z 0044baf0 f   expx:exp_operator.obj
 0001:0004ab40       ?exp_operator_INIT_FCN@@YAXAAVRoseTypePtr@@@Z 0044bb40 f   expx:exp_operator.obj
 0001:0004ad40       ?update_prim@@YAXPAVRoseObject@@PAW4exp_simple_type@@W42@@Z 0044bd40 f   expx:exp_simple_type.obj
 0001:0004ad90       ?exp_simple_type_INIT_FCN@@YAXAAVRoseTypePtr@@@Z 0044bd90 f   expx:exp_simple_type.obj
 0001:0004ae70       ?_address@DictionaryOfexp_entity@@UAEPAXXZ 0044be70 f   expx:expx.obj
 0001:0004ae80       ?classType@DictionaryOfexp_entity@@UAEAAVRoseTypePtr@@XZ 0044be80 f   expx:expx.obj
 0001:0004af10       ?DictionaryOfexp_entity_INIT_FCN@@YAXAAVRoseTypePtr@@@Z 0044bf10 f   expx:expx.obj
 0001:0004afb0       ??0DictionaryOfexp_entity@@QAE@XZ 0044bfb0 f   expx:expx.obj
 0001:0004afd0       ?size@RoseDictionary@@UAEIXZ 0044bfd0 f i expx:expx.obj
 0001:0004afe0       ?size@RoseDictionary@@UAEDIH@Z 0044bfe0 f i expx:expx.obj
 0001:0004b000       ??_GDictionaryOfexp_entity@@UAEPAXI@Z 0044c000 f i expx:expx.obj
 0001:0004b000       ??_EDictionaryOfexp_entity@@UAEPAXI@Z 0044c000 f i expx:expx.obj
 0001:0004b020       ?activate@DictionaryOfexp_entity@@UAEXXZ 0044c020 f   expx:expx.obj
 0001:0004b060       ?listOfValues@DictionaryOfexp_entity@@QAEPAVListOfexp_entity@@XZ 0044c060 f   expx:expx.obj
 0001:0004b0e0       ?put@DictionaryOfexp_entity@@QAEPAV1@PADPAVexp_entity@@@Z 0044c0e0 f   expx:expx.obj
 0001:0004b1b0       ?removeKey@DictionaryOfexp_entity@@QAEXPBD@Z 0044c1b0 f   expx:expx.obj
 0001:0004b1e0       ?removeValue@DictionaryOfexp_entity@@QAEXPAVexp_entity@@@Z 0044c1e0 f   expx:expx.obj
 0001:0004b2a0       ??_EListOfexternalFunction@@UAEPAXI@Z 0044c2a0 f i expx:expx.obj
 0001:0004b2a0       ??_GListOfexternalFunction@@UAEPAXI@Z 0044c2a0 f i expx:expx.obj
 0001:0004b2e0       ?_address@ListOfexternalFunction@@UAEPAXXZ 0044c2e0 f   expx:expx.obj
 0001:0004b2f0       ?classType@ListOfexternalFunction@@UAEAAVRoseTypePtr@@XZ 0044c2f0 f   expx:expx.obj
 0001:0004b390       ?ListOfexternalFunction_INIT_FCN@@YAXAAVRoseTypePtr@@@Z 0044c390 f   expx:expx.obj
 0001:0004b420       ?_data@ListOfexternalFunction@@QAEPAPAP6AXXZXZ 0044c420 f   expx:expx.obj
 0001:0004b430       ??AListOfexternalFunction@@QAEPAP6AXXZI@Z 0044c430 f   expx:expx.obj
 0001:0004b460       ?get@ListOfexternalFunction@@QAEPAP6AXXZI@Z 0044c460 f   expx:expx.obj
 0001:0004b490       ?first@ListOfexternalFunction@@QAEPAP6AXXZXZ 0044c490 f   expx:expx.obj
 0001:0004b4b0       ?last@ListOfexternalFunction@@QAEPAP6AXXZXZ 0044c4b0 f   expx:expx.obj
 0001:0004b4e0       ?contains@ListOfexternalFunction@@QAEDPAP6AXXZ@Z 0044c4e0 f   expx:expx.obj
 0001:0004b500       ?_element@ListOfexternalFunction@@QAEPAP6AXXZI@Z 0044c500 f   expx:expx.obj
 0001:0004b520       ?slotType@ListOfexternalFunction@@UAEAAVRoseTypePtr@@PAVRoseAttribute@@I@Z 0044c520 f   expx:expx.obj
 0001:0004b570       ?_address@DictionaryOfexternalFunction@@UAEPAXXZ 0044c570 f   expx:expx.obj
 0001:0004b580       ?classType@DictionaryOfexternalFunction@@UAEAAVRoseTypePtr@@XZ 0044c580 f   expx:expx.obj
 0001:0004b610       ?DictionaryOfexternalFunction_INIT_FCN@@YAXAAVRoseTypePtr@@@Z 0044c610 f   expx:expx.obj
 0001:0004b6b0       ??0DictionaryOfexternalFunction@@QAE@XZ 0044c6b0 f   expx:expx.obj
 0001:0004b6d0       ??_EDictionaryOfexternalFunction@@UAEPAXI@Z 0044c6d0 f i expx:expx.obj
 0001:0004b6d0       ??_GDictionaryOfexternalFunction@@UAEPAXI@Z 0044c6d0 f i expx:expx.obj
 0001:0004b6f0       ?activate@DictionaryOfexternalFunction@@UAEXXZ 0044c6f0 f   expx:expx.obj
 0001:0004b730       ?listOfValues@DictionaryOfexternalFunction@@QAEPAVListOfexternalFunction@@XZ 0044c730 f   expx:expx.obj
 0001:0004b7b0       ?put@DictionaryOfexternalFunction@@QAEPAV1@PADPAP6AXXZ@Z 0044c7b0 f   expx:expx.obj
 0001:0004b870       ?removeKey@DictionaryOfexternalFunction@@QAEXPBD@Z 0044c870 f   expx:expx.obj
 0001:0004b8a0       ?removeValue@DictionaryOfexternalFunction@@QAEXPAP6AXXZ@Z 0044c8a0 f   expx:expx.obj
 0001:0004b8f0       ??0SchemaMap@@QAE@PAVRoseDesign@@@Z 0044c8f0 f   expx:expx.obj
 0001:0004b950       ??0SchemaMap@@QAE@PAD@Z    0044c950 f   expx:expx.obj
 0001:0004b980       ?_init@SchemaMap@@QAEXPAD@Z 0044c980 f   expx:expx.obj
 0001:0004be70       ??_EArrayOfRoseObject@@UAEPAXI@Z 0044ce70 f i expx:expx.obj
 0001:0004be70       ??_GArrayOfRoseObject@@UAEPAXI@Z 0044ce70 f i expx:expx.obj
 0001:0004be90       ??_EListOfRoseObject@@UAEPAXI@Z 0044ce90 f i expx:expx.obj
 0001:0004be90       ??_GListOfRoseObject@@UAEPAXI@Z 0044ce90 f i expx:expx.obj
 0001:0004beb0       ??_GListOfframe@@UAEPAXI@Z 0044ceb0 f i expx:expx.obj
 0001:0004beb0       ??_EListOfframe@@UAEPAXI@Z 0044ceb0 f i expx:expx.obj
 0001:0004bed0       ?instantiateGlobals@SchemaMap@@QAEXXZ 0044ced0 f   expx:expx.obj
 0001:0004c0d0       ?executeView@SchemaMap@@QAEXXZ 0044d0d0 f   expx:expx.obj
 0001:0004c0e0       ?executeView@SchemaMap@@QAEXH@Z 0044d0e0 f   expx:expx.obj
 0001:0004c210       ?executeCompose@SchemaMap@@QAEXXZ 0044d210 f   expx:expx.obj
 0001:0004c220       ?executeCompose@SchemaMap@@QAEXH@Z 0044d220 f   expx:expx.obj
 0001:0004c350       ?find_schema_binding@SchemaMap@@AAEPAVRoseDesign@@PAD@Z 0044d350 f   expx:expx.obj
 0001:0004c400       ?do_compose@SchemaMap@@AAEXPAVRoseObject@@@Z 0044d400 f   expx:expx.obj
 0001:0004cff0       ??_H@YGXPAXIHP6EX0@Z@Z     0044dff0 f i expx:expx.obj
 0001:0004d020       ??_I@YGXPAXIHP6EX0@Z@Z     0044e020 f i expx:expx.obj
 0001:0004d060       ?do_view@SchemaMap@@AAEXPAVRoseObject@@@Z 0044e060 f   expx:expx.obj
 0001:0004dc20       ?bindFunction@SchemaMap@@QAEXPADP6AXXZ@Z 0044ec20 f   expx:expx.obj
 0001:0004dc70       ?returnObject@SchemaMap@@QAEXPAVRoseObject@@@Z 0044ec70 f   expx:expx.obj
 0001:0004dc80       ?returnInteger@SchemaMap@@QAEXH@Z 0044ec80 f   expx:expx.obj
 0001:0004dc90       ?returnFloat@SchemaMap@@QAEXM@Z 0044ec90 f   expx:expx.obj
 0001:0004dca0       ?returnDouble@SchemaMap@@QAEXN@Z 0044eca0 f   expx:expx.obj
 0001:0004dcc0       ?returnString@SchemaMap@@QAEXPAD@Z 0044ecc0 f   expx:expx.obj
 0001:0004dcd0       ?returnBoolean@SchemaMap@@QAEXD@Z 0044ecd0 f   expx:expx.obj
 0001:0004dce0       ?returnLogical@SchemaMap@@QAEXD@Z 0044ece0 f   expx:expx.obj
 0001:0004dcf0       ?returnBinary@SchemaMap@@QAEXVBINARY@@@Z 0044ecf0 f   expx:expx.obj
 0001:0004dd10       ?fetchObject@SchemaMap@@QAEPAVRoseObject@@H@Z 0044ed10 f   expx:expx.obj
 0001:0004dd30       ?fetchInteger@SchemaMap@@QAEHH@Z 0044ed30 f   expx:expx.obj
 0001:0004dd50       ?fetchFloat@SchemaMap@@QAEMH@Z 0044ed50 f   expx:expx.obj
 0001:0004dd70       ?fetchDouble@SchemaMap@@QAENH@Z 0044ed70 f   expx:expx.obj
 0001:0004dd90       ?fetchString@SchemaMap@@QAEPADH@Z 0044ed90 f   expx:expx.obj
 0001:0004ddb0       ?fetchBoolean@SchemaMap@@QAEDH@Z 0044edb0 f   expx:expx.obj
 0001:0004ddd0       ?fetchLogical@SchemaMap@@QAEDH@Z 0044edd0 f   expx:expx.obj
 0001:0004ddf0       ?fetchBinary@SchemaMap@@QAE?AVBINARY@@H@Z 0044edf0 f   expx:expx.obj
 0001:0004de20       ?fetchDomain@SchemaMap@@QAEPAVRoseDomain@@H@Z 0044ee20 f   expx:expx.obj
 0001:0004df40       ?yylex@@YAHXZ              0044ef40 f   expx:scan.obj
 0001:0004e900       ?yyrestart@@YAXPAU_iobuf@@@Z 0044f900 f   expx:scan.obj
 0001:0004e940       ?yy_switch_to_buffer@@YAXPAUyy_buffer_state@@@Z 0044f940 f   expx:scan.obj
 0001:0004e990       ?yy_load_buffer_state@@YAXXZ 0044f990 f   expx:scan.obj
 0001:0004e9c0       ?yy_create_buffer@@YAPAUyy_buffer_state@@PAU_iobuf@@H@Z 0044f9c0 f   expx:scan.obj
 0001:0004ea20       ?yy_delete_buffer@@YAXPAUyy_buffer_state@@@Z 0044fa20 f   expx:scan.obj
 0001:0004ea60       ?yy_init_buffer@@YAXPAUyy_buffer_state@@PAU_iobuf@@@Z 0044fa60 f   expx:scan.obj
 0001:0004ea90       ?yy_flush_buffer@@YAXPAUyy_buffer_state@@@Z 0044fa90 f   expx:scan.obj
 0001:0004ead0       ?yy_scan_buffer@@YAPAUyy_buffer_state@@PADI@Z 0044fad0 f   expx:scan.obj
 0001:0004eb50       ?yy_scan_string@@YAPAUyy_buffer_state@@PBD@Z 0044fb50 f   expx:scan.obj
 0001:0004eb70       ?yy_scan_bytes@@YAPAUyy_buffer_state@@PBDH@Z 0044fb70 f   expx:scan.obj
 0001:0004ecb0       ?detect_entity_cyclic_inheritance@@YAXXZ 0044fcb0 f   expx:checks.obj
 0001:0004f230       ?detect_definedtype_cyclic_inheritance@@YAXXZ 00450230 f   expx:checks.obj
 0001:0004f930       ?resolve_hierarchy@@YAXXZ  00450930 f   expx:resolve.obj
 0001:0004f970       ?resolve_hierarchy@@YAXPAVRoseDesign@@@Z 00450970 f   expx:resolve.obj
 0001:0004fe80       ?resolve@@YAXPAVexp_schema@@@Z 00450e80 f   expx:resolve.obj
 0001:0004ff10       ?resolve@@YAXPAVexp_definition@@@Z 00450f10 f   expx:resolve.obj
 0001:00050330       ?resolve@@YAXPAVListOfexp_definition@@@Z 00451330 f   expx:resolve.obj
 0001:00050360       ?resolve@@YAXPAVexp_constant@@@Z 00451360 f   expx:resolve.obj
 0001:000505b0       ?resolve@@YAXPAVexp_defined_type@@@Z 004515b0 f   expx:resolve.obj
 0001:000506b0       ?resolve@@YAXPAVexp_entity@@@Z 004516b0 f   expx:resolve.obj
 0001:000509e0       ?resolve@@YAXPAVexp_rule@@@Z 004519e0 f   expx:resolve.obj
 0001:00050cf0       ?resolve@@YAXPAVexp_subroutine@@@Z 00451cf0 f   expx:resolve.obj
 0001:00050e10       ?resolve@@YAXPAVexp_foreign_ref@@@Z 00451e10 f   expx:resolve.obj
 0001:00051090       ?resolve@@YAXPAVexp_type_ref@@@Z 00452090 f   expx:resolve.obj
 0001:000512a0       ?resolve@@YAXPAVexp_simple_ref@@@Z 004522a0 f   expx:resolve.obj
 0001:000514e0       ?resolve@@YAXPAVexp_aggregate_ref@@@Z 004524e0 f   expx:resolve.obj
 0001:00051850       ?resolve@@YAXPAVexp_select@@@Z 00452850 f   expx:resolve.obj
 0001:00051890       ?find_entity_type@@YAPAVexp_entity@@PAVexp_type_ref@@@Z 00452890 f   expx:resolve.obj
 0001:00051c90       ?resolve@@YAXPAVexp_extended_id@@@Z 00452c90 f   expx:resolve.obj
 0001:00051f90       ?resolve@@YAXPAVexp_identifier@@@Z 00452f90 f   expx:resolve.obj
 0001:00052530       ?resolve@@YAXPAVListOfexp_identifier@@@Z 00453530 f   expx:resolve.obj
 0001:00052560       ?resolve@@YAXPAVexp_binding@@@Z 00453560 f   expx:resolve.obj
 0001:00052600       ?resolve@@YAXPAVListOfexp_expression@@@Z 00453600 f   expx:resolve.obj
 0001:00052820       ?resolve@@YAXPAVexp_expression@@@Z 00453820 f i expx:resolve.obj
 0001:00052a00       ?resolve@@YAXPAVexp_query@@@Z 00453a00 f   expx:resolve.obj
 0001:00052cd0       ?resolve@@YAXPAVexp_function_call@@@Z 00453cd0 f   expx:resolve.obj
 0001:00053140       ?symbol@exp_binding@@QAEPAVexp_symbol@@XZ 00454140 f i expx:resolve.obj
 0001:00053170       ?definition@exp_binding@@QAEPAVexp_definition@@XZ 00454170 f i expx:resolve.obj
 0001:000531a0       ?return_type@exp_subroutine@@QAEPAVexp_type_ref@@XZ 004541a0 f i expx:resolve.obj
 0001:000531d0       ?binding@exp_identifier@@QAEPAVexp_binding@@XZ 004541d0 f i expx:resolve.obj
 0001:00053200       ?algorithm@exp_function_call@@QAEPAVexp_identifier@@XZ 00454200 f i expx:resolve.obj
 0001:00053230       ?resolve@@YAXPAVexp_literal@@@Z 00454230 f   expx:resolve.obj
 0001:00053300       ?resolve@@YAXPAVexp_op_expression@@@Z 00454300 f   expx:resolve.obj
 0001:00053720       ?value_type@exp_attribute@@QAEPAVexp_type_ref@@XZ 00454720 f i expx:resolve.obj
 0001:00053750       ?definition@exp_op_expression@@QAEXPAVexp_type_ref@@@Z 00454750 f i expx:resolve.obj
 0001:00053770       ?rvalue@exp_op_expression@@QAEPAVexp_expression@@XZ 00454770 f i expx:resolve.obj
 0001:000537a0       ?resolve@@YAXPAVexp_where_clause@@@Z 004547a0 f   expx:resolve.obj
 0001:000539b0       ?resolve@@YAXPAVListOfexp_where_clause@@@Z 004549b0 f   expx:resolve.obj
 0001:000539e0       ?resolve@@YAXPAVexp_attribute@@@Z 004549e0 f   expx:resolve.obj
 0001:00054070       ?definition@exp_binding@@QAEXPAVexp_definition@@@Z 00455070 f i expx:resolve.obj
 0001:00054090       ?resolve@@YAXPAVListOfexp_explicit@@@Z 00455090 f   expx:resolve.obj
 0001:000540e0       ?resolve@@YAXPAVListOfexp_derived@@@Z 004550e0 f   expx:resolve.obj
 0001:00054350       ?resolve@@YAXPAVListOfexp_unique@@@Z 00455350 f   expx:resolve.obj
 0001:000545b0       ?resolve@@YAXPAVListOfexp_inverse@@@Z 004555b0 f   expx:resolve.obj
 0001:000549b0       ?name@exp_definition@@QAEPAVexp_symbol@@XZ 004559b0 f i expx:resolve.obj
 0001:000549e0       ?for_attrib@exp_inverse@@QAEPAVexp_identifier@@XZ 004559e0 f i expx:resolve.obj
 0001:00054ae0       ?resolve@@YAXPAVListOfexp_statement@@@Z 00455ae0 f   expx:resolve.obj
 0001:00054e30       ?resolve@@YAXPAVexp_alias@@@Z 00455e30 f   expx:resolve.obj
 0001:000550e0       ?resolve@@YAXPAVexp_assignment@@@Z 004560e0 f   expx:resolve.obj
 0001:00055340       ?resolve@@YAXPAVexp_return@@@Z 00456340 f   expx:resolve.obj
 0001:00055550       ?resolve@@YAXPAVexp_case@@@Z 00456550 f   expx:resolve.obj
 0001:00055810       ?resolve@@YAXPAVexp_statement@@@Z 00456810 f i expx:resolve.obj
 0001:00055b10       ?resolve@@YAXPAVexp_case_item@@@Z 00456b10 f   expx:resolve.obj
 0001:00055e60       ?resolve@@YAXPAVexp_if@@@Z 00456e60 f   expx:resolve.obj
 0001:000560a0       ?resolve@@YAXPAVexp_repeat@@@Z 004570a0 f   expx:resolve.obj
 0001:00056420       ?resolve@@YAXPAVexp_procedure_call@@@Z 00457420 f   expx:resolve.obj
 0001:000567d0       ?proc@exp_procedure_call@@QAEPAVexp_identifier@@XZ 004577d0 f i expx:resolve.obj
 0001:00056800       ?resolve@@YAXPAVexp_from_stmt@@@Z 00457800 f   expx:resolve.obj
 0001:000568c0       ?resolve@@YAXPAVexp_new@@@Z 004578c0 f   expx:resolve.obj
 0001:00056ad0       ?resolve@@YAXPAVListOfexp_parameter@@@Z 00457ad0 f   expx:resolve.obj
 0001:00056b40       ?resolve@@YAXPAVexp_localvar@@@Z 00457b40 f   expx:resolve.obj
 0001:00056eb0       ?resolve@@YAXPAVexp_view@@@Z 00457eb0 f   expx:resolve.obj
 0001:00056fa0       ?resolve@@YAXPAVexp_extended_entity_ref@@@Z 00457fa0 f   expx:resolve.obj
 0001:000572a0       ?resolve@@YAXPAVListOfexp_extended_entity_ref@@@Z 004582a0 f   expx:resolve.obj
 0001:000572d0       ?resolve@@YAXPAVexp_cast@@@Z 004582d0 f   expx:resolve.obj
 0001:00057530       ?resolve@@YAXPAVexp_compose@@@Z 00458530 f   expx:resolve.obj
 0001:00057620       ?resolve@@YAXPAVexp_when_stmt@@@Z 00458620 f   expx:resolve.obj
 0001:00057650       ?resolve@@YAXPAVexp_view2@@@Z 00458650 f   expx:resolve.obj
 0001:00057790       ?resolve@@YAXPAVListOfexp_partition@@@Z 00458790 f   expx:resolve.obj
 0001:000577c0       ?resolve@@YAXPAVexp_partition@@@Z 004587c0 f   expx:resolve.obj
 0001:000578f0       ?resolve@@YAXPAVListOfexp_view_attribute@@@Z 004588f0 f   expx:resolve.obj
 0001:00057920       ?resolve@@YAXPAVexp_view_attribute@@@Z 00458920 f   expx:resolve.obj
 0001:00057b90       ?resolve@@YAXPAVexp_view_conditional_expr@@@Z 00458b90 f   expx:resolve.obj
 0001:00057e20       ?resolve@@YAXPAVexp_create@@@Z 00458e20 f   expx:resolve.obj
 0001:00057f10       ??_EListOfexp_schema@@UAEPAXI@Z 00458f10 f i expx:express.obj
 0001:00057f10       ??_GListOfexp_schema@@UAEPAXI@Z 00458f10 f i expx:express.obj
 0001:00057f50       ?_address@ListOfexp_schema@@UAEPAXXZ 00458f50 f   expx:express.obj
 0001:00057f60       ?classType@ListOfexp_schema@@UAEAAVRoseTypePtr@@XZ 00458f60 f   expx:express.obj
 0001:00058010       ?ListOfexp_schema_INIT_FCN@@YAXAAVRoseTypePtr@@@Z 00459010 f   expx:express.obj
 0001:000580d0       ?_data@ListOfexp_schema@@QAEPAPAVexp_schema@@XZ 004590d0 f   expx:express.obj
 0001:000580e0       ??AListOfexp_schema@@QAEPAVexp_schema@@I@Z 004590e0 f   expx:express.obj
 0001:00058110       ?get@ListOfexp_schema@@QAEPAVexp_schema@@I@Z 00459110 f   expx:express.obj
 0001:00058140       ?first@ListOfexp_schema@@QAEPAVexp_schema@@XZ 00459140 f   expx:express.obj
 0001:00058160       ?last@ListOfexp_schema@@QAEPAVexp_schema@@XZ 00459160 f   expx:express.obj
 0001:00058190       ?contains@ListOfexp_schema@@QAEDPAVexp_schema@@@Z 00459190 f   expx:express.obj
 0001:000581b0       ?_element@ListOfexp_schema@@QAEPAVexp_schema@@I@Z 004591b0 f   expx:express.obj
 0001:00058200       ?slotType@ListOfexp_schema@@UAEAAVRoseTypePtr@@PAVRoseAttribute@@I@Z 00459200 f   expx:express.obj
 0001:00058240       ??_GListOfRoseDesign@@UAEPAXI@Z 00459240 f i expx:express.obj
 0001:00058240       ??_EListOfRoseDesign@@UAEPAXI@Z 00459240 f i expx:express.obj
 0001:000582d0       ?EXPRESSinitialize@@YAXXZ  004592d0 f   expx:express.obj
 0001:00058820       ?EXPRESSpass_1@@YAPAVListOfexp_schema@@PAU_iobuf@@@Z 00459820 f   expx:express.obj
 0001:00058860       ?EXPRESSpass_2@@YAXPAVListOfexp_schema@@@Z 00459860 f   expx:express.obj
 0001:00058870       ?EXPRESSdump_schema@@YAXPAVexp_schema@@@Z 00459870 f   expx:express.obj
 0001:00058880       ?EXPRESSdump_model@@YAXPAVListOfexp_schema@@@Z 00459880 f   expx:express.obj
 0001:00058890       ?EXPRESSsetup_new_design@@YAXXZ 00459890 f   expx:express.obj
 0001:000589e0       ?record_null_definitions@@YAXXZ 004599e0 f   expx:express.obj
 0001:00058bf0       ?determine_null_difference@@YAHPAVRoseDesign@@@Z 00459bf0 f   expx:express.obj
 0001:00058d90       ?class_type@extra_expxfront_data_manager@@SAIXZ 00459d90 f   expx:express.obj
 0001:00058dc0       ?manager_type@extra_expxfront_data_manager@@UAEIXZ 00459dc0 f   expx:express.obj
 0001:00058dd0       ??0extra_expxfront_data_manager@@QAE@XZ 00459dd0 f   expx:express.obj
 0001:00058e00       ??_Eextra_expxfront_data_manager@@UAEPAXI@Z 00459e00 f i expx:express.obj
 0001:00058e00       ??_Gextra_expxfront_data_manager@@UAEPAXI@Z 00459e00 f i expx:express.obj
 0001:00058e20       ??0extra_expxfront_data_manager@@QAE@HHHH@Z 00459e20 f   expx:express.obj
 0001:00058e70       ?total_undef@extra_expxfront_data_manager@@QAEHXZ 00459e70 f   expx:express.obj
 0001:00058e80       ?set_undefs@extra_expxfront_data_manager@@QAEXHHHH@Z 00459e80 f   expx:express.obj
 0001:00058eb0       ?is_parsed@extra_expxfront_data_manager@@QAEHXZ 00459eb0 f   expx:express.obj
 0001:00058ec0       ?parsed@extra_expxfront_data_manager@@QAEXXZ 00459ec0 f   expx:express.obj
 0001:00058ed0       ?missing_implicit_useref@extra_expxfront_data_manager@@QAEXXZ 00459ed0 f   expx:express.obj
 0001:00058ee0       ?has_missing_implicit_useref@extra_expxfront_data_manager@@QAEHXZ 00459ee0 f   expx:express.obj
 0001:00058ef0       ?parse_errors@extra_expxfront_data_manager@@QAEXH@Z 00459ef0 f   expx:express.obj
 0001:00058f00       ?parse_errors@extra_expxfront_data_manager@@QAEHXZ 00459f00 f   expx:express.obj
 0001:00058f10       ?has_parse_errors@extra_expxfront_data_manager@@QAEHXZ 00459f10 f   expx:express.obj
 0001:00058f20       ?design_has_missing_implicit_useref_schema@@YAHPAVRoseDesign@@@Z 00459f20 f   expx:express.obj
 0001:00058f50       ?design_was_parsed_this_compile@@YAHPAVRoseDesign@@@Z 00459f50 f   expx:express.obj
 0001:00058f80       ?class_type@complete_mark_manager@@SAIXZ 00459f80 f   expx:merge.obj
 0001:00058fb0       ?merge_use@@YAXXZ          00459fb0 f   expx:merge.obj
 0001:000594a0       ?implicit_use_import_symbol@@YAXPAUsymtab_entry@@PAVexp_schema@@PAVexp_construct@@PAD@Z 0045a4a0 f   expx:merge.obj
 0001:00059730       ?explicit_use_import_symbol@@YAXPAUsymtab_entry@@PAVexp_schema@@PAVexp_construct@@PAD@Z 0045a730 f   expx:merge.obj
 0001:00059a20       ?use_merge_dfs@@YAXPAVexp_schema@@@Z 0045aa20 f   expx:merge.obj
 0001:0005a130       ?manager_type@complete_mark_manager@@UAEIXZ 0045b130 f i expx:merge.obj
 0001:0005a140       ??_Gcomplete_mark_manager@@UAEPAXI@Z 0045b140 f i expx:merge.obj
 0001:0005a140       ??_Ecomplete_mark_manager@@UAEPAXI@Z 0045b140 f i expx:merge.obj
 0001:0005a160       ?init_local_symbols@@YAXPAVexp_scope@@@Z 0045b160 f   expx:merge.obj
 0001:0005a410       ?init_local_symbols_from_params@@YAXPAVListOfexp_parameter@@PAVexp_scope@@@Z 0045b410 f   expx:merge.obj
 0001:0005a500       ?init_local_symbols_from_params@@YAXPAVListOfexp_extended_entity_ref@@PAVexp_scope@@@Z 0045b500 f   expx:merge.obj
 0001:0005a5f0       ?merge_reference@@YAXXZ    0045b5f0 f   expx:merge.obj
 0001:0005b0b0       ??_EListOfListOfString@@UAEPAXI@Z 0045c0b0 f i expx:load.obj
 0001:0005b0b0       ??_GListOfListOfString@@UAEPAXI@Z 0045c0b0 f i expx:load.obj
 0001:0005b0f0       ?_address@ListOfListOfString@@UAEPAXXZ 0045c0f0 f   expx:load.obj
 0001:0005b100       ?classType@ListOfListOfString@@UAEAAVRoseTypePtr@@XZ 0045c100 f   expx:load.obj
 0001:0005b1a0       ?ListOfListOfString_INIT_FCN@@YAXAAVRoseTypePtr@@@Z 0045c1a0 f   expx:load.obj
 0001:0005b230       ?_data@ListOfListOfString@@QAEPAPAVListOfString@@XZ 0045c230 f   expx:load.obj
 0001:0005b240       ??AListOfListOfString@@QAEPAVListOfString@@I@Z 0045c240 f   expx:load.obj
 0001:0005b270       ?get@ListOfListOfString@@QAEPAVListOfString@@I@Z 0045c270 f   expx:load.obj
 0001:0005b2a0       ?first@ListOfListOfString@@QAEPAVListOfString@@XZ 0045c2a0 f   expx:load.obj
 0001:0005b2c0       ?last@ListOfListOfString@@QAEPAVListOfString@@XZ 0045c2c0 f   expx:load.obj
 0001:0005b2f0       ?contains@ListOfListOfString@@QAEDPAVListOfString@@@Z 0045c2f0 f   expx:load.obj
 0001:0005b310       ?_element@ListOfListOfString@@QAEPAVListOfString@@I@Z 0045c310 f   expx:load.obj
 0001:0005b330       ?slotType@ListOfListOfString@@UAEAAVRoseTypePtr@@PAVRoseAttribute@@I@Z 0045c330 f   expx:load.obj
 0001:0005b340       ?load_all_schemas@@YAPAVListOfString@@XZ 0045c340 f   expx:load.obj
 0001:0005ba60       ?all_schemas_resolved@@YAPAVListOfListOfString@@XZ 0045ca60 f   expx:load.obj
 0001:0005bca0       ?initialize_error_handling@@YAXXZ 0045cca0 f   expx:error.obj
 0001:0005bd50       ??_Eexp_ErrorReporter@@UAEPAXI@Z 0045cd50 f i expx:error.obj
 0001:0005bd50       ??_Gexp_ErrorReporter@@UAEPAXI@Z 0045cd50 f i expx:error.obj
 0001:0005bd70       ?report_internal_error@@YAXHPADH0@Z 0045cd70 f   expx:error.obj
 0001:0005bdb0       ?va_report@exp_ErrorReporter@@MAEXPAVRoseErrorContext@@PAURoseError@@PAD@Z 0045cdb0 f   expx:error.obj
 0001:0005bde0       ?do_report@exp_ErrorReporter@@MAEXPADPAURoseError@@0@Z 0045cde0 f   expx:error.obj
 0001:0005be00       ?do_report@Test_ErrorReporter@@MAEXPADPAURoseError@@0@Z 0045ce00 f   expx:error.obj
 0001:0005be90       ??_GListOfexpr_stack_item@@UAEPAXI@Z 0045ce90 f i expx:vm.obj
 0001:0005be90       ??_EListOfexpr_stack_item@@UAEPAXI@Z 0045ce90 f i expx:vm.obj
 0001:0005bed0       ?_address@ListOfexpr_stack_item@@UAEPAXXZ 0045ced0 f   expx:vm.obj
 0001:0005bee0       ?classType@ListOfexpr_stack_item@@UAEAAVRoseTypePtr@@XZ 0045cee0 f   expx:vm.obj
 0001:0005bf80       ?ListOfexpr_stack_item_INIT_FCN@@YAXAAVRoseTypePtr@@@Z 0045cf80 f   expx:vm.obj
 0001:0005c010       ?_data@ListOfexpr_stack_item@@QAEPAPAUexpr_stack_item@@XZ 0045d010 f   expx:vm.obj
 0001:0005c020       ??AListOfexpr_stack_item@@QAEPAUexpr_stack_item@@I@Z 0045d020 f   expx:vm.obj
 0001:0005c050       ?get@ListOfexpr_stack_item@@QAEPAUexpr_stack_item@@I@Z 0045d050 f   expx:vm.obj
 0001:0005c080       ?first@ListOfexpr_stack_item@@QAEPAUexpr_stack_item@@XZ 0045d080 f   expx:vm.obj
 0001:0005c0a0       ?last@ListOfexpr_stack_item@@QAEPAUexpr_stack_item@@XZ 0045d0a0 f   expx:vm.obj
 0001:0005c0d0       ?contains@ListOfexpr_stack_item@@QAEDPAUexpr_stack_item@@@Z 0045d0d0 f   expx:vm.obj
 0001:0005c0f0       ?_element@ListOfexpr_stack_item@@QAEPAUexpr_stack_item@@I@Z 0045d0f0 f   expx:vm.obj
 0001:0005c110       ?slotType@ListOfexpr_stack_item@@UAEAAVRoseTypePtr@@PAVRoseAttribute@@I@Z 0045d110 f   expx:vm.obj
 0001:0005c150       ??_GArrayOfexpr_stack_item@@UAEPAXI@Z 0045d150 f i expx:vm.obj
 0001:0005c150       ??_EArrayOfexpr_stack_item@@UAEPAXI@Z 0045d150 f i expx:vm.obj
 0001:0005c190       ?_address@ArrayOfexpr_stack_item@@UAEPAXXZ 0045d190 f   expx:vm.obj
 0001:0005c1a0       ?classType@ArrayOfexpr_stack_item@@UAEAAVRoseTypePtr@@XZ 0045d1a0 f   expx:vm.obj
 0001:0005c240       ?ArrayOfexpr_stack_item_INIT_FCN@@YAXAAVRoseTypePtr@@@Z 0045d240 f   expx:vm.obj
 0001:0005c2d0       ?_data@ArrayOfexpr_stack_item@@QAEPAPAUexpr_stack_item@@XZ 0045d2d0 f   expx:vm.obj
 0001:0005c2e0       ??AArrayOfexpr_stack_item@@QAEPAUexpr_stack_item@@I@Z 0045d2e0 f   expx:vm.obj
 0001:0005c310       ?get@ArrayOfexpr_stack_item@@QAEPAUexpr_stack_item@@I@Z 0045d310 f   expx:vm.obj
 0001:0005c340       ?first@ArrayOfexpr_stack_item@@QAEPAUexpr_stack_item@@XZ 0045d340 f   expx:vm.obj
 0001:0005c360       ?last@ArrayOfexpr_stack_item@@QAEPAUexpr_stack_item@@XZ 0045d360 f   expx:vm.obj
 0001:0005c390       ?contains@ArrayOfexpr_stack_item@@QAEDPAUexpr_stack_item@@@Z 0045d390 f   expx:vm.obj
 0001:0005c3b0       ?_element@ArrayOfexpr_stack_item@@QAEPAUexpr_stack_item@@I@Z 0045d3b0 f   expx:vm.obj
 0001:0005c3d0       ?slotType@ArrayOfexpr_stack_item@@UAEAAVRoseTypePtr@@PAVRoseAttribute@@I@Z 0045d3d0 f   expx:vm.obj
 0001:0005c420       ?_address@DictionaryOfexpr_stack_item@@UAEPAXXZ 0045d420 f   expx:vm.obj
 0001:0005c430       ?classType@DictionaryOfexpr_stack_item@@UAEAAVRoseTypePtr@@XZ 0045d430 f   expx:vm.obj
 0001:0005c4c0       ?DictionaryOfexpr_stack_item_INIT_FCN@@YAXAAVRoseTypePtr@@@Z 0045d4c0 f   expx:vm.obj
 0001:0005c560       ??0DictionaryOfexpr_stack_item@@QAE@XZ 0045d560 f   expx:vm.obj
 0001:0005c580       ??_GDictionaryOfexpr_stack_item@@UAEPAXI@Z 0045d580 f i expx:vm.obj
 0001:0005c580       ??_EDictionaryOfexpr_stack_item@@UAEPAXI@Z 0045d580 f i expx:vm.obj
 0001:0005c5a0       ?activate@DictionaryOfexpr_stack_item@@UAEXXZ 0045d5a0 f   expx:vm.obj
 0001:0005c5e0       ?listOfValues@DictionaryOfexpr_stack_item@@QAEPAVListOfexpr_stack_item@@XZ 0045d5e0 f   expx:vm.obj
 0001:0005c660       ?put@DictionaryOfexpr_stack_item@@QAEPAV1@PADPAUexpr_stack_item@@@Z 0045d660 f   expx:vm.obj
 0001:0005c720       ?removeKey@DictionaryOfexpr_stack_item@@QAEXPBD@Z 0045d720 f   expx:vm.obj
 0001:0005c750       ?removeValue@DictionaryOfexpr_stack_item@@QAEXPAUexpr_stack_item@@@Z 0045d750 f   expx:vm.obj
 0001:0005c7f0       ?_address@ListOfframe@@UAEPAXXZ 0045d7f0 f   expx:vm.obj
 0001:0005c800       ?classType@ListOfframe@@UAEAAVRoseTypePtr@@XZ 0045d800 f   expx:vm.obj
 0001:0005c8a0       ?ListOfframe_INIT_FCN@@YAXAAVRoseTypePtr@@@Z 0045d8a0 f   expx:vm.obj
 0001:0005c930       ?_data@ListOfframe@@QAEPAPAUframe@@XZ 0045d930 f   expx:vm.obj
 0001:0005c940       ??AListOfframe@@QAEPAUframe@@I@Z 0045d940 f   expx:vm.obj
 0001:0005c970       ?get@ListOfframe@@QAEPAUframe@@I@Z 0045d970 f   expx:vm.obj
 0001:0005c9a0       ?first@ListOfframe@@QAEPAUframe@@XZ 0045d9a0 f   expx:vm.obj
 0001:0005c9c0       ?last@ListOfframe@@QAEPAUframe@@XZ 0045d9c0 f   expx:vm.obj
 0001:0005c9f0       ?contains@ListOfframe@@QAEDPAUframe@@@Z 0045d9f0 f   expx:vm.obj
 0001:0005ca10       ?_element@ListOfframe@@QAEPAUframe@@I@Z 0045da10 f   expx:vm.obj
 0001:0005ca30       ?slotType@ListOfframe@@UAEAAVRoseTypePtr@@PAVRoseAttribute@@I@Z 0045da30 f   expx:vm.obj
 0001:0005ca40       ?push_frame@virt_mach@@QAEXXZ 0045da40 f   expx:vm.obj
 0001:0005cab0       ?push_frame@virt_mach@@QAEXPAVListOfexp_statement@@@Z 0045dab0 f   expx:vm.obj
 0001:0005cb10       ?push_frame@virt_mach@@QAEXPAVexp_statement@@@Z 0045db10 f   expx:vm.obj
 0001:0005cb80       ?pop_frame@virt_mach@@QAEXXZ 0045db80 f   expx:vm.obj
 0001:0005cc00       ?lookup@virt_mach@@QAEPAUexpr_stack_item@@PAD@Z 0045dc00 f   expx:vm.obj
 0001:0005cc60       ?add_var@virt_mach@@QAEPAUexpr_stack_item@@PADPAVexp_type_ref@@@Z 0045dc60 f   expx:vm.obj
 0001:0005cca0       ?temp_name@virt_mach@@AAEPADXZ 0045dca0 f   expx:vm.obj
 0001:0005ccd0       ?excptn@virt_mach@@AAEXPAVRoseObject@@PAD@Z 0045dcd0 f   expx:vm.obj
 0001:0005cd40       ?excptnHandler@virt_mach@@QAEXP6AXPAV1@@Z@Z 0045dd40 f   expx:vm.obj
 0001:0005cd80       ??_GListOfexp_defined_type@@UAEPAXI@Z 0045dd80 f i expx:load_types.obj
 0001:0005cd80       ??_EListOfexp_defined_type@@UAEPAXI@Z 0045dd80 f i expx:load_types.obj
 0001:0005cdc0       ?_address@ListOfexp_defined_type@@UAEPAXXZ 0045ddc0 f   expx:load_types.obj
 0001:0005cdd0       ?classType@ListOfexp_defined_type@@UAEAAVRoseTypePtr@@XZ 0045ddd0 f   expx:load_types.obj
 0001:0005ce80       ?ListOfexp_defined_type_INIT_FCN@@YAXAAVRoseTypePtr@@@Z 0045de80 f   expx:load_types.obj
 0001:0005cf40       ?_data@ListOfexp_defined_type@@QAEPAPAVexp_defined_type@@XZ 0045df40 f   expx:load_types.obj
 0001:0005cf50       ??AListOfexp_defined_type@@QAEPAVexp_defined_type@@I@Z 0045df50 f   expx:load_types.obj
 0001:0005cf80       ?get@ListOfexp_defined_type@@QAEPAVexp_defined_type@@I@Z 0045df80 f   expx:load_types.obj
 0001:0005cfb0       ?first@ListOfexp_defined_type@@QAEPAVexp_defined_type@@XZ 0045dfb0 f   expx:load_types.obj
 0001:0005cfd0       ?last@ListOfexp_defined_type@@QAEPAVexp_defined_type@@XZ 0045dfd0 f   expx:load_types.obj
 0001:0005d000       ?contains@ListOfexp_defined_type@@QAEDPAVexp_defined_type@@@Z 0045e000 f   expx:load_types.obj
 0001:0005d020       ?_element@ListOfexp_defined_type@@QAEPAVexp_defined_type@@I@Z 0045e020 f   expx:load_types.obj
 0001:0005d070       ?slotType@ListOfexp_defined_type@@UAEAAVRoseTypePtr@@PAVRoseAttribute@@I@Z 0045e070 f   expx:load_types.obj
 0001:0005d0c0       ?_address@DictionaryOfexp_defined_type@@UAEPAXXZ 0045e0c0 f   expx:load_types.obj
 0001:0005d0d0       ?classType@DictionaryOfexp_defined_type@@UAEAAVRoseTypePtr@@XZ 0045e0d0 f   expx:load_types.obj
 0001:0005d160       ?DictionaryOfexp_defined_type_INIT_FCN@@YAXAAVRoseTypePtr@@@Z 0045e160 f   expx:load_types.obj
 0001:0005d200       ??0DictionaryOfexp_defined_type@@QAE@XZ 0045e200 f   expx:load_types.obj
 0001:0005d220       ??_GDictionaryOfexp_defined_type@@UAEPAXI@Z 0045e220 f i expx:load_types.obj
 0001:0005d220       ??_EDictionaryOfexp_defined_type@@UAEPAXI@Z 0045e220 f i expx:load_types.obj
 0001:0005d240       ?activate@DictionaryOfexp_defined_type@@UAEXXZ 0045e240 f   expx:load_types.obj
 0001:0005d280       ?listOfValues@DictionaryOfexp_defined_type@@QAEPAVListOfexp_defined_type@@XZ 0045e280 f   expx:load_types.obj
 0001:0005d300       ?put@DictionaryOfexp_defined_type@@QAEPAV1@PADPAVexp_defined_type@@@Z 0045e300 f   expx:load_types.obj
 0001:0005d3d0       ?removeKey@DictionaryOfexp_defined_type@@QAEXPBD@Z 0045e3d0 f   expx:load_types.obj
 0001:0005d400       ?removeValue@DictionaryOfexp_defined_type@@QAEXPAVexp_defined_type@@@Z 0045e400 f   expx:load_types.obj
 0001:0005d490       ?load_types@@YAXPAVRoseDesign@@@Z 0045e490 f   expx:load_types.obj
 0001:0005d5f0       ?find_schema@@YAPAVexp_schema@@PAVexp_definition@@@Z 0045e5f0 f   expx:load_types.obj
 0001:0005d6f0       ?create_new_instance@@YAPAVRoseObject@@PAVRoseDesign@@PAVexp_definition@@@Z 0045e6f0 f   expx:load_types.obj
 0001:0005d810       ?initialize_error_handling2@@YAXXZ 0045e810 f   expx:err_interp.obj
 0001:0005d890       ?in_operator@virt_mach@@QAEDPAVRoseAggregate@@TRoseDataElem@@@Z 0045e890 f   expx:eval.obj
 0001:0005dd30       ?find_attr_in_ent@@YAPAVexp_attribute@@PADPAVexp_entity@@@Z 0045ed30 f   expx:eval.obj
 0001:0005dec0       ?find_aggr_type@@YAPAVexp_aggregate_type@@PAVexp_type_ref@@@Z 0045eec0 f   expx:eval.obj
 0001:0005e0c0       ?eval@virt_mach@@QAEXPAVexp_expression@@@Z 0045f0c0 f   expx:eval.obj
 0001:0005e2c0       ?extract_attribute_value@virt_mach@@AAEXPAVexp_expression@@PAVRoseObject@@PAD@Z 0045f2c0 f   expx:eval.obj
 0001:0005e8c0       ?eval_op_expr@virt_mach@@QAEXPAVexp_op_expression@@@Z 0045f8c0 f   expx:eval.obj
 0001:00062410       ?eval_query@virt_mach@@QAEXPAVexp_query@@@Z 00463410 f   expx:eval.obj
 0001:000629f0       ?eval_function_call@virt_mach@@QAEXPAVexp_function_call@@@Z 004639f0 f   expx:eval.obj
 0001:000632a0       ?eval_identifier@virt_mach@@QAEXPAVexp_identifier@@@Z 004642a0 f   expx:eval.obj
 0001:000636d0       ?eval_literal@virt_mach@@QAEXPAVexp_literal@@@Z 004646d0 f   expx:eval.obj
 0001:00063b70       ?eval_cast@virt_mach@@QAEXPAVexp_cast@@@Z 00464b70 f   expx:eval.obj
 0001:00063d80       ?eval_cond@virt_mach@@QAEXPAVexp_view_conditional_expr@@@Z 00464d80 f   expx:eval.obj
 0001:00063ec0       ?view_partition_matches_parameters@virt_mach@@AAEDPAVexp_partition@@PAVListOfexp_expression@@PAVListOfexpr_stack_item@@@Z 00464ec0 f   expx:eval.obj
 0001:00064010       ?eval_explicit_binding@virt_mach@@QAEXPAVexp_function_call@@@Z 00465010 f   expx:eval.obj
 0001:00064820       ??_ESetOfBinding@@UAEPAXI@Z 00465820 f i expx:eval.obj
 0001:00064820       ??_GSetOfBinding@@UAEPAXI@Z 00465820 f i expx:eval.obj
 0001:00064840       ?abs_fn@virt_mach@@QAEXPAVexp_function_call@@@Z 00465840 f   expx:eval.obj
 0001:00064910       ?acos_fn@virt_mach@@QAEXPAVexp_function_call@@@Z 00465910 f   expx:eval.obj
 0001:00064a60       ?asin_fn@virt_mach@@QAEXPAVexp_function_call@@@Z 00465a60 f   expx:eval.obj
 0001:00064bb0       ?atan_fn@virt_mach@@QAEXPAVexp_function_call@@@Z 00465bb0 f   expx:eval.obj
 0001:00064db0       ?blength_fn@virt_mach@@QAEXPAVexp_function_call@@@Z 00465db0 f   expx:eval.obj
 0001:00064de0       ?cos_fn@virt_mach@@QAEXPAVexp_function_call@@@Z 00465de0 f   expx:eval.obj
 0001:00064ee0       ?exists_fn@virt_mach@@QAEXPAVexp_function_call@@@Z 00465ee0 f   expx:eval.obj
 0001:00064fe0       ?exp_fn@virt_mach@@QAEXPAVexp_function_call@@@Z 00465fe0 f   expx:eval.obj
 0001:000650f0       ?format_fn@virt_mach@@QAEXPAVexp_function_call@@@Z 004660f0 f   expx:eval.obj
 0001:00065120       ?hibound_fn@virt_mach@@QAEXPAVexp_function_call@@@Z 00466120 f   expx:eval.obj
 0001:000652c0       ?hiindex_fn@virt_mach@@QAEXPAVexp_function_call@@@Z 004662c0 f   expx:eval.obj
 0001:00065580       ?length_fn@virt_mach@@QAEXPAVexp_function_call@@@Z 00466580 f   expx:eval.obj
 0001:000656a0       ?lobound_fn@virt_mach@@QAEXPAVexp_function_call@@@Z 004666a0 f   expx:eval.obj
 0001:00065870       ?log_fn@virt_mach@@QAEXPAVexp_function_call@@@Z 00466870 f   expx:eval.obj
 0001:000659b0       ?log10_fn@virt_mach@@QAEXPAVexp_function_call@@@Z 004669b0 f   expx:eval.obj
 0001:00065af0       ?log2_fn@virt_mach@@QAEXPAVexp_function_call@@@Z 00466af0 f   expx:eval.obj
 0001:00065c40       ?loindex_fn@virt_mach@@QAEXPAVexp_function_call@@@Z 00466c40 f   expx:eval.obj
 0001:00065e60       ?nvl_fn@virt_mach@@QAEXPAVexp_function_call@@@Z 00466e60 f   expx:eval.obj
 0001:00065f70       ?odd_fn@virt_mach@@QAEXPAVexp_function_call@@@Z 00466f70 f   expx:eval.obj
 0001:00066070       ?rolesof_fn@virt_mach@@QAEXPAVexp_function_call@@@Z 00467070 f   expx:eval.obj
 0001:000660a0       ?sin_fn@virt_mach@@QAEXPAVexp_function_call@@@Z 004670a0 f   expx:eval.obj
 0001:000661a0       ?sizeof_fn@virt_mach@@QAEXPAVexp_function_call@@@Z 004671a0 f   expx:eval.obj
 0001:000662b0       ?sqrt_fn@virt_mach@@QAEXPAVexp_function_call@@@Z 004672b0 f   expx:eval.obj
 0001:000663f0       ?tan_fn@virt_mach@@QAEXPAVexp_function_call@@@Z 004673f0 f   expx:eval.obj
 0001:000664f0       ?typeof_fn@virt_mach@@QAEXPAVexp_function_call@@@Z 004674f0 f   expx:eval.obj
 0001:00066520       ?usedin_fn@virt_mach@@QAEXPAVexp_function_call@@@Z 00467520 f   expx:eval.obj
 0001:00066550       ?value_fn@virt_mach@@QAEXPAVexp_function_call@@@Z 00467550 f   expx:eval.obj
 0001:00066580       ?value_in_fn@virt_mach@@QAEXPAVexp_function_call@@@Z 00467580 f   expx:eval.obj
 0001:000665b0       ?value_unique_fn@virt_mach@@QAEXPAVexp_function_call@@@Z 004675b0 f   expx:eval.obj
 0001:000665e0       ?exec_builtin_fn@virt_mach@@QAEHPAVexp_function_call@@@Z 004675e0 f   expx:eval.obj
 0001:000666e0       ?exec_user_fn@virt_mach@@QAEXPAVexp_function_call@@PAVexp_subroutine@@@Z 004676e0 f   expx:eval.obj
 0001:00066f70       ?value_equal@virt_mach@@QAEDPAVRoseObject@@@Z 00467f70 f   expx:eval.obj
 0001:000672b0       ?populate_select@virt_mach@@QAEPAVRoseUnion@@PAVRoseObject@@PAVRoseAttribute@@Uexpr_stack_item@@@Z 004682b0 f   expx:exec.obj
 0001:000676a0       ?exec@virt_mach@@QAEXXZ    004686a0 f   expx:exec.obj
 0001:00069220       ?get_lvalue@virt_mach@@QAEPAVRoseObject@@PAVexp_expression@@@Z 0046a220 f   expx:exec.obj
 0001:000699d0       ?unwind_selects@virt_mach@@QAEXXZ 0046a9d0 f   expx:exec.obj
 0001:00069bd0       ?assign_to@virt_mach@@QAEXPAVexp_expression@@HPAVexp_assignment@@@Z 0046abd0 f   expx:exec.obj
 0001:0006a680       ?do_assign@virt_mach@@QAEXPAVRoseObject@@PAVRoseAttribute@@HPAVexp_assignment@@0@Z 0046b680 f   expx:exec.obj
 0001:0006aab0       ?exec@virt_mach@@AAEXPAVexp_from_stmt@@@Z 0046bab0 f   expx:exec.obj
 0001:0006af40       ?exec_builtin_proc@virt_mach@@QAEHPAVexp_procedure_call@@@Z 0046bf40 f   expx:exec.obj
 0001:0006b130       ?exec_user_proc@virt_mach@@QAEXPAVexp_procedure_call@@PAVexp_subroutine@@@Z 0046c130 f   expx:exec.obj
 0001:0006b8b0       ?subtype_of@@YAHPAVexp_entity@@0@Z 0046c8b0 f   expx:type_compat.obj
 0001:0006ba80       ?supertype_of@@YAHPAVexp_entity@@0@Z 0046ca80 f   expx:type_compat.obj
 0001:0006bb50       ?generic_if_type_null@@YAPAVRoseObject@@PAV1@@Z 0046cb50 f   expx:type_compat.obj
 0001:0006bb70       ?type_compatible@@YAHPAVRoseObject@@0@Z 0046cb70 f   expx:type_compat.obj
 0001:0006c680       ?get_expression_typeref@@YAPAVRoseObject@@PAV1@@Z 0046d680 f   expx:type_compat.obj
 0001:0006d0b0       ??_GRoseDictHash@@UAEPAXI@Z 0046e0b0 f i expx:lex_actions.obj
 0001:0006d0b0       ??_ERoseDictHash@@UAEPAXI@Z 0046e0b0 f i expx:lex_actions.obj
 0001:0006d1b0       ?SCANinitialize@@YAXXZ     0046e1b0 f   expx:lex_actions.obj
 0001:0006e280       ?SCANprocess_real_literal@@YAHXZ 0046f280 f   expx:lex_actions.obj
 0001:0006e2a0       ?SCANprocess_integer_literal@@YAHXZ 0046f2a0 f   expx:lex_actions.obj
 0001:0006e2c0       ?SCANprocess_binary_literal@@YAHXZ 0046f2c0 f   expx:lex_actions.obj
 0001:0006e2e0       ?SCANprocess_logical_literal@@YAHPAD@Z 0046f2e0 f   expx:lex_actions.obj
 0001:0006e3c0       ?SCANprocess_keyword_or_identifier@@YAHXZ 0046f3c0 f   expx:lex_actions.obj
 0001:0006e6a0       ?SCANprocess_string@@YAHXZ 0046f6a0 f   expx:lex_actions.obj
 0001:0006e700       ?SCANprocess_encoded_string@@YAHXZ 0046f700 f   expx:lex_actions.obj
 0001:0006e730       ?SCANinclude_file@@YAXPAD@Z 0046f730 f   expx:lex_actions.obj
 0001:0006e8e0       ?SCANfrom@@YAXPAU_iobuf@@@Z 0046f8e0 f   expx:lex_actions.obj
 0001:0006e900       ?SCANnextchar@@YAHPAD@Z    0046f900 f   expx:lex_actions.obj
 0001:0006ebb0       ?is_reserved_word@@YAHPAD@Z 0046fbb0 f   expx:lex_actions.obj
 0001:0006ebd0       ?is_expx_reserved_word@@YAHPAD@Z 0046fbd0 f   expx:lex_actions.obj
 0001:0006ebf0       ?is_expx2_reserved_word@@YAHPAD@Z 0046fbf0 f   expx:lex_actions.obj
 0001:0006ec10       ?open_express_file@@YAXAAUExpressOptions@@PAD@Z 0046fc10 f   expx:lex_actions.obj
 0001:0006ef40       ?recordSize@SetOfString@@UAEIXZ 0046ff40 f i expx:lex_actions.obj
 0001:0006ef50       ??0ExpressOptions@@QAE@AAU0@@Z 0046ff50 f i expx:lex_actions.obj
 0001:0006f060       ??0SetOfString@@QAE@AAV0@@Z 00470060 f i expx:lex_actions.obj
 0001:0006f090       ??_GSetOfString@@UAEPAXI@Z 00470090 f i expx:lex_actions.obj
 0001:0006f090       ??_ESetOfString@@UAEPAXI@Z 00470090 f i expx:lex_actions.obj
 0001:0006f0b0       ??0RoseSet@@QAE@AAV0@@Z    004700b0 f i expx:lex_actions.obj
 0001:0006f0e0       ??_ERoseSet@@UAEPAXI@Z     004700e0 f i expx:lex_actions.obj
 0001:0006f0e0       ??_GRoseSet@@UAEPAXI@Z     004700e0 f i expx:lex_actions.obj
 0001:0006f100       ?initialize_compiler_error_handling@@YAXXZ 00470100 f   expx:err_parse.obj
 0001:0006f160       ?error_level_filter@@YAHPAURoseError@@@Z 00470160 f   expx:err_parse.obj
 0001:0006f1c0       ??0exp_ErrorContext@@QAE@PAURoseError@@I@Z 004701c0 f   expx:err_parse.obj
 0001:0006f200       ??_Gexp_ErrorContext@@UAEPAXI@Z 00470200 f i expx:err_parse.obj
 0001:0006f200       ??_Eexp_ErrorContext@@UAEPAXI@Z 00470200 f i expx:err_parse.obj
 0001:0006f230       ?report@exp_ErrorContext@@MAAXKZZ 00470230 f   expx:err_parse.obj
 0001:0006f2c0       ?report@exp_ErrorContext@@MAEXKPAD@Z 004702c0 f   expx:err_parse.obj
 0001:0006f350       ?report_internal@exp_ErrorContext@@QAAXKZZ 00470350 f   expx:err_parse.obj
 0001:0006f370       ?report_express@exp_ErrorContext@@QAAXKPAVexp_construct@@ZZ 00470370 f   expx:err_parse.obj
 0001:0006f4b0       ?append_report_express@exp_ErrorContext@@QAAXPADZZ 004704b0 f   expx:err_parse.obj
 0001:0006f5e0       ?report_express@exp_ErrorContext@@QAAXKPADHZZ 004705e0 f   expx:err_parse.obj
 0001:0006f690       ?report_testharness@exp_ErrorContext@@IAAXKZZ 00470690 f   expx:err_parse.obj
 0001:0006f710       ?get_defaults@@YAXXZ       00470710 f   expx:option.obj
 0001:0006f7b0       ?get_options@@YAXHPAPAD@Z  004707b0 f   expx:option.obj
 0001:000703c0       ?usage@@YAXXZ              004713c0 f   expx:option.obj
 0001:00070540       ??0RoseAggregate@@QAE@AAV0@@Z 00471540 f i expx:option.obj
 0001:00070570       ??_ERoseAggregate@@UAEPAXI@Z 00471570 f i expx:option.obj
 0001:00070570       ??_GRoseAggregate@@UAEPAXI@Z 00471570 f i expx:option.obj
 0001:00070590       ?string_option_usage@@YAXPAD@Z 00471590 f   expx:option.obj
 0001:00070710       ?long_usage@@YAXXZ         00471710 f   expx:option.obj
 0001:00070760       ?error_no_file@@YAXUExpressOptions@@@Z 00471760 f   expx:option.obj
 0001:00070910       ?exec_name@@YAPADUExpressOptions@@@Z 00471910 f   expx:option.obj
 0001:00070930       ?getcwd@@YAPADXZ           00471930 f   expx:option.obj
 0001:000709d0       ??0symtable@@QAE@H@Z       004719d0 f   expx:symtab.obj
 0001:00070a10       ?find@symtable@@QAEPAUsymtab_entry@@PADPAVexp_scope@@@Z 00471a10 f   expx:symtab.obj
 0001:00070a40       ?add@symtable@@QAEPAUsymtab_entry@@PADPAVexp_scope@@PAVexp_definition@@PAVexp_construct@@@Z 00471a40 f   expx:symtab.obj
 0001:00070be0       ?double_size@symtable@@QAEHXZ 00471be0 f   expx:symtab.obj
 0001:00070cb0       ?get_size@symtable@@AAEHH@Z 00471cb0 f   expx:symtab.obj
 0001:00070d90       ?hashpjw_loop@symtable@@AAEXAAKD@Z 00471d90 f   expx:symtab.obj
 0001:00070dc0       ?hash@symtable@@AAEHPADPAVexp_scope@@@Z 00471dc0 f   expx:symtab.obj
 0001:00070e50       ?find_entry@symtable@@AAEPAUsymtab_entry@@PADPAVexp_scope@@PAU2@@Z 00471e50 f   expx:symtab.obj
 0001:00070e90       ?find_symbol@@YAPAVexp_symbol@@PAD@Z 00471e90 f   expx:symtab.obj
 0001:00070ee0       ?find_sym_defn_in_scope@@YAPAVexp_definition@@PAVexp_symbol@@PAVexp_scope@@@Z 00471ee0 f   expx:symtab.obj
 0001:00070f00       ?find_sym_defn_in_scope@@YAPAVexp_definition@@PADPAVexp_scope@@H@Z 00471f00 f   expx:symtab.obj
 0001:00070f40       ?find_sym_defn_in_supers@@YAPAVexp_definition@@PAVexp_symbol@@PAVexp_entity@@@Z 00471f40 f   expx:symtab.obj
 0001:00070f60       ?find_sym_defn_in_supers@@YAPAVexp_definition@@PADPAVexp_entity@@H@Z 00471f60 f   expx:symtab.obj
 0001:000710a0       ?find_sym_defn@@YAPAVexp_definition@@PAVexp_symbol@@PAVexp_scope@@@Z 004720a0 f   expx:symtab.obj
 0001:000710c0       ?find_sym_defn@@YAPAVexp_definition@@PADPAVexp_scope@@H@Z 004720c0 f   expx:symtab.obj
 0001:00071820       ??_EListOfexp_symbol@@UAEPAXI@Z 00472820 f i expx:parse_symgen.obj
 0001:00071820       ??_GListOfexp_symbol@@UAEPAXI@Z 00472820 f i expx:parse_symgen.obj
 0001:00071860       ?_address@ListOfexp_symbol@@UAEPAXXZ 00472860 f   expx:parse_symgen.obj
 0001:00071870       ?classType@ListOfexp_symbol@@UAEAAVRoseTypePtr@@XZ 00472870 f   expx:parse_symgen.obj
 0001:00071920       ?ListOfexp_symbol_INIT_FCN@@YAXAAVRoseTypePtr@@@Z 00472920 f   expx:parse_symgen.obj
 0001:000719e0       ?_data@ListOfexp_symbol@@QAEPAPAVexp_symbol@@XZ 004729e0 f   expx:parse_symgen.obj
 0001:000719f0       ??AListOfexp_symbol@@QAEPAVexp_symbol@@I@Z 004729f0 f   expx:parse_symgen.obj
 0001:00071a20       ?get@ListOfexp_symbol@@QAEPAVexp_symbol@@I@Z 00472a20 f   expx:parse_symgen.obj
 0001:00071a50       ?first@ListOfexp_symbol@@QAEPAVexp_symbol@@XZ 00472a50 f   expx:parse_symgen.obj
 0001:00071a70       ?last@ListOfexp_symbol@@QAEPAVexp_symbol@@XZ 00472a70 f   expx:parse_symgen.obj
 0001:00071aa0       ?contains@ListOfexp_symbol@@QAEDPAVexp_symbol@@@Z 00472aa0 f   expx:parse_symgen.obj
 0001:00071ac0       ?_element@ListOfexp_symbol@@QAEPAVexp_symbol@@I@Z 00472ac0 f   expx:parse_symgen.obj
 0001:00071b10       ?slotType@ListOfexp_symbol@@UAEAAVRoseTypePtr@@PAVRoseAttribute@@I@Z 00472b10 f   expx:parse_symgen.obj
 0001:00071b60       ?_address@DictionaryOfexp_symbol@@UAEPAXXZ 00472b60 f   expx:parse_symgen.obj
 0001:00071b70       ?classType@DictionaryOfexp_symbol@@UAEAAVRoseTypePtr@@XZ 00472b70 f   expx:parse_symgen.obj
 0001:00071c00       ?DictionaryOfexp_symbol_INIT_FCN@@YAXAAVRoseTypePtr@@@Z 00472c00 f   expx:parse_symgen.obj
 0001:00071ca0       ??0DictionaryOfexp_symbol@@QAE@XZ 00472ca0 f   expx:parse_symgen.obj
 0001:00071cc0       ??_GDictionaryOfexp_symbol@@UAEPAXI@Z 00472cc0 f i expx:parse_symgen.obj
 0001:00071cc0       ??_EDictionaryOfexp_symbol@@UAEPAXI@Z 00472cc0 f i expx:parse_symgen.obj
 0001:00071ce0       ?activate@DictionaryOfexp_symbol@@UAEXXZ 00472ce0 f   expx:parse_symgen.obj
 0001:00071d20       ?listOfValues@DictionaryOfexp_symbol@@QAEPAVListOfexp_symbol@@XZ 00472d20 f   expx:parse_symgen.obj
 0001:00071da0       ?put@DictionaryOfexp_symbol@@QAEPAV1@PADPAVexp_symbol@@@Z 00472da0 f   expx:parse_symgen.obj
 0001:00071e70       ?removeKey@DictionaryOfexp_symbol@@QAEXPBD@Z 00472e70 f   expx:parse_symgen.obj
 0001:00071ea0       ?removeValue@DictionaryOfexp_symbol@@QAEXPAVexp_symbol@@@Z 00472ea0 f   expx:parse_symgen.obj
 0001:00071f20       ??_EListOfref_bucket@@UAEPAXI@Z 00472f20 f i expx:parse_symgen.obj
 0001:00071f20       ??_GListOfref_bucket@@UAEPAXI@Z 00472f20 f i expx:parse_symgen.obj
 0001:00071f60       ?_address@ListOfref_bucket@@UAEPAXXZ 00472f60 f   expx:parse_symgen.obj
 0001:00071f70       ?classType@ListOfref_bucket@@UAEAAVRoseTypePtr@@XZ 00472f70 f   expx:parse_symgen.obj
 0001:00072010       ?ListOfref_bucket_INIT_FCN@@YAXAAVRoseTypePtr@@@Z 00473010 f   expx:parse_symgen.obj
 0001:000720a0       ?_data@ListOfref_bucket@@QAEPAPAVref_bucket@@XZ 004730a0 f   expx:parse_symgen.obj
 0001:000720b0       ??AListOfref_bucket@@QAEPAVref_bucket@@I@Z 004730b0 f   expx:parse_symgen.obj
 0001:000720e0       ?get@ListOfref_bucket@@QAEPAVref_bucket@@I@Z 004730e0 f   expx:parse_symgen.obj
 0001:00072110       ?first@ListOfref_bucket@@QAEPAVref_bucket@@XZ 00473110 f   expx:parse_symgen.obj
 0001:00072130       ?last@ListOfref_bucket@@QAEPAVref_bucket@@XZ 00473130 f   expx:parse_symgen.obj
 0001:00072160       ?contains@ListOfref_bucket@@QAEDPAVref_bucket@@@Z 00473160 f   expx:parse_symgen.obj
 0001:00072180       ?_element@ListOfref_bucket@@QAEPAVref_bucket@@I@Z 00473180 f   expx:parse_symgen.obj
 0001:000721a0       ?slotType@ListOfref_bucket@@UAEAAVRoseTypePtr@@PAVRoseAttribute@@I@Z 004731a0 f   expx:parse_symgen.obj
 0001:000721e0       ??_GListOfListOfref_bucket@@UAEPAXI@Z 004731e0 f i expx:parse_symgen.obj
 0001:000721e0       ??_EListOfListOfref_bucket@@UAEPAXI@Z 004731e0 f i expx:parse_symgen.obj
 0001:00072220       ?_address@ListOfListOfref_bucket@@UAEPAXXZ 00473220 f   expx:parse_symgen.obj
 0001:00072230       ?classType@ListOfListOfref_bucket@@UAEAAVRoseTypePtr@@XZ 00473230 f   expx:parse_symgen.obj
 0001:000722d0       ?ListOfListOfref_bucket_INIT_FCN@@YAXAAVRoseTypePtr@@@Z 004732d0 f   expx:parse_symgen.obj
 0001:00072360       ?_data@ListOfListOfref_bucket@@QAEPAPAVListOfref_bucket@@XZ 00473360 f   expx:parse_symgen.obj
 0001:00072370       ??AListOfListOfref_bucket@@QAEPAVListOfref_bucket@@I@Z 00473370 f   expx:parse_symgen.obj
 0001:000723a0       ?get@ListOfListOfref_bucket@@QAEPAVListOfref_bucket@@I@Z 004733a0 f   expx:parse_symgen.obj
 0001:000723d0       ?first@ListOfListOfref_bucket@@QAEPAVListOfref_bucket@@XZ 004733d0 f   expx:parse_symgen.obj
 0001:000723f0       ?last@ListOfListOfref_bucket@@QAEPAVListOfref_bucket@@XZ 004733f0 f   expx:parse_symgen.obj
 0001:00072420       ?contains@ListOfListOfref_bucket@@QAEDPAVListOfref_bucket@@@Z 00473420 f   expx:parse_symgen.obj
 0001:00072440       ?_element@ListOfListOfref_bucket@@QAEPAVListOfref_bucket@@I@Z 00473440 f   expx:parse_symgen.obj
 0001:00072460       ?slotType@ListOfListOfref_bucket@@UAEAAVRoseTypePtr@@PAVRoseAttribute@@I@Z 00473460 f   expx:parse_symgen.obj
 0001:000724b0       ?_address@DictionaryOfListOfref_bucket@@UAEPAXXZ 004734b0 f   expx:parse_symgen.obj
 0001:000724c0       ?classType@DictionaryOfListOfref_bucket@@UAEAAVRoseTypePtr@@XZ 004734c0 f   expx:parse_symgen.obj
 0001:00072550       ?DictionaryOfListOfref_bucket_INIT_FCN@@YAXAAVRoseTypePtr@@@Z 00473550 f   expx:parse_symgen.obj
 0001:000725f0       ??0DictionaryOfListOfref_bucket@@QAE@XZ 004735f0 f   expx:parse_symgen.obj
 0001:00072610       ??_GDictionaryOfListOfref_bucket@@UAEPAXI@Z 00473610 f i expx:parse_symgen.obj
 0001:00072610       ??_EDictionaryOfListOfref_bucket@@UAEPAXI@Z 00473610 f i expx:parse_symgen.obj
 0001:00072630       ?activate@DictionaryOfListOfref_bucket@@UAEXXZ 00473630 f   expx:parse_symgen.obj
 0001:00072670       ?listOfValues@DictionaryOfListOfref_bucket@@QAEPAVListOfListOfref_bucket@@XZ 00473670 f   expx:parse_symgen.obj
 0001:000726f0       ?put@DictionaryOfListOfref_bucket@@QAEPAV1@PADPAVListOfref_bucket@@@Z 004736f0 f   expx:parse_symgen.obj
 0001:000727b0       ?removeKey@DictionaryOfListOfref_bucket@@QAEXPBD@Z 004737b0 f   expx:parse_symgen.obj
 0001:000727e0       ?removeValue@DictionaryOfListOfref_bucket@@QAEXPAVListOfref_bucket@@@Z 004737e0 f   expx:parse_symgen.obj
 0001:00072860       ??_EListOfexp_scope@@UAEPAXI@Z 00473860 f i expx:parse_symgen.obj
 0001:00072860       ??_GListOfexp_scope@@UAEPAXI@Z 00473860 f i expx:parse_symgen.obj
 0001:000728a0       ?_address@ListOfexp_scope@@UAEPAXXZ 004738a0 f   expx:parse_symgen.obj
 0001:000728b0       ?classType@ListOfexp_scope@@UAEAAVRoseTypePtr@@XZ 004738b0 f   expx:parse_symgen.obj
 0001:00072960       ?ListOfexp_scope_INIT_FCN@@YAXAAVRoseTypePtr@@@Z 00473960 f   expx:parse_symgen.obj
 0001:00072a20       ?_data@ListOfexp_scope@@QAEPAPAVexp_scope@@XZ 00473a20 f   expx:parse_symgen.obj
 0001:00072a30       ??AListOfexp_scope@@QAEPAVexp_scope@@I@Z 00473a30 f   expx:parse_symgen.obj
 0001:00072a60       ?get@ListOfexp_scope@@QAEPAVexp_scope@@I@Z 00473a60 f   expx:parse_symgen.obj
 0001:00072a90       ?first@ListOfexp_scope@@QAEPAVexp_scope@@XZ 00473a90 f   expx:parse_symgen.obj
 0001:00072ab0       ?last@ListOfexp_scope@@QAEPAVexp_scope@@XZ 00473ab0 f   expx:parse_symgen.obj
 0001:00072ae0       ?contains@ListOfexp_scope@@QAEDPAVexp_scope@@@Z 00473ae0 f   expx:parse_symgen.obj
 0001:00072b00       ?_element@ListOfexp_scope@@QAEPAVexp_scope@@I@Z 00473b00 f   expx:parse_symgen.obj
 0001:00072b50       ?slotType@ListOfexp_scope@@UAEAAVRoseTypePtr@@PAVRoseAttribute@@I@Z 00473b50 f   expx:parse_symgen.obj
 0001:00072cc0       ?parser_find_symbol@@YAPAVexp_symbol@@PAD@Z 00473cc0 f   expx:parse_symgen.obj
 0001:00072de0       ?parser_undefined_symbol@@YAPAVexp_symbol@@XZ 00473de0 f   expx:parse_symgen.obj
 0001:00072ee0       ?parser_find_sym_in_scope@@YAPAVexp_definition@@PAVexp_symbol@@PAVexp_scope@@@Z 00473ee0 f   expx:parse_symgen.obj
 0001:00072f60       ?parser_find_sym_in_supers@@YAPAVexp_definition@@PAVexp_symbol@@PAVexp_entity@@@Z 00473f60 f   expx:parse_symgen.obj
 0001:00073090       ?parser_find_sym_defn@@YAPAVexp_definition@@PAVexp_symbol@@PAVexp_scope@@@Z 00474090 f   expx:parse_symgen.obj
 0001:00073780       ?parser_add_defn_to_scope@@YAXPAVexp_definition@@PAVexp_scope@@@Z 00474780 f   expx:parse_symgen.obj
 0001:000737a0       ?parser_in_subroutine@@YAHH@Z 004747a0 f   expx:parse_symgen.obj
 0001:00073870       ?parser_find_ref@@YAPAVexp_binding@@PADPAVexp_scope@@PAVexp_symbol@@@Z 00474870 f   expx:parse_symgen.obj
 0001:00073980       ?parser_find_ref@@YAPAVexp_binding@@PAVexp_symbol@@PAVexp_scope@@@Z 00474980 f   expx:parse_symgen.obj
 0001:000739a0       ?parser_find_ref@@YAPAVexp_binding@@PAVexp_symbol@@0PAVexp_scope@@@Z 004749a0 f   expx:parse_symgen.obj
 0001:00073a60       ?parser_stale_scope@@YAHPAVexp_scope@@@Z 00474a60 f   expx:parse_symgen.obj
 0001:00073ae0       ?dummy_name@@YAPADPAD@Z    00474ae0 f   expx:misc.obj
 0001:00073bf0       ?dummy_scope@@YAPAVexp_scope@@PAD@Z 00474bf0 f   expx:misc.obj
 0001:00073ca0       ?dummy_binding@@YAPAVexp_binding@@PAVexp_symbol@@PAVexp_definition@@@Z 00474ca0 f   expx:misc.obj
 0001:00073d00       ?builtin_function@@YAPAVexp_subroutine@@PAD@Z 00474d00 f   expx:misc.obj
 0001:00073e20       ?param@@YAPAVexp_parameter@@PAVexp_definition@@PAVexp_type_ref@@@Z 00474e20 f   expx:misc.obj
 0001:00073ea0       ?ref_param@@YAPAVexp_parameter@@PAVexp_definition@@PAVexp_type_ref@@@Z 00474ea0 f   expx:misc.obj
 0001:00073ed0       ?number_ref@@YAPAVexp_type_ref@@XZ 00474ed0 f   expx:misc.obj
 0001:00073f10       ?real_ref@@YAPAVexp_type_ref@@XZ 00474f10 f   expx:misc.obj
 0001:00073f50       ?integer_ref@@YAPAVexp_type_ref@@XZ 00474f50 f   expx:misc.obj
 0001:00073f90       ?binary_ref@@YAPAVexp_type_ref@@XZ 00474f90 f   expx:misc.obj
 0001:00073fd0       ?string_ref@@YAPAVexp_type_ref@@XZ 00474fd0 f   expx:misc.obj
 0001:00074010       ?boolean_ref@@YAPAVexp_type_ref@@XZ 00475010 f   expx:misc.obj
 0001:00074050       ?logical_ref@@YAPAVexp_type_ref@@XZ 00475050 f   expx:misc.obj
 0001:00074090       ?generic_ref@@YAPAVexp_type_ref@@PADPAVexp_scope@@@Z 00475090 f   expx:misc.obj
 0001:000741e0       ?agg_ref@@YAPAVexp_type_ref@@PAV1@0@Z 004751e0 f   expx:misc.obj
 0001:00074270       ?list_ref@@YAPAVexp_type_ref@@PAV1@@Z 00475270 f   expx:misc.obj
 0001:000742e0       ?set_ref@@YAPAVexp_type_ref@@PAV1@@Z 004752e0 f   expx:misc.obj
 0001:00074340       ?bag_ref@@YAPAVexp_type_ref@@PAV1@@Z 00475340 f   expx:misc.obj
 0001:000743a0       ?place_qualifyee@@YAPAVexp_expression@@PAV1@PAVexp_op_expression@@@Z 004753a0 f   expx:misc.obj
 0001:00074490       ??_EListOfexp_localvar@@UAEPAXI@Z 00475490 f i expx:parse.obj
 0001:00074490       ??_GListOfexp_localvar@@UAEPAXI@Z 00475490 f i expx:parse.obj
 0001:000744d0       ?_address@ListOfexp_localvar@@UAEPAXXZ 004754d0 f   expx:parse.obj
 0001:000744e0       ?classType@ListOfexp_localvar@@UAEAAVRoseTypePtr@@XZ 004754e0 f   expx:parse.obj
 0001:00074590       ?ListOfexp_localvar_INIT_FCN@@YAXAAVRoseTypePtr@@@Z 00475590 f   expx:parse.obj
 0001:00074650       ?_data@ListOfexp_localvar@@QAEPAPAVexp_localvar@@XZ 00475650 f   expx:parse.obj
 0001:00074660       ??AListOfexp_localvar@@QAEPAVexp_localvar@@I@Z 00475660 f   expx:parse.obj
 0001:00074690       ?get@ListOfexp_localvar@@QAEPAVexp_localvar@@I@Z 00475690 f   expx:parse.obj
 0001:000746c0       ?first@ListOfexp_localvar@@QAEPAVexp_localvar@@XZ 004756c0 f   expx:parse.obj
 0001:000746e0       ?last@ListOfexp_localvar@@QAEPAVexp_localvar@@XZ 004756e0 f   expx:parse.obj
 0001:00074710       ?contains@ListOfexp_localvar@@QAEDPAVexp_localvar@@@Z 00475710 f   expx:parse.obj
 0001:00074730       ?_element@ListOfexp_localvar@@QAEPAVexp_localvar@@I@Z 00475730 f   expx:parse.obj
 0001:00074780       ?slotType@ListOfexp_localvar@@UAEAAVRoseTypePtr@@PAVRoseAttribute@@I@Z 00475780 f   expx:parse.obj
 0001:000747d0       ?yyerror@@YAXPAD@Z         004757d0 f   expx:parse.obj
 0001:00074940       ?yyparse@@YAHXZ            00475940 f   expx:parse.obj
 0001:00083b90       ?find@DictionaryOfRoseObject@@QAEPAVRoseObject@@PBD@Z 00484b90 f i expx:parse.obj
 0001:00083bb0       ?_exp_aggregate_value@exp_literal_value@@QAEPAVexp_aggregate_value@@XZ 00484bb0 f i expx:parse.obj
 0001:00083bd0       ?_exp_aggregate_value@exp_literal_value@@QAEXPAVexp_aggregate_value@@@Z 00484bd0 f i expx:parse.obj
 0001:00083c00       ?_exp_boolean_value@exp_literal_value@@QAEXD@Z 00484c00 f i expx:parse.obj
 0001:00083c30       ?_exp_integer_value@exp_literal_value@@QAEXH@Z 00484c30 f i expx:parse.obj
 0001:00083c60       ?_exp_logical_value@exp_literal_value@@QAEXD@Z 00484c60 f i expx:parse.obj
 0001:00083c90       ?_exp_real_value@exp_literal_value@@QAEXN@Z 00484c90 f i expx:parse.obj
 0001:00083cc0       ?_exp_string_value@exp_literal_value@@QAEXPAD@Z 00484cc0 f i expx:parse.obj
 0001:00083cf0       ??0ListOfexp_definition@@QAE@I@Z 00484cf0 f i expx:parse.obj
 0001:00083d10       ?val@exp_symbol@@QAEXPAD@Z 00484d10 f i expx:parse.obj
 0001:00083d40       ?symbol@exp_binding@@QAEXPAVexp_symbol@@@Z 00484d40 f i expx:parse.obj
 0001:00083d60       ?source_file@exp_construct@@QAEPAVexp_source_file@@XZ 00484d60 f i expx:parse.obj
 0001:00083d90       ?source_file@exp_construct@@QAEXPAVexp_source_file@@@Z 00484d90 f i expx:parse.obj
 0001:00083db0       ?source_line@exp_construct@@QAEXH@Z 00484db0 f i expx:parse.obj
 0001:00083dd0       ?name@exp_definition@@QAEXPAVexp_symbol@@@Z 00484dd0 f i expx:parse.obj
 0001:00083df0       ?scope@exp_definition@@QAEXPAVexp_scope@@@Z 00484df0 f i expx:parse.obj
 0001:00083e10       ?contents@exp_scope@@QAEXPAVListOfexp_definition@@@Z 00484e10 f i expx:parse.obj
 0001:00083e30       ??0ListOfexp_where_clause@@QAE@I@Z 00484e30 f i expx:parse.obj
 0001:00083e50       ?constraints@exp_named_type@@QAEXPAVListOfexp_where_clause@@@Z 00484e50 f i expx:parse.obj
 0001:00083e70       ?property_of@exp_property@@QAEPAVexp_definition@@XZ 00484e70 f i expx:parse.obj
 0001:00083ea0       ?property_of@exp_property@@QAEXPAVexp_definition@@@Z 00484ea0 f i expx:parse.obj
 0001:00083ec0       ?base_type@exp_defined_type@@QAEXPAVexp_type_ref@@@Z 00484ec0 f i expx:parse.obj
 0001:00083ee0       ??0ListOfexp_identifier@@QAE@I@Z 00484ee0 f i expx:parse.obj
 0001:00083f00       ?base_types@exp_select@@QAEXPAVListOfexp_identifier@@@Z 00484f00 f i expx:parse.obj
 0001:00083f20       ??0ListOfexp_enum_item@@QAE@I@Z 00484f20 f i expx:parse.obj
 0001:00083f40       ?enumerators@exp_enum@@QAEXPAVListOfexp_enum_item@@@Z 00484f40 f i expx:parse.obj
 0001:00083f60       ??0ListOfexp_enum_value@@QAE@I@Z 00484f60 f i expx:parse.obj
 0001:00083f80       ?used_by@exp_enum_item@@QAEXPAVListOfexp_enum_value@@@Z 00484f80 f i expx:parse.obj
 0001:00083fa0       ?rank@exp_enum_value@@QAEXH@Z 00484fa0 f i expx:parse.obj
 0001:00083fc0       ??0ListOfexp_entity@@QAE@I@Z 00484fc0 f i expx:parse.obj
 0001:00083fe0       ??0ListOfexp_explicit@@QAE@I@Z 00484fe0 f i expx:parse.obj
 0001:00084000       ??0ListOfexp_derived@@QAE@I@Z 00485000 f i expx:parse.obj
 0001:00084020       ??0ListOfexp_unique@@QAE@I@Z 00485020 f i expx:parse.obj
 0001:00084040       ??0ListOfexp_inverse@@QAE@I@Z 00485040 f i expx:parse.obj
 0001:00084060       ?supertypes@exp_entity@@QAEXPAVListOfexp_identifier@@@Z 00485060 f i expx:parse.obj
 0001:00084080       ?subtypes@exp_entity@@QAEXPAVListOfexp_entity@@@Z 00485080 f i expx:parse.obj
 0001:000840a0       ?subtype_expression@exp_entity@@QAEXPAVexp_expression@@@Z 004850a0 f i expx:parse.obj
 0001:000840c0       ?explicit_atts@exp_entity@@QAEXPAVListOfexp_explicit@@@Z 004850c0 f i expx:parse.obj
 0001:000840e0       ?derived_atts@exp_entity@@QAEXPAVListOfexp_derived@@@Z 004850e0 f i expx:parse.obj
 0001:00084100       ?unique_atts@exp_entity@@QAEXPAVListOfexp_unique@@@Z 00485100 f i expx:parse.obj
 0001:00084120       ?inverse_atts@exp_entity@@QAEXPAVListOfexp_inverse@@@Z 00485120 f i expx:parse.obj
 0001:00084140       ?is_abstract@exp_entity@@QAEXD@Z 00485140 f i expx:parse.obj
 0001:00084160       ??0ListOfexp_schema_imports@@QAE@I@Z 00485160 f i expx:parse.obj
 0001:00084180       ?imports@exp_schema@@QAEXPAVListOfexp_schema_imports@@@Z 00485180 f i expx:parse.obj
 0001:000841a0       ??0ListOfexp_foreign_ref@@QAE@I@Z 004851a0 f i expx:parse.obj
 0001:000841c0       ?referenced_only@exp_schema_imports@@QAEXD@Z 004851c0 f i expx:parse.obj
 0001:000841e0       ?imported_schema@exp_schema_imports@@QAEPAVexp_identifier@@XZ 004851e0 f i expx:parse.obj
 0001:00084210       ?imported_schema@exp_schema_imports@@QAEXPAVexp_identifier@@@Z 00485210 f i expx:parse.obj
 0001:00084230       ?imported_types@exp_schema_imports@@QAEXPAVListOfexp_foreign_ref@@@Z 00485230 f i expx:parse.obj
 0001:00084250       ?real_name@exp_foreign_ref@@QAEXPAVexp_symbol@@@Z 00485250 f i expx:parse.obj
 0001:00084270       ??0ListOfexp_statement@@QAE@I@Z 00485270 f i expx:parse.obj
 0001:00084290       ?body@exp_algorithm@@QAEXPAVListOfexp_statement@@@Z 00485290 f i expx:parse.obj
 0001:000842b0       ??0ListOfexp_parameter@@QAE@I@Z 004852b0 f i expx:parse.obj
 0001:000842d0       ?parameters@exp_rule@@QAEXPAVListOfexp_parameter@@@Z 004852d0 f i expx:parse.obj
 0001:000842f0       ?clauses@exp_rule@@QAEXPAVListOfexp_where_clause@@@Z 004852f0 f i expx:parse.obj
 0001:00084310       ?parameters@exp_subroutine@@QAEXPAVListOfexp_parameter@@@Z 00485310 f i expx:parse.obj
 0001:00084330       ?return_type@exp_subroutine@@QAEXPAVexp_type_ref@@@Z 00485330 f i expx:parse.obj
 0001:00084350       ??0ListOfexp_extended_entity_ref@@QAE@I@Z 00485350 f i expx:parse.obj
 0001:00084370       ?target@exp_view@@QAEXPAVexp_extended_entity_ref@@@Z 00485370 f i expx:parse.obj
 0001:00084390       ?parameters@exp_view@@QAEXPAVListOfexp_extended_entity_ref@@@Z 00485390 f i expx:parse.obj
 0001:000843b0       ?when_clause@exp_view@@QAEXPAVListOfexp_where_clause@@@Z 004853b0 f i expx:parse.obj
 0001:000843d0       ?target@exp_compose@@QAEXPAVexp_extended_entity_ref@@@Z 004853d0 f i expx:parse.obj
 0001:000843f0       ?parameters@exp_compose@@QAEXPAVListOfexp_extended_entity_ref@@@Z 004853f0 f i expx:parse.obj
 0001:00084410       ?when_clause@exp_compose@@QAEXPAVListOfexp_where_clause@@@Z 00485410 f i expx:parse.obj
 0001:00084430       ?parameters@exp_from_stmt@@QAEXPAVListOfexp_extended_entity_ref@@@Z 00485430 f i expx:parse.obj
 0001:00084450       ?when_clause@exp_from_stmt@@QAEXPAVListOfexp_where_clause@@@Z 00485450 f i expx:parse.obj
 0001:00084470       ?item@exp_new@@QAEXPAVexp_expression@@@Z 00485470 f i expx:parse.obj
 0001:00084490       ?binding@exp_identifier@@QAEXPAVexp_binding@@@Z 00485490 f i expx:parse.obj
 0001:000844b0       ?schema_inst@exp_extended_id@@QAEPAVexp_identifier@@XZ 004854b0 f i expx:parse.obj
 0001:000844e0       ?schema_inst@exp_extended_id@@QAEXPAVexp_identifier@@@Z 004854e0 f i expx:parse.obj
 0001:00084500       ?cast_to@exp_cast@@QAEXPAVexp_type_ref@@@Z 00485500 f i expx:parse.obj
 0001:00084520       ?expression@exp_cast@@QAEXPAVexp_expression@@@Z 00485520 f i expx:parse.obj
 0001:00084540       ??0ListOfexp_partition@@QAE@I@Z 00485540 f i expx:parse.obj
 0001:00084560       ?subtype_view@exp_view2@@QAEXPAVexp_identifier@@@Z 00485560 f i expx:parse.obj
 0001:00084580       ?subtype_partition@exp_view2@@QAEXPAVexp_identifier@@@Z 00485580 f i expx:parse.obj
 0001:000845a0       ?partitions@exp_view2@@QAEXPAVListOfexp_partition@@@Z 004855a0 f i expx:parse.obj
 0001:000845c0       ??0ListOfexp_expression@@QAE@I@Z 004855c0 f i expx:parse.obj
 0001:000845e0       ??0ListOfexp_view_attribute@@QAE@I@Z 004855e0 f i expx:parse.obj
 0001:00084600       ?from_clause@exp_partition@@QAEXPAVListOfexp_parameter@@@Z 00485600 f i expx:parse.obj
 0001:00084620       ?id_by@exp_partition@@QAEXPAVListOfexp_expression@@@Z 00485620 f i expx:parse.obj
 0001:00084640       ?where_clause@exp_partition@@QAEXPAVListOfexp_where_clause@@@Z 00485640 f i expx:parse.obj
 0001:00084660       ?body@exp_partition@@QAEXPAVListOfexp_view_attribute@@@Z 00485660 f i expx:parse.obj
 0001:00084680       ?derived_atts@exp_partition@@QAEXPAVListOfexp_derived@@@Z 00485680 f i expx:parse.obj
 0001:000846a0       ?unique_atts@exp_partition@@QAEXPAVListOfexp_unique@@@Z 004856a0 f i expx:parse.obj
 0001:000846c0       ?inverse_atts@exp_partition@@QAEXPAVListOfexp_inverse@@@Z 004856c0 f i expx:parse.obj
 0001:000846e0       ?constraints@exp_partition@@QAEXPAVListOfexp_where_clause@@@Z 004856e0 f i expx:parse.obj
 0001:00084700       ?value_type@exp_view_attribute@@QAEXPAVexp_type_ref@@@Z 00485700 f i expx:parse.obj
 0001:00084720       ?val@exp_view_attribute@@QAEXPAVexp_expression@@@Z 00485720 f i expx:parse.obj
 0001:00084740       ?is_optional@exp_view_attribute@@QAEXD@Z 00485740 f i expx:parse.obj
 0001:00084760       ?condition@exp_view_conditional_expr@@QAEXPAVexp_expression@@@Z 00485760 f i expx:parse.obj
 0001:00084780       ?if_part@exp_view_conditional_expr@@QAEXPAVexp_expression@@@Z 00485780 f i expx:parse.obj
 0001:000847a0       ?else_part@exp_view_conditional_expr@@QAEXPAVexp_expression@@@Z 004857a0 f i expx:parse.obj
 0001:000847c0       ?instance_of@exp_create@@QAEXPAVexp_identifier@@@Z 004857c0 f i expx:parse.obj
 0001:000847e0       ?body@exp_create@@QAEXPAVListOfexp_view_attribute@@@Z 004857e0 f i expx:parse.obj
 0001:00084800       ?const_type@exp_constant@@QAEXPAVexp_type_ref@@@Z 00485800 f i expx:parse.obj
 0001:00084820       ?const_value@exp_constant@@QAEXPAVexp_expression@@@Z 00485820 f i expx:parse.obj
 0001:00084840       ?redeclares@exp_attribute@@QAEXPAVexp_op_expression@@@Z 00485840 f i expx:parse.obj
 0001:00084860       ?value_type@exp_attribute@@QAEXPAVexp_type_ref@@@Z 00485860 f i expx:parse.obj
 0001:00084880       ?value_optional@exp_explicit@@QAEXD@Z 00485880 f i expx:parse.obj
 0001:000848a0       ?val@exp_derived@@QAEXPAVexp_expression@@@Z 004858a0 f i expx:parse.obj
 0001:000848c0       ?for_attrib@exp_inverse@@QAEXPAVexp_identifier@@@Z 004858c0 f i expx:parse.obj
 0001:000848e0       ?for_attrib@exp_unique@@QAEXPAVListOfexp_expression@@@Z 004858e0 f i expx:parse.obj
 0001:00084900       ?expression@exp_where_clause@@QAEXPAVexp_expression@@@Z 00485900 f i expx:parse.obj
 0001:00084920       ?value_type@exp_variable@@QAEXPAVexp_type_ref@@@Z 00485920 f i expx:parse.obj
 0001:00084940       ?pass_by_ref@exp_parameter@@QAEXD@Z 00485940 f i expx:parse.obj
 0001:00084960       ?initializer@exp_localvar@@QAEXPAVexp_expression@@@Z 00485960 f i expx:parse.obj
 0001:00084980       ?schema_inst@exp_extended_entity_ref@@QAEXPAVexp_identifier@@@Z 00485980 f i expx:parse.obj
 0001:000849a0       ?simple_type@exp_simple_ref@@QAEXW4exp_simple_type@@@Z 004859a0 f i expx:parse.obj
 0001:000849c0       ?val_precision@exp_simple_ref@@QAEXPAVexp_expression@@@Z 004859c0 f i expx:parse.obj
 0001:000849e0       ?val_fixed@exp_simple_ref@@QAEXD@Z 004859e0 f i expx:parse.obj
 0001:00084a00       ?lower_bound@exp_aggregate_type@@QAEXPAVexp_expression@@@Z 00485a00 f i expx:parse.obj
 0001:00084a20       ?upper_bound@exp_aggregate_type@@QAEXPAVexp_expression@@@Z 00485a20 f i expx:parse.obj
 0001:00084a40       ?elem_optional@exp_array_type@@QAEXD@Z 00485a40 f i expx:parse.obj
 0001:00084a60       ?elem_unique@exp_array_type@@QAEXD@Z 00485a60 f i expx:parse.obj
 0001:00084a80       ?elem_unique@exp_list_type@@QAEXD@Z 00485a80 f i expx:parse.obj
 0001:00084aa0       ?agg_type@exp_aggregate_ref@@QAEXPAVexp_type_ref@@@Z 00485aa0 f i expx:parse.obj
 0001:00084ac0       ?base_type@exp_aggregate_ref@@QAEXPAVexp_type_ref@@@Z 00485ac0 f i expx:parse.obj
 0001:00084ae0       ?op_code@exp_op_expression@@QAEXW4exp_operator@@@Z 00485ae0 f i expx:parse.obj
 0001:00084b00       ?lvalue@exp_op_expression@@QAEXPAVexp_expression@@@Z 00485b00 f i expx:parse.obj
 0001:00084b20       ?rvalue@exp_op_expression@@QAEXPAVexp_expression@@@Z 00485b20 f i expx:parse.obj
 0001:00084b40       ?from_range@exp_query@@QAEXPAVexp_expression@@@Z 00485b40 f i expx:parse.obj
 0001:00084b60       ?discriminant@exp_query@@QAEXPAVexp_expression@@@Z 00485b60 f i expx:parse.obj
 0001:00084b80       ?algorithm@exp_function_call@@QAEXPAVexp_identifier@@@Z 00485b80 f i expx:parse.obj
 0001:00084ba0       ?parameters@exp_function_call@@QAEXPAVListOfexp_expression@@@Z 00485ba0 f i expx:parse.obj
 0001:00084bc0       ?value_elems@exp_aggregate_value@@QAEXPAVListOfexp_expression@@@Z 00485bc0 f i expx:parse.obj
 0001:00084be0       ?reps@exp_aggregate_value@@QAEXPAVListOfexp_expression@@@Z 00485be0 f i expx:parse.obj
 0001:00084c00       ?val@exp_literal@@QAEPAVexp_literal_value@@XZ 00485c00 f i expx:parse.obj
 0001:00084c30       ?val@exp_literal@@QAEXPAVexp_literal_value@@@Z 00485c30 f i expx:parse.obj
 0001:00084c50       ?var_def@exp_alias@@QAEXPAVexp_expression@@@Z 00485c50 f i expx:parse.obj
 0001:00084c70       ?body@exp_alias@@QAEXPAVListOfexp_statement@@@Z 00485c70 f i expx:parse.obj
 0001:00084c90       ?lvalue@exp_assignment@@QAEXPAVexp_expression@@@Z 00485c90 f i expx:parse.obj
 0001:00084cb0       ?rvalue@exp_assignment@@QAEXPAVexp_expression@@@Z 00485cb0 f i expx:parse.obj
 0001:00084cd0       ?coerce_to@exp_assignment@@QAEXPAVexp_identifier@@@Z 00485cd0 f i expx:parse.obj
 0001:00084cf0       ?asstype@exp_assignment@@QAEXH@Z 00485cf0 f i expx:parse.obj
 0001:00084d10       ?val@exp_return@@QAEXPAVexp_expression@@@Z 00485d10 f i expx:parse.obj
 0001:00084d30       ?body@exp_compound@@QAEXPAVListOfexp_statement@@@Z 00485d30 f i expx:parse.obj
 0001:00084d50       ??0ListOfexp_case_item@@QAE@I@Z 00485d50 f i expx:parse.obj
 0001:00084d70       ?selector@exp_case@@QAEXPAVexp_expression@@@Z 00485d70 f i expx:parse.obj
 0001:00084d90       ?labeled_cases@exp_case@@QAEXPAVListOfexp_case_item@@@Z 00485d90 f i expx:parse.obj
 0001:00084db0       ?otherwise_case@exp_case@@QAEXPAVexp_statement@@@Z 00485db0 f i expx:parse.obj
 0001:00084dd0       ?labels@exp_case_item@@QAEXPAVListOfexp_expression@@@Z 00485dd0 f i expx:parse.obj
 0001:00084df0       ?body@exp_case_item@@QAEXPAVexp_statement@@@Z 00485df0 f i expx:parse.obj
 0001:00084e10       ?condition@exp_if@@QAEXPAVexp_expression@@@Z 00485e10 f i expx:parse.obj
 0001:00084e30       ?then_body@exp_if@@QAEXPAVListOfexp_statement@@@Z 00485e30 f i expx:parse.obj
 0001:00084e50       ?else_body@exp_if@@QAEXPAVListOfexp_statement@@@Z 00485e50 f i expx:parse.obj
 0001:00084e70       ?body@exp_repeat@@QAEXPAVListOfexp_statement@@@Z 00485e70 f i expx:parse.obj
 0001:00084e90       ?low_bound@exp_repeat@@QAEXPAVexp_expression@@@Z 00485e90 f i expx:parse.obj
 0001:00084eb0       ?high_bound@exp_repeat@@QAEXPAVexp_expression@@@Z 00485eb0 f i expx:parse.obj
 0001:00084ed0       ?increment@exp_repeat@@QAEXPAVexp_expression@@@Z 00485ed0 f i expx:parse.obj
 0001:00084ef0       ?while_cond@exp_repeat@@QAEXPAVexp_expression@@@Z 00485ef0 f i expx:parse.obj
 0001:00084f10       ?until_cond@exp_repeat@@QAEXPAVexp_expression@@@Z 00485f10 f i expx:parse.obj
 0001:00084f30       ?proc@exp_procedure_call@@QAEXPAVexp_identifier@@@Z 00485f30 f i expx:parse.obj
 0001:00084f50       ?parameters@exp_procedure_call@@QAEXPAVListOfexp_expression@@@Z 00485f50 f i expx:parse.obj
 0001:00084f70       ?target@exp_member@@QAEXPAVexp_extended_entity_ref@@@Z 00485f70 f i expx:parse.obj
 0001:00084f90       ?parameters@exp_member@@QAEXPAVListOfexp_extended_entity_ref@@@Z 00485f90 f i expx:parse.obj
 0001:00084fb0       ?when_clause@exp_member@@QAEXPAVListOfexp_where_clause@@@Z 00485fb0 f i expx:parse.obj
 0001:00084fd0       ?includes@exp_member@@QAEXPAVListOfexp_expression@@@Z 00485fd0 f i expx:parse.obj
 0001:00084ff0       ?excludes@exp_member@@QAEXPAVListOfexp_expression@@@Z 00485ff0 f i expx:parse.obj
 0001:00085010       ?clause@exp_when_stmt@@QAEXPAVListOfexp_where_clause@@@Z 00486010 f i expx:parse.obj
 0001:00085030       ?body@exp_when_stmt@@QAEXPAVListOfexp_statement@@@Z 00486030 f i expx:parse.obj
 0001:000850d0       ?_address@SetOfBinding@@UAEPAXXZ 004860d0 f   expx:expv.obj
 0001:000850e0       ?classType@SetOfBinding@@UAEAAVRoseTypePtr@@XZ 004860e0 f   expx:expv.obj
 0001:00085180       ?SetOfBinding_INIT_FCN@@YAXAAVRoseTypePtr@@@Z 00486180 f   expx:expv.obj
 0001:00085210       ?_data@SetOfBinding@@QAEPAPAVBinding@@XZ 00486210 f   expx:expv.obj
 0001:00085220       ??ASetOfBinding@@QAEPAVBinding@@I@Z 00486220 f   expx:expv.obj
 0001:00085250       ?get@SetOfBinding@@QAEPAVBinding@@I@Z 00486250 f   expx:expv.obj
 0001:00085280       ?first@SetOfBinding@@QAEPAVBinding@@XZ 00486280 f   expx:expv.obj
 0001:000852a0       ?last@SetOfBinding@@QAEPAVBinding@@XZ 004862a0 f   expx:expv.obj
 0001:000852d0       ?contains@SetOfBinding@@QAEDPAVBinding@@@Z 004862d0 f   expx:expv.obj
 0001:000852f0       ?_element@SetOfBinding@@QAEPAVBinding@@I@Z 004862f0 f   expx:expv.obj
 0001:00085310       ?slotType@SetOfBinding@@UAEAAVRoseTypePtr@@PAVRoseAttribute@@I@Z 00486310 f   expx:expv.obj
 0001:00085350       ??_GSetOfBindingObject@@UAEPAXI@Z 00486350 f i expx:expv.obj
 0001:00085350       ??_ESetOfBindingObject@@UAEPAXI@Z 00486350 f i expx:expv.obj
 0001:00085390       ?_address@SetOfBindingObject@@UAEPAXXZ 00486390 f   expx:expv.obj
 0001:000853a0       ?classType@SetOfBindingObject@@UAEAAVRoseTypePtr@@XZ 004863a0 f   expx:expv.obj
 0001:00085440       ?SetOfBindingObject_INIT_FCN@@YAXAAVRoseTypePtr@@@Z 00486440 f   expx:expv.obj
 0001:000854d0       ?_data@SetOfBindingObject@@QAEPAPAVBindingObject@@XZ 004864d0 f   expx:expv.obj
 0001:000854e0       ??ASetOfBindingObject@@QAEPAVBindingObject@@I@Z 004864e0 f   expx:expv.obj
 0001:00085510       ?get@SetOfBindingObject@@QAEPAVBindingObject@@I@Z 00486510 f   expx:expv.obj
 0001:00085540       ?first@SetOfBindingObject@@QAEPAVBindingObject@@XZ 00486540 f   expx:expv.obj
 0001:00085560       ?last@SetOfBindingObject@@QAEPAVBindingObject@@XZ 00486560 f   expx:expv.obj
 0001:00085590       ?contains@SetOfBindingObject@@QAEDPAVBindingObject@@@Z 00486590 f   expx:expv.obj
 0001:000855b0       ?_element@SetOfBindingObject@@QAEPAVBindingObject@@I@Z 004865b0 f   expx:expv.obj
 0001:000855d0       ?slotType@SetOfBindingObject@@UAEAAVRoseTypePtr@@PAVRoseAttribute@@I@Z 004865d0 f   expx:expv.obj
 0001:00085610       ??_GListOfExtentPartitionListElem@@UAEPAXI@Z 00486610 f i expx:expv.obj
 0001:00085610       ??_EListOfExtentPartitionListElem@@UAEPAXI@Z 00486610 f i expx:expv.obj
 0001:00085650       ?_address@ListOfExtentPartitionListElem@@UAEPAXXZ 00486650 f   expx:expv.obj
 0001:00085660       ?classType@ListOfExtentPartitionListElem@@UAEAAVRoseTypePtr@@XZ 00486660 f   expx:expv.obj
 0001:00085700       ?ListOfExtentPartitionListElem_INIT_FCN@@YAXAAVRoseTypePtr@@@Z 00486700 f   expx:expv.obj
 0001:00085790       ?_data@ListOfExtentPartitionListElem@@QAEPAPAUExtentPartitionListElem@@XZ 00486790 f   expx:expv.obj
 0001:000857a0       ??AListOfExtentPartitionListElem@@QAEPAUExtentPartitionListElem@@I@Z 004867a0 f   expx:expv.obj
 0001:000857d0       ?get@ListOfExtentPartitionListElem@@QAEPAUExtentPartitionListElem@@I@Z 004867d0 f   expx:expv.obj
 0001:00085800       ?first@ListOfExtentPartitionListElem@@QAEPAUExtentPartitionListElem@@XZ 00486800 f   expx:expv.obj
 0001:00085820       ?last@ListOfExtentPartitionListElem@@QAEPAUExtentPartitionListElem@@XZ 00486820 f   expx:expv.obj
 0001:00085850       ?contains@ListOfExtentPartitionListElem@@QAEDPAUExtentPartitionListElem@@@Z 00486850 f   expx:expv.obj
 0001:00085870       ?_element@ListOfExtentPartitionListElem@@QAEPAUExtentPartitionListElem@@I@Z 00486870 f   expx:expv.obj
 0001:00085890       ?slotType@ListOfExtentPartitionListElem@@UAEAAVRoseTypePtr@@PAVRoseAttribute@@I@Z 00486890 f   expx:expv.obj
 0001:000858d0       ??_EListOfexp_view2@@UAEPAXI@Z 004868d0 f i expx:expv.obj
 0001:000858d0       ??_GListOfexp_view2@@UAEPAXI@Z 004868d0 f i expx:expv.obj
 0001:00085910       ?_address@ListOfexp_view2@@UAEPAXXZ 00486910 f   expx:expv.obj
 0001:00085920       ?classType@ListOfexp_view2@@UAEAAVRoseTypePtr@@XZ 00486920 f   expx:expv.obj
 0001:000859c0       ?ListOfexp_view2_INIT_FCN@@YAXAAVRoseTypePtr@@@Z 004869c0 f   expx:expv.obj
 0001:00085a50       ?_data@ListOfexp_view2@@QAEPAPAVexp_view2@@XZ 00486a50 f   expx:expv.obj
 0001:00085a60       ??AListOfexp_view2@@QAEPAVexp_view2@@I@Z 00486a60 f   expx:expv.obj
 0001:00085a90       ?get@ListOfexp_view2@@QAEPAVexp_view2@@I@Z 00486a90 f   expx:expv.obj
 0001:00085ac0       ?first@ListOfexp_view2@@QAEPAVexp_view2@@XZ 00486ac0 f   expx:expv.obj
 0001:00085ae0       ?last@ListOfexp_view2@@QAEPAVexp_view2@@XZ 00486ae0 f   expx:expv.obj
 0001:00085b10       ?contains@ListOfexp_view2@@QAEDPAVexp_view2@@@Z 00486b10 f   expx:expv.obj
 0001:00085b30       ?_element@ListOfexp_view2@@QAEPAVexp_view2@@I@Z 00486b30 f   expx:expv.obj
 0001:00085b50       ?slotType@ListOfexp_view2@@UAEAAVRoseTypePtr@@PAVRoseAttribute@@I@Z 00486b50 f   expx:expv.obj
 0001:00085b60       ??0SchemaView@@QAE@PAVRoseDesign@@@Z 00486b60 f   expx:expv.obj
 0001:00085ba0       ??0SchemaView@@QAE@PAVRoseDesign@@0@Z 00486ba0 f   expx:expv.obj
 0001:00085bf0       ?_init@SchemaView@@AAEXPAVRoseDesign@@@Z 00486bf0 f   expx:expv.obj
 0001:00085e60       ?executeView@SchemaView@@QAEXXZ 00486e60 f   expx:expv.obj
 0001:00085f40       ?getExtent@SchemaView@@QAEPAVExtent@@PAVexp_partition@@@Z 00486f40 f   expx:expv.obj
 0001:00085f50       ?calculateAttribute@SchemaView@@QAEPAUexpr_stack_item@@PAVexp_partition@@PAVBinding@@H@Z 00486f50 f   expx:expv.obj
 0001:00085f70       ?calculateAttribute@SchemaView@@QAEPAUexpr_stack_item@@PAVexp_partition@@PAVListOfexpr_stack_item@@H@Z 00486f70 f   expx:expv.obj
 0001:00086160       ?lookupExplicitBinding@SchemaView@@QAEPAVBinding@@PAVexp_partition@@PAVListOfexpr_stack_item@@@Z 00487160 f   expx:expv.obj
 0001:000861c0       ?getResultAsString@SchemaView@@QAEPADPAUexpr_stack_item@@PAD1@Z 004871c0 f   expx:expv.obj
 0001:00086cc0       ?getBinding@SchemaView@@QAEPAVBinding@@PAVexp_partition@@PAVListOfexpr_stack_item@@@Z 00487cc0 f   expx:expv.obj
 0001:00086cf0       ?getBinding@SchemaView@@QAEPAVBinding@@PAVExtent@@PAVListOfexpr_stack_item@@@Z 00487cf0 f   expx:expv.obj
 0001:00086db0       ?calculate_partition_extent@SchemaView@@AAEXPAVRoseObject@@@Z 00487db0 f   expx:expv.obj
 0001:00087a60       ??0SetOfBindingObject@@QAE@I@Z 00488a60 f i expx:expv.obj
 0001:00087a80       ??0SetOfBinding@@QAE@I@Z   00488a80 f i expx:expv.obj
 0001:00087aa0       ?assembleBinding@SchemaView@@AAEPAVBinding@@PAPAVRoseObject@@HPAV2@@Z 00488aa0 f   expx:expv.obj
 0001:00087b70       ??0BindingTable@@QAE@H@Z   00488b70 f   expx:expv.obj
 0001:00087bb0       ?find@BindingTable@@QAEPAUBindingtab_entry@@PAVListOfexpr_stack_item@@PAVexp_partition@@@Z 00488bb0 f   expx:expv.obj
 0001:00087be0       ?add@BindingTable@@QAEPAUBindingtab_entry@@PAVBinding@@PAVexp_partition@@@Z 00488be0 f   expx:expv.obj
 0001:00087c90       ?double_size@BindingTable@@QAEHXZ 00488c90 f   expx:expv.obj
 0001:00087d60       ?get_size@BindingTable@@AAEHH@Z 00488d60 f   expx:expv.obj
 0001:00087e40       ?hashpjw_loop@BindingTable@@AAEXAAKD@Z 00488e40 f   expx:expv.obj
 0001:00087e70       ?hash@BindingTable@@AAEXPAVRoseObject@@AAK@Z 00488e70 f   expx:expv.obj
 0001:00087ea0       ?hash@BindingTable@@AAEXPAUexpr_stack_item@@AAK@Z 00488ea0 f   expx:expv.obj
 0001:00087ec0       ?hash@BindingTable@@AAEHPAVListOfexpr_stack_item@@PAVexp_partition@@@Z 00488ec0 f   expx:expv.obj
 0001:00087f30       ?find_entry@BindingTable@@AAEPAUBindingtab_entry@@PAVListOfexpr_stack_item@@PAVexp_partition@@PAU2@@Z 00488f30 f   expx:expv.obj
 0001:00088100       ?find_extent@ExtentPartitionList@@QAEPAVExtent@@PAVexp_partition@@@Z 00489100 f   expx:expv.obj
 0001:00088150       ?add@ExtentPartitionList@@QAEXPAVexp_partition@@PAVExtent@@@Z 00489150 f   expx:expv.obj
 0001:00088180       ?add@ExtentPartitionList@@QAEXPAUExtentPartitionListElem@@@Z 00489180 f   expx:expv.obj
 0001:00088190       ?_element@ExtentPartitionList@@QAEPAUExtentPartitionListElem@@H@Z 00489190 f   expx:expv.obj
 0001:000881a0       ?size@ExtentPartitionList@@QAEHXZ 004891a0 f   expx:expv.obj
 0001:000881b0       ?bindFunction@SchemaView@@QAEXPADP6AXXZ@Z 004891b0 f   expx:expv.obj
 0001:00088200       ?returnObject@SchemaView@@QAEXPAVRoseObject@@@Z 00489200 f   expx:expv.obj
 0001:00088210       ?returnInteger@SchemaView@@QAEXH@Z 00489210 f   expx:expv.obj
 0001:00088220       ?returnFloat@SchemaView@@QAEXM@Z 00489220 f   expx:expv.obj
 0001:00088230       ?returnDouble@SchemaView@@QAEXN@Z 00489230 f   expx:expv.obj
 0001:00088250       ?returnString@SchemaView@@QAEXPAD@Z 00489250 f   expx:expv.obj
 0001:00088260       ?returnBoolean@SchemaView@@QAEXD@Z 00489260 f   expx:expv.obj
 0001:00088270       ?returnLogical@SchemaView@@QAEXD@Z 00489270 f   expx:expv.obj
 0001:00088280       ?returnBinary@SchemaView@@QAEXVBINARY@@@Z 00489280 f   expx:expv.obj
 0001:000882a0       ?fetchObject@SchemaView@@QAEPAVRoseObject@@H@Z 004892a0 f   expx:expv.obj
 0001:000882c0       ?fetchInteger@SchemaView@@QAEHH@Z 004892c0 f   expx:expv.obj
 0001:000882e0       ?fetchFloat@SchemaView@@QAEMH@Z 004892e0 f   expx:expv.obj
 0001:00088300       ?fetchDouble@SchemaView@@QAENH@Z 00489300 f   expx:expv.obj
 0001:00088320       ?fetchString@SchemaView@@QAEPADH@Z 00489320 f   expx:expv.obj
 0001:00088340       ?fetchBoolean@SchemaView@@QAEDH@Z 00489340 f   expx:expv.obj
 0001:00088360       ?fetchLogical@SchemaView@@QAEDH@Z 00489360 f   expx:expv.obj
 0001:00088380       ?fetchBinary@SchemaView@@QAE?AVBINARY@@H@Z 00489380 f   expx:expv.obj
 0001:000883b0       ?fetchDomain@SchemaView@@QAEPAVRoseDomain@@H@Z 004893b0 f   expx:expv.obj
 0001:000884d0       ?stringTypeFromRose@SchemaView@@QAEPADPAVRoseObject@@PAD@Z 004894d0 f   expx:expv.obj
 0001:00088900       ?getRoseObjectEntityType@SchemaView@@QAEPAVRoseObject@@PAV2@PAD@Z 00489900 f   expx:expv.obj
 0001:00088990       ?getRoseObjectEntityIdentifier@SchemaView@@QAEPAVRoseObject@@PAV2@@Z 00489990 f   expx:expv.obj
 0001:000889d0       ?generateExtraEntityTypeInformation@SchemaView@@QAEXPAVListOfRoseDesign@@@Z 004899d0 f   expx:expv.obj
 0001:00088bb0       ?manager_type@type_manager@@UAEIXZ 00489bb0 f i expx:expv.obj
 0001:00088be0       ??_Gtype_manager@@UAEPAXI@Z 00489be0 f i expx:expv.obj
 0001:00088be0       ??_Etype_manager@@UAEPAXI@Z 00489be0 f i expx:expv.obj
 0001:00088c00       ?assert_global_rule@@YAPAVglobal_rule@@PAUSdai_Id@@@Z 00489c00 f   sdai:sdai.obj
 0001:00088ca0       ?assert_uniqueness_rule@@YAPAVuniqueness_rule@@PAUSdai_Id@@@Z 00489ca0 f   sdai:sdai.obj
 0001:00088d20       ?assert_schema_instance@@YAPAVschema_instance@@PAUSdai_Id@@@Z 00489d20 f   sdai:sdai.obj
 0001:00088d90       ?assert_schema_instance@@YAPAVschema_instance@@PADPAUSdai_Id@@@Z 00489d90 f   sdai:sdai.obj
 0001:00088ed0       ?assert_get_designs@@YADPAVListOfRoseDesign@@PAUSdai_Id@@PAPAVschema_instance@@@Z 00489ed0 f   sdai:sdai.obj
 0001:00089000       ?assert_get_designs@@YADPAVListOfRoseDesign@@PAUSdai_Id@@PAPAVschema_definition@@PAPAVschema_instance@@@Z 0048a000 f   sdai:sdai.obj
 0001:000890f0       ?sdai_deleteObject@@YAXPAVRoseObject@@@Z 0048a0f0 f   sdai:sdai.obj
 0001:00089140       _sdaiOpenSession           0048a140 f   sdai:sdai.obj
 0001:00089320       ?get_sdai_session@sdai_instance@@UAEPAVsdai_session@@XZ 0048a320 f i sdai:sdai.obj
 0001:00089330       ?get_implementation@sdai_instance@@UAEPAVimplementation@@XZ 0048a330 f i sdai:sdai.obj
 0001:00089340       ?get_sdai_repository@sdai_instance@@UAEPAVsdai_repository@@XZ 0048a340 f i sdai:sdai.obj
 0001:00089350       ?get_sdai_repository_contents@sdai_instance@@UAEPAVsdai_repository_contents@@XZ 0048a350 f i sdai:sdai.obj
 0001:00089360       ?get_sdai_model@sdai_instance@@UAEPAVsdai_model@@XZ 0048a360 f i sdai:sdai.obj
 0001:00089370       ?get_sdai_model_contents@sdai_instance@@UAEPAVsdai_model_contents@@XZ 0048a370 f i sdai:sdai.obj
 0001:00089380       ?get_sdai_transaction@sdai_instance@@UAEPAVsdai_transaction@@XZ 0048a380 f i sdai:sdai.obj
 0001:00089390       ?get_event@sdai_instance@@UAEPAVevent@@XZ 0048a390 f i sdai:sdai.obj
 0001:000893a0       ?get_error_event@sdai_instance@@UAEPAVerror_event@@XZ 0048a3a0 f i sdai:sdai.obj
 0001:000893b0       ?get_entity_extent@sdai_instance@@UAEPAVentity_extent@@XZ 0048a3b0 f i sdai:sdai.obj
 0001:000893c0       ?get_schema_instance@sdai_instance@@UAEPAVschema_instance@@XZ 0048a3c0 f i sdai:sdai.obj
 0001:000893d0       ?get_scope@sdai_instance@@UAEPAVscope@@XZ 0048a3d0 f i sdai:sdai.obj
 0001:000893e0       ?entity@implementation@@EAEPAVentity_definition@@XZ 0048a3e0 f i sdai:sdai.obj
 0001:00089400       ?get_implementation@implementation@@EAEPAV1@XZ 0048a400 f i sdai:sdai.obj
 0001:00089410       ?aggr_type@SdaiAggregate@@UAE?AW4AggregateType@@XZ 0048a410 f i sdai:sdai.obj
 0001:00089420       ?size@SdaiAggregate@@UAEIXZ 0048a420 f i sdai:sdai.obj
 0001:00089430       ?size@SdaiAggregate@@UAEDIH@Z 0048a430 f i sdai:sdai.obj
 0001:00089450       ?isEmpty@SdaiAggregate@@UAEDXZ 0048a450 f i sdai:sdai.obj
 0001:00089460       ?new_iterator@SdaiAggregate@@UAEPAVIterator@@XZ 0048a460 f i sdai:sdai.obj
 0001:00089470       ?get_SdaiAggregate_RA@SdaiAggregate@@UAEPAVSdaiAggregate_RA@@XZ 0048a470 f i sdai:sdai.obj
 0001:00089480       ?get_SdaiAggregate_RW@SdaiAggregate@@UAEPAVSdaiAggregate_RW@@XZ 0048a480 f i sdai:sdai.obj
 0001:00089490       ?get_SdaiRoseAggregate@SdaiAggregate@@UAEPAVSdaiRoseAggregate@@XZ 0048a490 f i sdai:sdai.obj
 0001:000894a0       ?get_NPL@SdaiAggregate@@UAEPAVSdai_NPL@@XZ 0048a4a0 f i sdai:sdai.obj
 0001:000894b0       ?isTemp@SdaiAggregate@@UAEDXZ 0048a4b0 f i sdai:sdai.obj
 0001:000894c0       ?getHandle@SdaiAggregate@@UAEPAUSdai_Id_aggr@@XZ 0048a4c0 f i sdai:sdai.obj
 0001:000894d0       ??_GSdaiAggregate@@MAEPAXI@Z 0048a4d0 f i sdai:sdai.obj
 0001:000894d0       ??_ESdaiAggregate@@MAEPAXI@Z 0048a4d0 f i sdai:sdai.obj
 0001:00089500       ??0SdaiAggregate@@QAE@XZ   0048a500 f i sdai:sdai.obj
 0001:00089520       ??0setOfsdai_model@@QAE@XZ 0048a520 f i sdai:sdai.obj
 0001:00089560       ?aggr_type@setOfsdai_model@@UAE?AW4AggregateType@@XZ 0048a560 f i sdai:sdai.obj
 0001:00089570       ??_EsetOfsdai_model@@UAEPAXI@Z 0048a570 f i sdai:sdai.obj
 0001:00089570       ??_GsetOfsdai_model@@UAEPAXI@Z 0048a570 f i sdai:sdai.obj
 0001:000895a0       ?size@SdaiActiveRepoSet@@UAEDIH@Z 0048a5a0 f i sdai:sdai.obj
 0001:000895c0       ?size@SdaiActiveModelSet@@UAEDIH@Z 0048a5c0 f i sdai:sdai.obj
 0001:000895e0       ?entity@schema_instance@@EAEPAVentity_definition@@XZ 0048a5e0 f i sdai:sdai.obj
 0001:00089600       ?get_schema_instance@schema_instance@@EAEPAV1@XZ 0048a600 f i sdai:sdai.obj
 0001:00089610       ?rename@schema_instance@@UAEDPAD@Z 0048a610 f i sdai:sdai.obj
 0001:00089620       ?add@schema_instance@@UAE?AW4InternalError@@PAVsdai_model@@@Z 0048a620 f i sdai:sdai.obj
 0001:00089630       ?remove@schema_instance@@UAEDPAVsdai_model@@@Z 0048a630 f i sdai:sdai.obj
 0001:00089640       ?destroy@schema_instance@@UAEXXZ 0048a640 f i sdai:sdai.obj
 0001:00089650       ?get_models@SdaiDictionary@@EAEXPAVrose_vector@@@Z 0048a650 f i sdai:sdai.obj
 0001:00089660       ??_GSdaiDictionary@@UAEPAXI@Z 0048a660 f i sdai:sdai.obj
 0001:00089660       ??_ESdaiDictionary@@UAEPAXI@Z 0048a660 f i sdai:sdai.obj
 0001:00089680       ?entity@sdai_session@@EAEPAVentity_definition@@XZ 0048a680 f i sdai:sdai.obj
 0001:000896a0       ?get_sdai_session@sdai_session@@EAEPAV1@XZ 0048a6a0 f i sdai:sdai.obj
 0001:000896b0       ??_Esdai_session@@UAEPAXI@Z 0048a6b0 f i sdai:sdai.obj
 0001:000896b0       ??_Gsdai_session@@UAEPAXI@Z 0048a6b0 f i sdai:sdai.obj
 0001:00089760       ??1RoseStringObject@@QAE@XZ 0048a760 f i sdai:sdai.obj
 0001:00089790       ??1SdaiAggregate@@MAE@XZ   0048a790 f i sdai:sdai.obj
 0001:000897a0       ??0setOfsdai_transaction@@QAE@XZ 0048a7a0 f i sdai:sdai.obj
 0001:00089820       ?get_SdaiAggregate_RA@SdaiAggregate_RA@@MAEPAV1@XZ 0048a820 f i sdai:sdai.obj
 0001:00089830       ?getValue@SdaiAggregate_RA@@UAEDIPAVSdai_ADB@@@Z 0048a830 f i sdai:sdai.obj
 0001:00089840       ?is_empty@SdaiAggregate_RA@@UAEDXZ 0048a840 f i sdai:sdai.obj
 0001:00089860       ??_GSdaiAggregate_RA@@UAEPAXI@Z 0048a860 f i sdai:sdai.obj
 0001:00089860       ??_ESdaiAggregate_RA@@UAEPAXI@Z 0048a860 f i sdai:sdai.obj
 0001:00089890       ?entity@sdai_transaction@@EAEPAVentity_definition@@XZ 0048a890 f i sdai:sdai.obj
 0001:000898b0       ?get_sdai_transaction@sdai_transaction@@EAEPAV1@XZ 0048a8b0 f i sdai:sdai.obj
 0001:000898c0       ?aggr_type@setOfsdai_transaction@@EAE?AW4AggregateType@@XZ 0048a8c0 f i sdai:sdai.obj
 0001:000898d0       ?size@setOfsdai_transaction@@EAEIXZ 0048a8d0 f i sdai:sdai.obj
 0001:000898e0       ?size@setOfsdai_transaction@@EAEDIH@Z 0048a8e0 f i sdai:sdai.obj
 0001:00089900       ?getValue@setOfsdai_transaction@@UAEDIPAVSdai_ADB@@@Z 0048a900 f i sdai:sdai.obj
 0001:00089940       ??0listOferror_event@@QAE@XZ 0048a940 f i sdai:sdai.obj
 0001:000899b0       ?aggr_type@listOferror_event@@EAE?AW4AggregateType@@XZ 0048a9b0 f i sdai:sdai.obj
 0001:000899c0       ?size@listOferror_event@@EAEIXZ 0048a9c0 f i sdai:sdai.obj
 0001:000899d0       ?getValue@listOferror_event@@EAEDIPAVSdai_ADB@@@Z 0048a9d0 f i sdai:sdai.obj
 0001:000899e0       ?size@listOferror_event@@EAEDIH@Z 0048a9e0 f i sdai:sdai.obj
 0001:00089a00       ??_Gimplementation@@UAEPAXI@Z 0048aa00 f i sdai:sdai.obj
 0001:00089a00       ??_Eimplementation@@UAEPAXI@Z 0048aa00 f i sdai:sdai.obj
 0001:00089a20       ??1SdaiKnownRepoSet@@UAE@XZ 0048aa20 f i sdai:sdai.obj
 0001:00089aa0       ??_ESdaiActiveRepoSet@@UAEPAXI@Z 0048aaa0 f i sdai:sdai.obj
 0001:00089aa0       ??_GSdaiActiveRepoSet@@UAEPAXI@Z 0048aaa0 f i sdai:sdai.obj
 0001:00089ad0       ??0setOfsdai_repository@@QAE@XZ 0048aad0 f i sdai:sdai.obj
 0001:00089b10       ?aggr_type@setOfsdai_repository@@MAE?AW4AggregateType@@XZ 0048ab10 f i sdai:sdai.obj
 0001:00089b20       ??_GSdaiActiveModelSet@@UAEPAXI@Z 0048ab20 f i sdai:sdai.obj
 0001:00089b20       ??_ESdaiActiveModelSet@@UAEPAXI@Z 0048ab20 f i sdai:sdai.obj
 0001:00089b50       ??_GsetOfsdai_transaction@@UAEPAXI@Z 0048ab50 f i sdai:sdai.obj
 0001:00089b50       ??_EsetOfsdai_transaction@@UAEPAXI@Z 0048ab50 f i sdai:sdai.obj
 0001:00089b80       ??_GlistOferror_event@@UAEPAXI@Z 0048ab80 f i sdai:sdai.obj
 0001:00089b80       ??_ElistOferror_event@@UAEPAXI@Z 0048ab80 f i sdai:sdai.obj
 0001:00089bb0       ??_GsetOfsdai_repository@@UAEPAXI@Z 0048abb0 f i sdai:sdai.obj
 0001:00089bb0       ??_EsetOfsdai_repository@@UAEPAXI@Z 0048abb0 f i sdai:sdai.obj
 0001:00089be0       ??_Gsdai_transaction@@UAEPAXI@Z 0048abe0 f i sdai:sdai.obj
 0001:00089be0       ??_Esdai_transaction@@UAEPAXI@Z 0048abe0 f i sdai:sdai.obj
 0001:00089c00       _sdaiLogicalCompare        0048ac00 f   sdai:sdai.obj
 0001:00089c40       _sdaiErrorQuery            0048ac40 f   sdai:sdai.obj
 0001:00089cd0       ??0sdai_session@@QAE@XZ    0048acd0 f i sdai:sdai.obj
 0001:00089e80       ??0SdaiAggregate_RA@@QAE@XZ 0048ae80 f i sdai:sdai.obj
 0001:00089ed0       ??0sdai_transaction@@QAE@XZ 0048aed0 f i sdai:sdai.obj
 0001:00089ef0       _sdaiSetErrorHandler       0048aef0 f   sdai:sdai.obj
 0001:0008a010       ??0rose_stack@@QAE@XZ      0048b010 f i sdai:sdai.obj
 0001:0008a020       ??0SdaiDictionary@@AAE@XZ  0048b020 f i sdai:sdai.obj
 0001:0008a040       ??0implementation@@QAE@XZ  0048b040 f i sdai:sdai.obj
 0001:0008a060       ??0SdaiActiveRepoSet@@QAE@XZ 0048b060 f i sdai:sdai.obj
 0001:0008a0c0       ??0SdaiActiveModelSet@@QAE@XZ 0048b0c0 f i sdai:sdai.obj
 0001:0008a120       _sdaiRestoreErrorHandler   0048b120 f   sdai:sdai.obj
 0001:0008a240       _sdaiRecordEvent           0048b240 f   sdai:sdai.obj
 0001:0008a280       _sdaiSetEventRecording     0048b280 f   sdai:sdai.obj
 0001:0008a2a0       _sdaiCloseSession          0048b2a0 f   sdai:sdai.obj
 0001:0008a2c0       _sdaiOpenRepository        0048b2c0 f   sdai:sdai.obj
 0001:0008a360       _sdaiOpenRepositoryBN      0048b360 f   sdai:sdai.obj
 0001:0008a3e0       __sdaiRescanRepository     0048b3e0 f   sdai:sdai.obj
 0001:0008a400       _sdaiStartTrx              0048b400 f   sdai:sdai.obj
 0001:0008a420       _sdaiBreakTrx              0048b420 f   sdai:sdai.obj
 0001:0008a440       _sdaiEndTrx                0048b440 f   sdai:sdai.obj
 0001:0008a460       _sdaiCreateNPL             0048b460 f   sdai:sdai.obj
 0001:0008a560       ?putValue@SdaiAggregate_RW@@UAE?AW4InternalError@@IPAVSdai_ADB@@@Z 0048b560 f i sdai:sdai.obj
 0001:0008a570       ?resize@SdaiAggregate_RW@@UAEXI@Z 0048b570 f i sdai:sdai.obj
 0001:0008a580       ?insertAt@SdaiAggregate_RW@@UAEII@Z 0048b580 f i sdai:sdai.obj
 0001:0008a590       ?createAggregate@SdaiAggregate_RW@@UAE?AW4InternalError@@IPAVSdai_ADB@@@Z 0048b590 f i sdai:sdai.obj
 0001:0008a5a0       ?createAggregate@SdaiAggregate_RW@@UAE?AW4InternalError@@PAVSdai_ADB@@@Z 0048b5a0 f i sdai:sdai.obj
 0001:0008a5b0       ?remove@SdaiAggregate_RW@@UAE?AW4InternalError@@I@Z 0048b5b0 f i sdai:sdai.obj
 0001:0008a5c0       ?unset@SdaiAggregate_RW@@UAE?AW4InternalError@@I@Z 0048b5c0 f i sdai:sdai.obj
 0001:0008a5d0       ?isWritable@SdaiAggregate_RW@@UAEDXZ 0048b5d0 f i sdai:sdai.obj
 0001:0008a5e0       _sdaiDeleteNPL             0048b5e0 f   sdai:sdai.obj
 0001:0008a610       _sdaiQuery                 0048b610 f   sdai:sdai.obj
 0001:0008a630       _sdaiIsRecordingOn         0048b630 f   sdai:sdai.obj
 0001:0008a650       _sdaiCreateADB             0048b650 f   sdai:sdai.obj
 0001:0008a6d0       _sdaiCreateEmptyADB        0048b6d0 f   sdai:sdai.obj
 0001:0008a720       ?put_ADB@Sdai_ADB@@UAEXPAUSdai_ADBId@@@Z 0048b720 f i sdai:sdai.obj
 0001:0008a740       ?put_AGGR@Sdai_ADB@@UAEXPAUSdai_Id_aggr@@@Z 0048b740 f i sdai:sdai.obj
 0001:0008a760       ?put_BINARY@Sdai_ADB@@UAEXPAE@Z 0048b760 f i sdai:sdai.obj
 0001:0008a780       ?put_BOOLEAN@Sdai_ADB@@UAEXH@Z 0048b780 f i sdai:sdai.obj
 0001:0008a7a0       ?put_ENUM@Sdai_ADB@@UAEXPAD@Z 0048b7a0 f i sdai:sdai.obj
 0001:0008a7c0       ?put_INSTANCE@Sdai_ADB@@UAEXPAUSdai_Id@@@Z 0048b7c0 f i sdai:sdai.obj
 0001:0008a7e0       ?put_INTEGER@Sdai_ADB@@UAEXJ@Z 0048b7e0 f i sdai:sdai.obj
 0001:0008a800       ?put_LOGICAL@Sdai_ADB@@UAEXH@Z 0048b800 f i sdai:sdai.obj
 0001:0008a820       ?put_REAL@Sdai_ADB@@UAEXN@Z 0048b820 f i sdai:sdai.obj
 0001:0008a840       ?put_STRING@Sdai_ADB@@UAEXPAD@Z 0048b840 f i sdai:sdai.obj
 0001:0008a860       _sdaiGetADBValue           0048b860 f   sdai:sdai.obj
 0001:0008a910       _sdaiPutADBValue           0048b910 f   sdai:sdai.obj
 0001:0008a980       _sdaiGetADBType            0048b980 f   sdai:sdai.obj
 0001:0008a9a0       _sdaiUnsetADB              0048b9a0 f   sdai:sdai.obj
 0001:0008a9c0       _sdaiDeleteADB             0048b9c0 f   sdai:sdai.obj
 0001:0008aa00       _sdaiCreateModel           0048ba00 f   sdai:sdai.obj
 0001:0008ac20       _sdaiCreateSchemaInstance  0048bc20 f   sdai:sdai.obj
 0001:0008ad70       ?name@application_schema_instance@@UAEPADXZ 0048bd70 f i sdai:sdai.obj
 0001:0008ad90       ?native_schema@application_schema_instance@@UAEPAVschema_definition@@XZ 0048bd90 f i sdai:sdai.obj
 0001:0008ada0       ?remove@application_schema_instance@@UAEDPAVsdai_model@@@Z 0048bda0 f i sdai:sdai.obj
 0001:0008adb0       ??_Gapplication_schema_instance@@UAEPAXI@Z 0048bdb0 f i sdai:sdai.obj
 0001:0008adb0       ??_Eapplication_schema_instance@@UAEPAXI@Z 0048bdb0 f i sdai:sdai.obj
 0001:0008ae20       _sdaiCloseRepository       0048be20 f   sdai:sdai.obj
 0001:0008ae40       _sdaiDeleteSchemaInstance  0048be40 f   sdai:sdai.obj
 0001:0008ae80       _sdaiDeleteSchemaInstanceBN 0048be80 f   sdai:sdai.obj
 0001:0008aea0       _sdaiRenameSchemaInstance  0048bea0 f   sdai:sdai.obj
 0001:0008af10       _sdaiRenameSchemaInstanceBN 0048bf10 f   sdai:sdai.obj
 0001:0008af50       _sdaiAddModel              0048bf50 f   sdai:sdai.obj
 0001:0008afb0       _sdaiAddModelBN            0048bfb0 f   sdai:sdai.obj
 0001:0008afe0       _sdaiRemoveModel           0048bfe0 f   sdai:sdai.obj
 0001:0008b050       _sdaiRemoveModelBN         0048c050 f   sdai:sdai.obj
 0001:0008b080       _sdaiValidateGlobalRule    0048c080 f   sdai:sdai.obj
 0001:0008b110       _sdaiValidateGlobalRuleBN  0048c110 f   sdai:sdai.obj
 0001:0008b270       _sdaiValidateUniqueness    0048c270 f   sdai:sdai.obj
 0001:0008b360       _sdaiValidateUniquenessBN  0048c360 f   sdai:sdai.obj
 0001:0008b400       _sdaiValidateReferenceDomain 0048c400 f   sdai:sdai.obj
 0001:0008b820       ?validateInstance@@YAHPAVRoseStructure@@@Z 0048c820 f   sdai:sdai.obj
 0001:0008ba90       ??0SdaiAggregate_RW@@QAE@XZ 0048ca90 f i sdai:sdai.obj
 0001:0008bb10       _sdaiValidateSchemaInstance 0048cb10 f   sdai:sdai.obj
 0001:0008be60       _sdaiIsValidationCurrent   0048ce60 f   sdai:sdai.obj
 0001:0008be90       _sdaiGetSchema             0048ce90 f   sdai:sdai.obj
 0001:0008beb0       _sdaiGetSchemaInstance     0048ceb0 f   sdai:sdai.obj
 0001:0008bef0       _sdaiDeleteModel           0048cef0 f   sdai:sdai.obj
 0001:0008bf20       __sdaiSetModelFormat       0048cf20 f   sdai:sdai.obj
 0001:0008bf40       _sdaiRenameModel           0048cf40 f   sdai:sdai.obj
 0001:0008bfc0       _sdaiAccessModel           0048cfc0 f   sdai:sdai.obj
 0001:0008c010       __sdaiFindModelBN          0048d010 f   sdai:sdai.obj
 0001:0008c080       _sdaiAccessModelBN         0048d080 f   sdai:sdai.obj
 0001:0008c1a0       _sdaiPromoteModel          0048d1a0 f   sdai:sdai.obj
 0001:0008c2a0       _sdaiEndModelAccess        0048d2a0 f   sdai:sdai.obj
 0001:0008c2c0       _sdaiGetEntity             0048d2c0 f   sdai:sdai.obj
 0001:0008c330       __sdaiGetEntityInModel     0048d330 f   sdai:sdai.obj
 0001:0008c380       _sdaiCreateInstance        0048d380 f   sdai:sdai.obj
 0001:0008c400       _sdaiCreateInstanceBN      0048d400 f   sdai:sdai.obj
 0001:0008c430       _sdaiUndoChanges           0048d430 f   sdai:sdai.obj
 0001:0008c450       _sdaiSaveChanges           0048d450 f   sdai:sdai.obj
 0001:0008c480       _sdaiCreateComplexInstance 0048d480 f   sdai:sdai.obj
 0001:0008c4b0       _sdaiCreateComplexInstanceBN 0048d4b0 f   sdai:sdai.obj
 0001:0008c4e0       _sdaiGetEntityExtent       0048d4e0 f   sdai:sdai.obj
 0001:0008c570       _sdaiGetEntityExtentBN     0048d570 f   sdai:sdai.obj
 0001:0008c5a0       _sdaiAddToScope            0048d5a0 f   sdai:sdai.obj
 0001:0008c5c0       _sdaiIsScopeOwner          0048d5c0 f   sdai:sdai.obj
 0001:0008c5e0       _sdaiGetScope              0048d5e0 f   sdai:sdai.obj
 0001:0008c600       _sdaiRemoveFromScope       0048d600 f   sdai:sdai.obj
 0001:0008c620       _sdaiAddToExportList       0048d620 f   sdai:sdai.obj
 0001:0008c640       _sdaiRemoveFromExportList  0048d640 f   sdai:sdai.obj
 0001:0008c660       _sdaiScopedDelete          0048d660 f   sdai:sdai.obj
 0001:0008c680       _sdaiScopedCopyInSameModel 0048d680 f   sdai:sdai.obj
 0001:0008c6a0       _sdaiScopedCopyToOtherModel 0048d6a0 f   sdai:sdai.obj
 0001:0008c6c0       _sdaiValidateScopeReferenceRestrictions 0048d6c0 f   sdai:sdai.obj
 0001:0008c6e0       _sdaiGetOwnedScopeInstances 0048d6e0 f   sdai:sdai.obj
 0001:0008c700       _sdaiGetScopeOwner         0048d700 f   sdai:sdai.obj
 0001:0008c720       _sdaiGetExportList         0048d720 f   sdai:sdai.obj
 0001:0008c740       _sdaiPutADBTypePath        0048d740 f   sdai:sdai.obj
 0001:0008c780       _sdaiGetADBTypePath        0048d780 f   sdai:sdai.obj
 0001:0008c800       _sdaiValidateTypePath      0048d800 f   sdai:sdai.obj
 0001:0008c810       __sdaiVerbose              0048d810 f   sdai:sdai.obj
 0001:0008c830       __sdaiGetErrorName         0048d830 f   sdai:sdai.obj
 0001:0008c950       ?sdaiRoseAggregate@@YAPAVRoseAggregate@@PAUSdai_Id_aggr@@@Z 0048d950 f   sdai:sdai.obj
 0001:0008c9f0       ?sdaiRoseStructure@@YAPAVRoseStructure@@PAUSdai_Id@@@Z 0048d9f0 f   sdai:sdai.obj
 0001:0008ca10       __sdaiDisplayADB           0048da10 f   sdai:sdai.obj
 0001:0008ca30       __sdaiDisplayModel         0048da30 f   sdai:sdai.obj
 0001:0008ca90       ?_sdaiGetRoseStructure@@YAPAVRoseStructure@@PAUSdai_Id@@@Z 0048da90 f   sdai:sdai.obj
 0001:0008caa0       ?_sdaiGetRoseAggregate@@YAPAVRoseAggregate@@PAUSdai_Id_aggr@@@Z 0048daa0 f   sdai:sdai.obj
 0001:0008cab0       ?_sdaiGetAppInstance@@YAPAUSdai_Id@@PAVRoseStructure@@@Z 0048dab0 f   sdai:sdai.obj
 0001:0008cac0       ?_sdaiGetAggr@@YAPAUSdai_Id_aggr@@PAVRoseAggregate@@@Z 0048dac0 f   sdai:sdai.obj
 0001:0008cae0       ?_sdaiGetRoseDesign@@YAPAVRoseDesign@@PAUSdai_Id@@@Z 0048dae0 f   sdai:sdai.obj
 0001:0008cb10       ?_sdaiGetModel@@YAPAUSdai_Id@@PAVRoseDesign@@@Z 0048db10 f   sdai:sdai.obj
 0001:0008cb40       ?_sdaiGetEntityForDomain@@YAPAUSdai_Id@@PAVRoseDomain@@@Z 0048db40 f   sdai:sdai.obj
 0001:0008cb60       ?_sdaiGetDomainForEntity@@YAPAVRoseDomain@@PAUSdai_Id@@@Z 0048db60 f   sdai:sdai.obj
 0001:0008cb80       __sdaiGenerateFullDictionary 0048db80 f   sdai:sdai.obj
 0001:0008cca0       __sdaiGetGenerateFullDictionary 0048dca0 f   sdai:sdai.obj
 0001:0008cdc0       ??_ESdaiSchemaInstanceMods@@$4PPPPPPPM@A@AEPAXI@Z 0048ddc0 f i sdai:sdai.obj
 0001:0008cdd0       ??_GSdaiSchemaInstanceMods@@UAEPAXI@Z 0048ddd0 f i sdai:sdai.obj
 0001:0008cdd0       ??_ESdaiSchemaInstanceMods@@UAEPAXI@Z 0048ddd0 f i sdai:sdai.obj
 0001:0008ce00       ?size@SdaiSchemaInstanceMods@@$4PPPPPPPM@A@AEDIH@Z 0048de00 f i sdai:sdai.obj
 0001:0008ce10       ?size@SdaiSchemaInstanceMods@@UAEDIH@Z 0048de10 f i sdai:sdai.obj
 0001:0008ce30       ?size@SdaiSchemaInstanceMods@@$4PPPPPPPM@A@AEIXZ 0048de30 f i sdai:sdai.obj
 0001:0008ce40       ?size@SdaiSchemaInstanceMods@@UAEIXZ 0048de40 f i sdai:sdai.obj
 0001:0008ce50       ?aggr_type@SdaiSchemaInstanceMods@@$4PPPPPPPM@A@AE?AW4AggregateType@@XZ 0048de50 f i sdai:sdai.obj
 0001:0008ce60       ?aggr_type@SdaiSchemaInstanceMods@@UAE?AW4AggregateType@@XZ 0048de60 f i sdai:sdai.obj
 0001:0008ce70       ?new_iterator@SdaiSchemaInstanceMods@@$4PPPPPPPM@A@AEPAVIterator@@XZ 0048de70 f i sdai:sdai.obj
 0001:0008ce80       ?new_iterator@SdaiSchemaInstanceMods@@UAEPAVIterator@@XZ 0048de80 f i sdai:sdai.obj
 0001:0008ce90       ?get_SdaiAggregate_RA@SdaiSchemaInstanceMods@@$4PPPPPPPM@A@AEPAVSdaiAggregate_RA@@XZ 0048de90 f i sdai:sdai.obj
 0001:0008cea0       ?get_SdaiAggregate_RA@SdaiSchemaInstanceMods@@UAEPAVSdaiAggregate_RA@@XZ 0048dea0 f i sdai:sdai.obj
 0001:0008ceb0       ?getValue@SdaiSchemaInstanceMods@@$4PPPPPPPM@A@AEDIPAVSdai_ADB@@@Z 0048deb0 f i sdai:sdai.obj
 0001:0008cec0       ?getValue@SdaiSchemaInstanceMods@@UAEDIPAVSdai_ADB@@@Z 0048dec0 f i sdai:sdai.obj
 0001:0008cef0       ?aggr_type@setOfsdai_model@@WPPPPPPNI@AE?AW4AggregateType@@XZ 0048def0 f i sdai:sdai.obj
 0001:0008cf00       ?new_iterator@SdaiAggregate_RA@@WPPPPPPNE@AEPAVIterator@@XZ 0048df00 f i sdai:sdai.obj
 0001:0008cf10       ?get_SdaiAggregate_RA@SdaiAggregate_RA@@OPPPPPPNE@AEPAV1@XZ 0048df10 f i sdai:sdai.obj
 0001:0008cf20       ??_ESdaiAggregate_RW@@$4PPPPPPPM@A@AEPAXI@Z 0048df20 f i sdai:sdai.obj
 0001:0008cf30       ??_ESdaiAggregate_RW@@UAEPAXI@Z 0048df30 f i sdai:sdai.obj
 0001:0008cf30       ??_GSdaiAggregate_RW@@UAEPAXI@Z 0048df30 f i sdai:sdai.obj
 0001:0008cf60       ?get_SdaiAggregate_RW@SdaiAggregate_RW@@$4PPPPPPPM@A@AEPAV1@XZ 0048df60 f i sdai:sdai.obj
 0001:0008cf70       ?get_SdaiAggregate_RW@SdaiAggregate_RW@@UAEPAV1@XZ 0048df70 f i sdai:sdai.obj
 0001:0008cf80       ??_ESdai_NPL@@$4PPPPPPPM@A@AEPAXI@Z 0048df80 f i sdai:sdai.obj
 0001:0008cf90       ??_ESdai_NPL@@UAEPAXI@Z    0048df90 f i sdai:sdai.obj
 0001:0008cf90       ??_GSdai_NPL@@UAEPAXI@Z    0048df90 f i sdai:sdai.obj
 0001:0008cfc0       ?size@Sdai_NPL@@$4PPPPPPPM@A@AEDIH@Z 0048dfc0 f i sdai:sdai.obj
 0001:0008cfd0       ?size@Sdai_NPL@@UAEDIH@Z   0048dfd0 f i sdai:sdai.obj
 0001:0008cff0       ?size@Sdai_NPL@@$4PPPPPPPM@A@AEIXZ 0048dff0 f i sdai:sdai.obj
 0001:0008d000       ?size@Sdai_NPL@@UAEIXZ     0048e000 f i sdai:sdai.obj
 0001:0008d010       ?aggr_type@Sdai_NPL@@$4PPPPPPPM@A@AE?AW4AggregateType@@XZ 0048e010 f i sdai:sdai.obj
 0001:0008d020       ?aggr_type@Sdai_NPL@@UAE?AW4AggregateType@@XZ 0048e020 f i sdai:sdai.obj
 0001:0008d030       ?new_iterator@Sdai_NPL@@$4PPPPPPPM@A@AEPAVIterator@@XZ 0048e030 f i sdai:sdai.obj
 0001:0008d040       ?get_SdaiAggregate_RW@SdaiAggregate_RW@@$4PPPPPPPM@PPPPPPMI@AEPAV1@XZ 0048e040 f i sdai:sdai.obj
 0001:0008d050       ?get_NPL@Sdai_NPL@@$4PPPPPPPM@A@AEPAV1@XZ 0048e050 f i sdai:sdai.obj
 0001:0008d060       ?get_NPL@Sdai_NPL@@UAEPAV1@XZ 0048e060 f i sdai:sdai.obj
 0001:0008d070       ?aggr_type@setOfsdai_repository@@OPPPPPPNI@AE?AW4AggregateType@@XZ 0048e070 f i sdai:sdai.obj
 0001:0008d080       _sdaiGetComplexEntity      0048e080 f   sdai:sdaiInstance.obj
 0001:0008d140       ??_EListOfRoseDomain@@UAEPAXI@Z 0048e140 f i sdai:sdaiInstance.obj
 0001:0008d140       ??_GListOfRoseDomain@@UAEPAXI@Z 0048e140 f i sdai:sdaiInstance.obj
 0001:0008d220       _sdaiGetComplexEntityBN    0048e220 f   sdai:sdaiInstance.obj
 0001:0008d370       __sdaiGetComplexEntityBN   0048e370 f   sdai:sdaiInstance.obj
 0001:0008d3d0       _sdaiIsSubtypeOf           0048e3d0 f   sdai:sdaiInstance.obj
 0001:0008d430       _sdaiIsSubtypeOfBN         0048e430 f   sdai:sdaiInstance.obj
 0001:0008d4b0       _sdaiIsSDAISubtypeOf       0048e4b0 f   sdai:sdaiInstance.obj
 0001:0008d4d0       _sdaiIsSDAISubtypeOfBN     0048e4d0 f   sdai:sdaiInstance.obj
 0001:0008d4f0       _sdaiIsDeqWith             0048e4f0 f   sdai:sdaiInstance.obj
 0001:0008d530       ?sdaiIsDeqWithBN@@YAHPAD00@Z 0048e530 f   sdai:sdaiInstance.obj
 0001:0008d550       _sdaiGetAttrDefinition     0048e550 f   sdai:sdaiInstance.obj
 0001:0008d5e0       _sdaiGetAttrDefinitionBN   0048e5e0 f   sdai:sdaiInstance.obj
 0001:0008d610       _sdaiGetAttr               0048e610 f   sdai:sdaiInstance.obj
 0001:0008d930       _sdaiGetAttrBN             0048e930 f   sdai:sdaiInstance.obj
 0001:0008d970       _sdaiTestAttr              0048e970 f   sdai:sdaiInstance.obj
 0001:0008daa0       _sdaiTestAttrBN            0048eaa0 f   sdai:sdaiInstance.obj
 0001:0008dae0       _sdaiGetInstanceModel      0048eae0 f   sdai:sdaiInstance.obj
 0001:0008db40       _sdaiGetInstanceType       0048eb40 f   sdai:sdaiInstance.obj
 0001:0008db90       _sdaiIsInstanceOf          0048eb90 f   sdai:sdaiInstance.obj
 0001:0008dbb0       _sdaiIsInstanceOfBN        0048ebb0 f   sdai:sdaiInstance.obj
 0001:0008dbf0       _sdaiIsKindOf              0048ebf0 f   sdai:sdaiInstance.obj
 0001:0008dc20       _sdaiIsKindOfBN            0048ec20 f   sdai:sdaiInstance.obj
 0001:0008dc60       _sdaiIsSDAIKindOf          0048ec60 f   sdai:sdaiInstance.obj
 0001:0008dc90       _sdaiIsSDAIKindOfBN        0048ec90 f   sdai:sdaiInstance.obj
 0001:0008dcd0       _sdaiFindInstanceUsers     0048ecd0 f   sdai:sdaiInstance.obj
 0001:0008dd80       _sdaiFindInstanceUsedIn    0048ed80 f   sdai:sdaiInstance.obj
 0001:0008ded0       _sdaiFindInstanceUsedInBN  0048eed0 f   sdai:sdaiInstance.obj
 0001:0008e020       _sdaiGetAttrBound          0048f020 f   sdai:sdaiInstance.obj
 0001:0008e1f0       _sdaiGetAttrBoundBN        0048f1f0 f   sdai:sdaiInstance.obj
 0001:0008e210       _sdaiFindInstanceRolesOf   0048f210 f   sdai:sdaiInstance.obj
 0001:0008e2d0       ??_EListOfRoseAttribute@@UAEPAXI@Z 0048f2d0 f i sdai:sdaiInstance.obj
 0001:0008e2d0       ??_GListOfRoseAttribute@@UAEPAXI@Z 0048f2d0 f i sdai:sdaiInstance.obj
 0001:0008e2f0       ?find_types@@YADPAVentity_definition@@PAVSdai_NPL@@IPAVdefined_type@@@Z 0048f2f0 f   sdai:sdaiInstance.obj
 0001:0008e590       _sdaiFindInstanceTypeOf    0048f590 f   sdai:sdaiInstance.obj
 0001:0008e730       _sdaiGetAttrs              0048f730 f   sdai:sdaiInstance.obj
 0001:0008e7d0       _sdaiGetAttrsBN            0048f7d0 f   sdai:sdaiInstance.obj
 0001:0008e870       __sdaiGetAllAttrDefinitions 0048f870 f   sdai:sdaiInstance.obj
 0001:0008e930       _sdaiGetAllAttrs           0048f930 f   sdai:sdaiInstance.obj
 0001:0008ea50       _sdaiNearCopyInstance      0048fa50 f   sdai:sdaiInstance.obj
 0001:0008ea70       _sdaiFarCopyInstance       0048fa70 f   sdai:sdaiInstance.obj
 0001:0008eb90       _sdaiDeleteInstance        0048fb90 f   sdai:sdaiInstance.obj
 0001:0008ebb0       ?_sdaiVaPutAttr@@YAXPAUSdai_Id@@0W4SdaiPrimitiveType@@PAPAD@Z 0048fbb0 f   sdai:sdaiInstance.obj
 0001:0008eca0       _sdaiPutAttr               0048fca0 f   sdai:sdaiInstance.obj
 0001:0008ecd0       _sdaiPutAttrBN             0048fcd0 f   sdai:sdaiInstance.obj
 0001:0008ed20       _sdaiUnsetAttr             0048fd20 f   sdai:sdaiInstance.obj
 0001:0008ed70       _sdaiUnsetAttrBN           0048fd70 f   sdai:sdaiInstance.obj
 0001:0008eda0       _sdaiCreateAggr            0048fda0 f   sdai:sdaiInstance.obj
 0001:0008eea0       _sdaiCreateAggrADB         0048fea0 f   sdai:sdaiInstance.obj
 0001:0008eed0       _sdaiCreateAggrBN          0048fed0 f   sdai:sdaiInstance.obj
 0001:0008ef10       _sdaiCreateAggrBNADB       0048ff10 f   sdai:sdaiInstance.obj
 0001:0008ef50       _sdaiGetPersistentLabel    0048ff50 f   sdai:sdaiInstance.obj
 0001:0008efe0       _sdaiGetSessionId          0048ffe0 f   sdai:sdaiInstance.obj
 0001:0008f140       _sdaiGetDescription        00490140 f   sdai:sdaiInstance.obj
 0001:0008f210       _sdaiValidateWhereRule     00490210 f   sdai:sdaiInstance.obj
 0001:0008f320       ?findRuleBN@@YAPAVwhere_rule@@PAVentity_definition@@PAD@Z 00490320 f   sdai:sdaiInstance.obj
 0001:0008f3d0       _sdaiValidateWhereRuleBN   004903d0 f   sdai:sdaiInstance.obj
 0001:0008f5b0       _sdaiValidateRequiredAttrs 004905b0 f   sdai:sdaiInstance.obj
 0001:0008f5f0       _sdaiValidateInverseAttrs  004905f0 f   sdai:sdaiInstance.obj
 0001:0008f640       _sdaiValidateAttrTypes     00490640 f   sdai:sdaiInstance.obj
 0001:0008f650       _sdaiValidateAggrSizes     00490650 f   sdai:sdaiInstance.obj
 0001:0008f6a0       _sdaiValidateAggrUni       004906a0 f   sdai:sdaiInstance.obj
 0001:0008f6f0       _sdaiValidateArrayNotOptional 004906f0 f   sdai:sdaiInstance.obj
 0001:0008f740       _sdaiValidateStringWidth   00490740 f   sdai:sdaiInstance.obj
 0001:0008f790       _sdaiValidateBinaryWidth   00490790 f   sdai:sdaiInstance.obj
 0001:0008f800       _sdaiValidateRealPrecision 00490800 f   sdai:sdaiInstance.obj
 0001:0008f810       _sdaiPutAttrs              00490810 f   sdai:sdaiInstance.obj
 0001:0008f880       _sdaiPutAttrsBN            00490880 f   sdai:sdaiInstance.obj
 0001:0008f900       _sdaiPutAllAttrs           00490900 f   sdai:sdaiInstance.obj
 0001:0008f9b0       __sdaiDisplay              004909b0 f   sdai:sdaiInstance.obj
 0001:0008f9d0       __sdaiGetPropType          004909d0 f   sdai:sdaiInstance.obj
 0001:0008f9e0       __sdaiSetProp              004909e0 f   sdai:sdaiInstance.obj
 0001:0008fa60       ?manager_type@SdaiProperty@@UAEIXZ 00490a60 f i sdai:sdaiInstance.obj
 0001:0008fa70       ??_GSdaiProperty@@UAEPAXI@Z 00490a70 f i sdai:sdaiInstance.obj
 0001:0008fa70       ??_ESdaiProperty@@UAEPAXI@Z 00490a70 f i sdai:sdaiInstance.obj
 0001:0008fa90       __sdaiGetProp              00490a90 f   sdai:sdaiInstance.obj
 0001:0008fac0       __sdaiRemoveProp           00490ac0 f   sdai:sdaiInstance.obj
 0001:0008fae0       _sdaiGetMemberCount        00490ae0 f   sdai:sdaiAggr.obj
 0001:0008fbb0       _sdaiIsMember              00490bb0 f   sdai:sdaiAggr.obj
 0001:0008fc90       _sdaiCreateIterator        00490c90 f   sdai:sdaiAggr.obj
 0001:0008fd70       _sdaiDeleteIterator        00490d70 f   sdai:sdaiAggr.obj
 0001:0008fdd0       _sdaiBeginning             00490dd0 f   sdai:sdaiAggr.obj
 0001:0008fe50       _sdaiNext                  00490e50 f   sdai:sdaiAggr.obj
 0001:0008feb0       _sdaiGetAggrByIterator     00490eb0 f   sdai:sdaiAggr.obj
 0001:0008ffd0       _sdaiGetAggrElementBoundByItr 00490fd0 f   sdai:sdaiAggr.obj
 0001:00090010       _sdaiGetLowerBound         00491010 f   sdai:sdaiAggr.obj
 0001:00090020       _sdaiGetUpperBound         00491020 f   sdai:sdaiAggr.obj
 0001:00090040       _sdaiCreateNestedAggrByItr 00491040 f   sdai:sdaiAggr.obj
 0001:000901e0       _sdaiCreateNestedAggrByItrADB 004911e0 f   sdai:sdaiAggr.obj
 0001:00090210       _sdaiPutAggrByIterator     00491210 f   sdai:sdaiAggr.obj
 0001:00090330       _sdaiRemoveByIterator      00491330 f   sdai:sdaiAggr.obj
 0001:000903c0       _sdaiAdd                   004913c0 f   sdai:sdaiAggr.obj
 0001:00090520       _sdaiCreateNestedAggr      00491520 f   sdai:sdaiAggr.obj
 0001:00090640       _sdaiCreateNestedAggrADB   00491640 f   sdai:sdaiAggr.obj
 0001:00090670       _sdaiRemove                00491670 f   sdai:sdaiAggr.obj
 0001:00090840       _sdaiGetAggrByIndex        00491840 f   sdai:sdaiAggr.obj
 0001:000909c0       _sdaiEnd                   004919c0 f   sdai:sdaiAggr.obj
 0001:00090a10       _sdaiPrevious              00491a10 f   sdai:sdaiAggr.obj
 0001:00090a30       _sdaiGetAggrElementBoundByIndex 00491a30 f   sdai:sdaiAggr.obj
 0001:00090a50       _sdaiPutAggrByIndex        00491a50 f   sdai:sdaiAggr.obj
 0001:00090ba0       ?createNestedAggr@@YAPAUSdai_Id_aggr@@PAU1@IPAVSdai_ADB@@@Z 00491ba0 f   sdai:sdaiAggr.obj
 0001:00090ca0       _sdaiCreateNestedAggrByIndex 00491ca0 f   sdai:sdaiAggr.obj
 0001:00090d00       _sdaiCreateNestedAggrByIndexADB 00491d00 f   sdai:sdaiAggr.obj
 0001:00090d30       _sdaiTestArrayByIndex      00491d30 f   sdai:sdaiAggr.obj
 0001:00090e60       _sdaiTestArrayByItr        00491e60 f   sdai:sdaiAggr.obj
 0001:00090e80       _sdaiGetLowerIndex         00491e80 f   sdai:sdaiAggr.obj
 0001:00090ef0       _sdaiGetUpperIndex         00491ef0 f   sdai:sdaiAggr.obj
 0001:00090f70       _sdaiUnsetArrayByIndex     00491f70 f   sdai:sdaiAggr.obj
 0001:00091030       _sdaiUnsetArrayByItr       00492030 f   sdai:sdaiAggr.obj
 0001:00091120       _sdaiReindexArray          00492120 f   sdai:sdaiAggr.obj
 0001:00091180       _sdaiResetArrayIndex       00492180 f   sdai:sdaiAggr.obj
 0001:00091210       _sdaiInsertBefore          00492210 f   sdai:sdaiAggr.obj
 0001:00091300       _sdaiInsertAfter           00492300 f   sdai:sdaiAggr.obj
 0001:000913c0       _sdaiInsertByIndex         004923c0 f   sdai:sdaiAggr.obj
 0001:00091520       _sdaiInsertNestedAggrBefore 00492520 f   sdai:sdaiAggr.obj
 0001:00091630       _sdaiInsertNestedAggrBeforeADB 00492630 f   sdai:sdaiAggr.obj
 0001:000916c0       _sdaiInsertNestedAggrAfter 004926c0 f   sdai:sdaiAggr.obj
 0001:000917a0       _sdaiInsertNestedAggrAfterADB 004927a0 f   sdai:sdaiAggr.obj
 0001:00091830       _sdaiInsertNestedAggrByIndex 00492830 f   sdai:sdaiAggr.obj
 0001:000919a0       _sdaiInsertNestedAggrByIndexADB 004929a0 f   sdai:sdaiAggr.obj
 0001:000919d0       _sdaiRemoveByIndex         004929d0 f   sdai:sdaiAggr.obj
 0001:00091a50       __sdaiDisplayAggr          00492a50 f   sdai:sdaiAggr.obj
 0001:00091a80       ??2@YAPAXI@Z               00492a80 f   sdai:SdaiMemory.obj
 0001:00091a90       ??3@YAXPAX@Z               00492a90 f   sdai:SdaiMemory.obj
 0001:00091af0       ?_address@global_rule@@UAEPAXXZ 00492af0 f   sdai:global_rule.obj
 0001:00091b00       ?classType@global_rule@@UAEAAVRoseTypePtr@@XZ 00492b00 f   sdai:global_rule.obj
 0001:00091b90       ?global_rule_INIT_FCN@@YAXAAVRoseTypePtr@@@Z 00492b90 f   sdai:global_rule.obj
 0001:00091c50       ?entities@global_rule@@QAEPAVListOfentity_definition@@XZ 00492c50 f   sdai:global_rule.obj
 0001:00091cf0       ??_GListOfentity_definition@@UAEPAXI@Z 00492cf0 f i sdai:global_rule.obj
 0001:00091cf0       ??_EListOfentity_definition@@UAEPAXI@Z 00492cf0 f i sdai:global_rule.obj
 0001:00091d10       ?where_rules@global_rule@@QAEPAVListOfwhere_rule@@XZ 00492d10 f   sdai:global_rule.obj
 0001:00091db0       ??_GListOfwhere_rule@@UAEPAXI@Z 00492db0 f i sdai:global_rule.obj
 0001:00091db0       ??_EListOfwhere_rule@@UAEPAXI@Z 00492db0 f i sdai:global_rule.obj
 0001:00091dd0       ??0global_rule@@QAE@XZ     00492dd0 f   sdai:global_rule.obj
 0001:00091df0       ??_Gglobal_rule@@UAEPAXI@Z 00492df0 f i sdai:global_rule.obj
 0001:00091df0       ??_Eglobal_rule@@UAEPAXI@Z 00492df0 f i sdai:global_rule.obj
 0001:00091e10       ??0global_rule@@QAE@PADPAVListOfentity_definition@@PAVListOfwhere_rule@@PAVschema_definition@@@Z 00492e10 f   sdai:global_rule.obj
 0001:00091e60       ?find_entity_defn@@YAPAVentity_definition@@PAVRoseDesign@@PAD@Z 00492e60 f   sdai:SdaiMeta.obj
 0001:00091f40       ?getEntity@@YAPAVentity_definition@@PADPAVRoseDesign@@@Z 00492f40 f   sdai:SdaiMeta.obj
 0001:00091f70       ?getEntity@@YAPAVentity_definition@@PAD@Z 00492f70 f   sdai:SdaiMeta.obj
 0001:00091fa0       ?sdai_Dictionary@@YAPAVschema_definition@@PAD@Z 00492fa0 f   sdai:SdaiMeta.obj
 0001:00092070       ?sdai_findOpenModel@@YAPAVsdai_model@@PAVRoseDesign@@@Z 00493070 f   sdai:SdaiMeta.obj
 0001:000920b0       ?sdai_getRepository@@YAPAVsdai_repository@@PAVRoseDesign@@@Z 004930b0 f   sdai:SdaiMeta.obj
 0001:000920e0       ?sdai_findModel@@YAPAVsdai_model@@PAVRoseDesign@@@Z 004930e0 f   sdai:SdaiMeta.obj
 0001:00092140       ?findSchemaDefinitionInDesign@@YAPAVschema_definition@@PAVRoseDesign@@@Z 00493140 f   sdai:SdaiMeta.obj
 0001:000921e0       ?findSchema@@YAPAVschema_definition@@PAD@Z 004931e0 f   sdai:SdaiMeta.obj
 0001:00092210       ?findSchema@@YAPAVschema_definition@@PAVRoseDesign@@@Z 00493210 f   sdai:SdaiMeta.obj
 0001:00092230       ?getFilename@@YAXPAVRoseDesign@@AAVRoseStringObject@@PAD@Z 00493230 f   sdai:SdaiMeta.obj
 0001:00092330       ?sdaitype@@YA?AW4SdaiPrimitiveType@@W4RoseNodeType@@@Z 00493330 f   sdai:SdaiMeta.obj
 0001:000923e0       ?sdai_isotime@@YAPADJ@Z    004933e0 f   sdai:SdaiMeta.obj
 0001:000923f0       ?sdai_removeFromVector@@YAXPAVrose_vector@@I@Z 004933f0 f   sdai:SdaiMeta.obj
 0001:00092420       ?sdai_unsetAttribute@@YADPAVRoseObject@@PAVRoseAttribute@@I@Z 00493420 f   sdai:SdaiMeta.obj
 0001:00092570       ?sdai_findAttribute@@YAPAVexplicit_attribute@@PAVRoseAttribute@@@Z 00493570 f   sdai:SdaiMeta.obj
 0001:000925b0       ?get_instance_model@@YAPAVsdai_model@@PAVRoseStructure@@@Z 004935b0 f   sdai:SdaiMeta.obj
 0001:000925d0       ?get_instance_model@@YAPAVsdai_model@@PAUSdai_Id@@@Z 004935d0 f   sdai:SdaiMeta.obj
 0001:00092610       ?get_sdai_instance@@YAPAVsdai_instance@@PAUSdai_Id@@@Z 00493610 f   sdai:SdaiMeta.obj
 0001:00092640       ?get_application_instance@@YAPAVRoseStructure@@PAUSdai_Id@@@Z 00493640 f   sdai:SdaiMeta.obj
 0001:000926e0       ?get_entity@@YAPAVentity_definition@@PAUSdai_Id@@@Z 004936e0 f   sdai:SdaiMeta.obj
 0001:00092720       ?getValue@SdaiAttributeAccessor_virtual@@UAEDPAUSdai_Id@@PAVSdai_ADB@@@Z 00493720 f   sdai:SdaiMeta.obj
 0001:00092910       ?new_SdaiAttributeAccessor_INSTANCE@@YADPAVentity_definition@@PADP6ADPAVsdai_instance@@PAPAUSdai_Id@@@Z@Z 00493910 f   sdai:SdaiMeta.obj
 0001:00092970       ?get_AGGR@SdaiAttributeAccessor_virtual@@UAEDPAVsdai_instance@@PAPAUSdai_Id_aggr@@@Z 00493970 f i sdai:SdaiMeta.obj
 0001:00092980       ?get_BINARY@SdaiAttributeAccessor_virtual@@UAEDPAVsdai_instance@@PAPAE@Z 00493980 f i sdai:SdaiMeta.obj
 0001:00092990       ?get_BOOLEAN@SdaiAttributeAccessor_virtual@@UAEDPAVsdai_instance@@PAH@Z 00493990 f i sdai:SdaiMeta.obj
 0001:000929a0       ?get_STRING@SdaiAttributeAccessor_virtual@@UAEDPAVsdai_instance@@PAPAD@Z 004939a0 f i sdai:SdaiMeta.obj
 0001:000929b0       ?get_INTEGER@SdaiAttributeAccessor_virtual@@UAEDPAVsdai_instance@@PAJ@Z 004939b0 f i sdai:SdaiMeta.obj
 0001:000929c0       ?get_ENUM@SdaiAttributeAccessor_virtual@@UAEDPAVsdai_instance@@PAPAD@Z 004939c0 f i sdai:SdaiMeta.obj
 0001:000929d0       ?get_LOGICAL@SdaiAttributeAccessor_virtual@@UAEDPAVsdai_instance@@PAH@Z 004939d0 f i sdai:SdaiMeta.obj
 0001:000929e0       ?get_REAL@SdaiAttributeAccessor_virtual@@UAEDPAVsdai_instance@@PAN@Z 004939e0 f i sdai:SdaiMeta.obj
 0001:000929f0       ?type@SdaiAttributeAccessor_INSTANCE@@EAE?AW4SdaiPrimitiveType@@XZ 004939f0 f i sdai:SdaiMeta.obj
 0001:00092a00       ?get_INSTANCE@SdaiAttributeAccessor_INSTANCE@@EAEDPAVsdai_instance@@PAPAUSdai_Id@@@Z 00493a00 f i sdai:SdaiMeta.obj
 0001:00092a20       ?new_SdaiAttributeAccessor_AGGR@@YADPAVentity_definition@@PADP6ADPAVsdai_instance@@PAPAUSdai_Id_aggr@@@Z@Z 00493a20 f   sdai:SdaiMeta.obj
 0001:00092a80       ?get_INSTANCE@SdaiAttributeAccessor_virtual@@UAEDPAVsdai_instance@@PAPAUSdai_Id@@@Z 00493a80 f i sdai:SdaiMeta.obj
 0001:00092a90       ?type@SdaiAttributeAccessor_AGGR@@EAE?AW4SdaiPrimitiveType@@XZ 00493a90 f i sdai:SdaiMeta.obj
 0001:00092aa0       ?get_AGGR@SdaiAttributeAccessor_AGGR@@EAEDPAVsdai_instance@@PAPAUSdai_Id_aggr@@@Z 00493aa0 f i sdai:SdaiMeta.obj
 0001:00092ac0       ?new_SdaiAttributeAccessor_BOOLEAN@@YADPAVentity_definition@@PADP6ADPAVsdai_instance@@PAH@Z@Z 00493ac0 f   sdai:SdaiMeta.obj
 0001:00092b20       ?type@SdaiAttributeAccessor_BOOLEAN@@EAE?AW4SdaiPrimitiveType@@XZ 00493b20 f i sdai:SdaiMeta.obj
 0001:00092b30       ?get_BOOLEAN@SdaiAttributeAccessor_BOOLEAN@@EAEDPAVsdai_instance@@PAH@Z 00493b30 f i sdai:SdaiMeta.obj
 0001:00092b50       ?new_SdaiAttributeAccessor_STRING@@YADPAVentity_definition@@PADP6ADPAVsdai_instance@@PAPAD@Z@Z 00493b50 f   sdai:SdaiMeta.obj
 0001:00092bb0       ?type@SdaiAttributeAccessor_STRING@@EAE?AW4SdaiPrimitiveType@@XZ 00493bb0 f i sdai:SdaiMeta.obj
 0001:00092bc0       ?get_STRING@SdaiAttributeAccessor_STRING@@EAEDPAVsdai_instance@@PAPAD@Z 00493bc0 f i sdai:SdaiMeta.obj
 0001:00092be0       ?new_SdaiAttributeAccessor_INTEGER@@YADPAVentity_definition@@PADP6ADPAVsdai_instance@@PAJ@Z@Z 00493be0 f   sdai:SdaiMeta.obj
 0001:00092c40       ?type@SdaiAttributeAccessor_INTEGER@@EAE?AW4SdaiPrimitiveType@@XZ 00493c40 f i sdai:SdaiMeta.obj
 0001:00092c50       ?get_INTEGER@SdaiAttributeAccessor_INTEGER@@EAEDPAVsdai_instance@@PAJ@Z 00493c50 f i sdai:SdaiMeta.obj
 0001:00092c70       ?new_SdaiAttributeAccessor_ENUM@@YADPAVentity_definition@@PADP6ADPAVsdai_instance@@PAPAD@Z@Z 00493c70 f   sdai:SdaiMeta.obj
 0001:00092cd0       ?type@SdaiAttributeAccessor_ENUM@@EAE?AW4SdaiPrimitiveType@@XZ 00493cd0 f i sdai:SdaiMeta.obj
 0001:00092ce0       ?get_ENUM@SdaiAttributeAccessor_ENUM@@EAEDPAVsdai_instance@@PAPAD@Z 00493ce0 f i sdai:SdaiMeta.obj
 0001:00092d00       ?new_SdaiAttributeAccessor_LOGICAL@@YADPAVentity_definition@@PADP6ADPAVsdai_instance@@PAH@Z@Z 00493d00 f   sdai:SdaiMeta.obj
 0001:00092d60       ?type@SdaiAttributeAccessor_LOGICAL@@EAE?AW4SdaiPrimitiveType@@XZ 00493d60 f i sdai:SdaiMeta.obj
 0001:00092d70       ?get_LOGICAL@SdaiAttributeAccessor_LOGICAL@@EAEDPAVsdai_instance@@PAH@Z 00493d70 f i sdai:SdaiMeta.obj
 0001:00092d90       ?new_SdaiAttributeAccessor_REAL@@YADPAVentity_definition@@PADP6ADPAVsdai_instance@@PAN@Z@Z 00493d90 f   sdai:SdaiMeta.obj
 0001:00092df0       ?type@SdaiAttributeAccessor_REAL@@EAE?AW4SdaiPrimitiveType@@XZ 00493df0 f i sdai:SdaiMeta.obj
 0001:00092e00       ?get_REAL@SdaiAttributeAccessor_REAL@@EAEDPAVsdai_instance@@PAN@Z 00493e00 f i sdai:SdaiMeta.obj
 0001:00092e20       ?assertOpenSession@@YADXZ  00493e20 f   sdai:sdaiAPI.obj
 0001:00092ee0       ?assertOpenTransaction@@YADXZ 00493ee0 f   sdai:sdaiAPI.obj
 0001:00092ef0       ?assertModel@@YAPAVsdai_model@@PAUSdai_Id@@@Z 00493ef0 f   sdai:sdaiAPI.obj
 0001:00092ff0       ?assertModelOpen@@YAPAVsdai_model@@PAUSdai_Id@@@Z 00493ff0 f   sdai:sdaiAPI.obj
 0001:00093050       ?assertModelWritable@@YAPAVsdai_model@@PAUSdai_Id@@@Z 00494050 f   sdai:sdaiAPI.obj
 0001:000930a0       ?assert_schema_definition@@YAPAVschema_definition@@PAD@Z 004940a0 f   sdai:sdaiAPI.obj
 0001:00093110       ?assertRoseStructure@@YAPAVRoseStructure@@PAUSdai_Id@@PAPAVsdai_model@@@Z 00494110 f   sdai:sdaiAPI.obj
 0001:00093180       ?assertWritableRoseStructure@@YAPAVRoseStructure@@PAUSdai_Id@@@Z 00494180 f   sdai:sdaiAPI.obj
 0001:000931c0       ?assert_entity_definition@@YAPAVentity_definition@@PAUSdai_Id@@@Z 004941c0 f   sdai:sdaiAPI.obj
 0001:00093280       ?assert_entity_definition@@YAPAVentity_definition@@PAD0@Z 00494280 f   sdai:sdaiAPI.obj
 0001:000932c0       ?assert_adb@@YAPAVSdai_ADB@@PAUSdai_ADBId@@@Z 004942c0 f   sdai:sdaiAPI.obj
 0001:00093310       ?assert_npl@@YAPAVSdai_NPL@@PAUSdai_Id_aggr@@D@Z 00494310 f   sdai:sdaiAPI.obj
 0001:00093400       ?stringitize@@YAPADPAVRoseObject@@@Z 00494400 f   sdai:sdaiAPI.obj
 0001:00093450       ?_sdaiValidateRequired@@YAHPAVRoseStructure@@PAVSdai_NPL@@@Z 00494450 f   sdai:sdaiAPI.obj
 0001:00093520       ?validateImmediateInverseAttrs@@YAHPAVRoseStructure@@PAVRoseDomain@@PAVSdai_NPL@@@Z 00494520 f   sdai:sdaiAPI.obj
 0001:00093780       ?_sdaiValidateInverse@@YAHPAVRoseStructure@@PAVSdai_NPL@@@Z 00494780 f   sdai:sdaiAPI.obj
 0001:00093820       ?_sdaiValidateAggrSizes@@YAHPAVRoseStructure@@PAVSdai_NPL@@@Z 00494820 f   sdai:sdaiAPI.obj
 0001:00094070       ?is_unique@@YADPAVRoseAggregate@@@Z 00495070 f   sdai:sdaiAPI.obj
 0001:000941a0       ?_sdaiValidateAggrUni@@YAHPAVRoseStructure@@PAVSdai_NPL@@@Z 004951a0 f   sdai:sdaiAPI.obj
 0001:000943a0       ?_sdaiValidateArrayNotOptional@@YAHPAVRoseStructure@@PAVSdai_NPL@@@Z 004953a0 f   sdai:sdaiAPI.obj
 0001:00094600       ?_sdaiValidateStringWidth@@YAHPAVRoseStructure@@PAVSdai_NPL@@@Z 00495600 f   sdai:sdaiAPI.obj
 0001:00094ac0       ?_sdaiValidateBinaryWidth@@YAHPAVRoseStructure@@PAVSdai_NPL@@@Z 00495ac0 f   sdai:sdaiAPI.obj
 0001:00094f80       ?name@SdaiError@@QAEPADH@Z 00495f80 f   sdai:SdaiError.obj
 0001:00095320       ?va_message@SdaiError@@QAEXPAD0@Z 00496320 f   sdai:SdaiError.obj
 0001:00095370       ?message@SdaiError@@QAAXPADZZ 00496370 f   sdai:SdaiError.obj
 0001:00095390       ?va_err_report@SdaiError@@QAEXHPAD0@Z 00496390 f   sdai:SdaiError.obj
 0001:00095440       ?err_report@SdaiError@@QAAXHPADZZ 00496440 f   sdai:SdaiError.obj
 0001:00095460       ?push@SdaiError@@QAEXP6AXH@Z@Z 00496460 f   sdai:SdaiError.obj
 0001:00095470       ?pop@SdaiError@@QAEP6AXH@ZXZ 00496470 f   sdai:SdaiError.obj
 0001:00095480       ?INIT_sdai_session@@YADXZ  00496480 f   sdai:sdai_session.obj
 0001:00095800       ?registerModel@sdai_session@@AAEXPAVsdai_model@@@Z 00496800 f   sdai:sdai_session.obj
 0001:00095820       ?unregisterModel@sdai_session@@AAEXPAVsdai_model@@@Z 00496820 f   sdai:sdai_session.obj
 0001:00095870       ?recording_active@sdai_session@@QAEDXZ 00496870 f   sdai:sdai_session.obj
 0001:00095880       ?errors@sdai_session@@QAEPAVlistOferror_event@@XZ 00496880 f   sdai:sdai_session.obj
 0001:00095890       ?active_models@sdai_session@@QAEPAVsetOfsdai_model@@XZ 00496890 f   sdai:sdai_session.obj
 0001:000958b0       ?data_dictionary@sdai_session@@QAEPAVschema_instance@@XZ 004968b0 f   sdai:sdai_session.obj
 0001:000958c0       ?active_transaction@sdai_session@@QAEPAVsetOfsdai_transaction@@XZ 004968c0 f   sdai:sdai_session.obj
 0001:000958d0       ?init_virtual@sdai_session@@AAEXPAVRoseDesign@@@Z 004968d0 f   sdai:sdai_session.obj
 0001:00095920       ?init_nonvirtual@sdai_session@@AAEXPAVRoseDesign@@@Z 00496920 f   sdai:sdai_session.obj
 0001:00095970       ?open@sdai_session@@QAEDXZ 00496970 f   sdai:sdai_session.obj
 0001:00095bb0       ?close@sdai_session@@QAEXXZ 00496bb0 f   sdai:sdai_session.obj
 0001:00095bd0       ?get_model@sdai_session@@QAEPAVsdai_model@@I@Z 00496bd0 f   sdai:sdai_session.obj
 0001:00095bf0       ?dictionary_schema@sdai_session@@QAEPAVschema_definition@@XZ 00496bf0 f   sdai:sdai_session.obj
 0001:00095c00       ?session_schema@sdai_session@@QAEPAVschema_definition@@XZ 00496c00 f   sdai:sdai_session.obj
 0001:00095c10       ?population_schema@sdai_session@@QAEPAVschema_definition@@XZ 00496c10 f   sdai:sdai_session.obj
 0001:00095c20       ?dictionary_instance_def@sdai_session@@QAEPAVentity_definition@@XZ 00496c20 f   sdai:sdai_session.obj
 0001:00095c30       ?session_instance_def@sdai_session@@QAEPAVentity_definition@@XZ 00496c30 f   sdai:sdai_session.obj
 0001:00095c40       ?application_instance_def@sdai_session@@QAEPAVentity_definition@@XZ 00496c40 f   sdai:sdai_session.obj
 0001:00095c90       ?_address@uniqueness_rule@@UAEPAXXZ 00496c90 f   sdai:uniqueness_rule.obj
 0001:00095ca0       ?classType@uniqueness_rule@@UAEAAVRoseTypePtr@@XZ 00496ca0 f   sdai:uniqueness_rule.obj
 0001:00095d30       ?uniqueness_rule_INIT_FCN@@YAXAAVRoseTypePtr@@@Z 00496d30 f   sdai:uniqueness_rule.obj
 0001:00095de0       ?Attributes@uniqueness_rule@@QAEPAVListOfattribute@@XZ 00496de0 f   sdai:uniqueness_rule.obj
 0001:00095e80       ??_EListOfattribute@@UAEPAXI@Z 00496e80 f i sdai:uniqueness_rule.obj
 0001:00095e80       ??_GListOfattribute@@UAEPAXI@Z 00496e80 f i sdai:uniqueness_rule.obj
 0001:00095ea0       ??0uniqueness_rule@@QAE@XZ 00496ea0 f   sdai:uniqueness_rule.obj
 0001:00095ec0       ??_Guniqueness_rule@@UAEPAXI@Z 00496ec0 f i sdai:uniqueness_rule.obj
 0001:00095ec0       ??_Euniqueness_rule@@UAEPAXI@Z 00496ec0 f i sdai:uniqueness_rule.obj
 0001:00095ee0       ??0uniqueness_rule@@QAE@PADPAVListOfattribute@@PAVentity_definition@@@Z 00496ee0 f   sdai:uniqueness_rule.obj
 0001:00095f30       ?INIT_sdai_repository@@YADXZ 00496f30 f   sdai:sdai_repository.obj
 0001:00096090       ?repos@SdaiKnownRepoSet@@AAEPAVDictionaryOfRoseRepository@@XZ 00497090 f   sdai:sdai_repository.obj
 0001:000960a0       ?size@SdaiKnownRepoSet@@EAEIXZ 004970a0 f   sdai:sdai_repository.obj
 0001:000960b0       ?empty@setOfschema_instance@@AAEXXZ 004970b0 f   sdai:sdai_repository.obj
 0001:000960f0       ?remove@setOfschema_instance@@AAEXPAVschema_instance@@@Z 004970f0 f   sdai:sdai_repository.obj
 0001:00096130       ?getValue@setOfschema_instance@@UAEDIPAVSdai_ADB@@@Z 00497130 f   sdai:sdai_repository.obj
 0001:00096160       ?rescan@sdai_repository_contents@@AAEXXZ 00497160 f   sdai:sdai_repository.obj
 0001:000963d0       ?contents@sdai_repository@@QAEPAVsdai_repository_contents@@XZ 004973d0 f   sdai:sdai_repository.obj
 0001:000963e0       ?description@sdai_repository@@QAEPADXZ 004973e0 f   sdai:sdai_repository.obj
 0001:000963f0       ?session@sdai_repository@@QAEPAVsdai_session@@XZ 004973f0 f   sdai:sdai_repository.obj
 0001:00096400       ?open@sdai_repository@@QAEXXZ 00497400 f   sdai:sdai_repository.obj
 0001:00096410       ?close@sdai_repository@@QAEXXZ 00497410 f   sdai:sdai_repository.obj
 0001:00096460       ?findModel@sdai_repository@@QAEPAVsdai_model@@PAD@Z 00497460 f   sdai:sdai_repository.obj
 0001:00096490       ??0SdaiKnownRepoSet@@AAE@XZ 00497490 f   sdai:sdai_repository.obj
 0001:000967a0       ?size@SdaiDesignsInPath@@EAEDIH@Z 004977a0 f i sdai:sdai_repository.obj
 0001:000967c0       ?entity@sdai_repository_contents@@EAEPAVentity_definition@@XZ 004977c0 f i sdai:sdai_repository.obj
 0001:000967e0       ?get_sdai_repository_contents@sdai_repository_contents@@EAEPAV1@XZ 004977e0 f i sdai:sdai_repository.obj
 0001:000967f0       ?entity@sdai_repository@@EAEPAVentity_definition@@XZ 004977f0 f i sdai:sdai_repository.obj
 0001:00096810       ?get_sdai_repository@sdai_repository@@EAEPAV1@XZ 00497810 f i sdai:sdai_repository.obj
 0001:00096820       ??_Gsdai_repository@@UAEPAXI@Z 00497820 f i sdai:sdai_repository.obj
 0001:00096820       ??_Esdai_repository@@UAEPAXI@Z 00497820 f i sdai:sdai_repository.obj
 0001:000968a0       ??0sdai_repository_contents@@QAE@XZ 004978a0 f i sdai:sdai_repository.obj
 0001:00096960       ?aggr_type@setOfschema_instance@@UAE?AW4AggregateType@@XZ 00497960 f i sdai:sdai_repository.obj
 0001:00096970       ?size@setOfschema_instance@@UAEIXZ 00497970 f i sdai:sdai_repository.obj
 0001:00096980       ?size@setOfschema_instance@@UAEDIH@Z 00497980 f i sdai:sdai_repository.obj
 0001:000969a0       ??_Gsdai_repository_contents@@UAEPAXI@Z 004979a0 f i sdai:sdai_repository.obj
 0001:000969a0       ??_Esdai_repository_contents@@UAEPAXI@Z 004979a0 f i sdai:sdai_repository.obj
 0001:000969f0       ??0setOfschema_instance@@QAE@XZ 004979f0 f i sdai:sdai_repository.obj
 0001:00096a60       ??_GSdaiDesignsInPath@@UAEPAXI@Z 00497a60 f i sdai:sdai_repository.obj
 0001:00096a60       ??_ESdaiDesignsInPath@@UAEPAXI@Z 00497a60 f i sdai:sdai_repository.obj
 0001:00096a90       ??_EsetOfschema_instance@@UAEPAXI@Z 00497a90 f i sdai:sdai_repository.obj
 0001:00096a90       ??_GsetOfschema_instance@@UAEPAXI@Z 00497a90 f i sdai:sdai_repository.obj
 0001:00096ac0       ?get@SdaiKnownRepoSet@@QAEPAVsdai_repository@@I@Z 00497ac0 f   sdai:sdai_repository.obj
 0001:00096ae0       ?find@SdaiKnownRepoSet@@QAEPAVsdai_repository@@PAVRoseRepository@@@Z 00497ae0 f   sdai:sdai_repository.obj
 0001:00096b20       ?find@SdaiKnownRepoSet@@QAEPAVsdai_repository@@PAD@Z 00497b20 f   sdai:sdai_repository.obj
 0001:00096ba0       ?close@SdaiActiveRepoSet@@QAEXXZ 00497ba0 f   sdai:sdai_repository.obj
 0001:00096bd0       ?getCurrentRepo@SdaiActiveRepoItor@@QAEPAVsdai_repository@@XZ 00497bd0 f   sdai:sdai_repository.obj
 0001:00096bf0       ?next@SdaiActiveRepoItor@@EAEDXZ 00497bf0 f   sdai:sdai_repository.obj
 0001:00096c00       ?getNext@SdaiActiveRepoItor@@QAEPAVsdai_repository@@XZ 00497c00 f   sdai:sdai_repository.obj
 0001:00096c40       ?new_iterator@SdaiActiveRepoSet@@EAEPAVIterator@@XZ 00497c40 f   sdai:sdai_repository.obj
 0001:00096ce0       ?begining@Iterator@@UAEXXZ 00497ce0 f i sdai:sdai_repository.obj
 0001:00096cf0       ?next@Iterator@@UAEDXZ     00497cf0 f i sdai:sdai_repository.obj
 0001:00096d00       ?getValue@Iterator@@UAEDPAVSdai_ADB@@@Z 00497d00 f i sdai:sdai_repository.obj
 0001:00096d10       ?atstart@Iterator@@UAEDXZ  00497d10 f i sdai:sdai_repository.obj
 0001:00096d20       ?atend@Iterator@@UAEDXZ    00497d20 f i sdai:sdai_repository.obj
 0001:00096d30       ?get_Iterator_RW@Iterator@@UAEPAVIterator_RW@@XZ 00497d30 f i sdai:sdai_repository.obj
 0001:00096d40       ?get_Iterator_RA@Iterator@@UAEPAVIterator_RA@@XZ 00497d40 f i sdai:sdai_repository.obj
 0001:00096d50       ?is_traversing@Iterator@@UAEDXZ 00497d50 f i sdai:sdai_repository.obj
 0001:00096d60       ?is_empty@Iterator@@UAEDXZ 00497d60 f i sdai:sdai_repository.obj
 0001:00096d70       ??_GIterator@@UAEPAXI@Z    00497d70 f i sdai:sdai_repository.obj
 0001:00096d70       ??_EIterator@@UAEPAXI@Z    00497d70 f i sdai:sdai_repository.obj
 0001:00096d90       ?getCurrent@Iterator_INSTANCE@@UAEPAUSdai_Id@@XZ 00497d90 f i sdai:sdai_repository.obj
 0001:00096da0       ??_EIterator_INSTANCE@@UAEPAXI@Z 00497da0 f i sdai:sdai_repository.obj
 0001:00096da0       ??_GIterator_INSTANCE@@UAEPAXI@Z 00497da0 f i sdai:sdai_repository.obj
 0001:00096dd0       ?traversing@SdaiActiveRepoItor@@EAEPAVSdaiAggregate@@XZ 00497dd0 f i sdai:sdai_repository.obj
 0001:00096e00       ?size@SdaiActiveRepoSet@@EAEIXZ 00497e00 f   sdai:sdai_repository.obj
 0001:00096ea0       ?findSchemaInstance@sdai_repository@@QAEPAVschema_instance@@PAD@Z 00497ea0 f   sdai:sdai_repository.obj
 0001:00096f40       ?INIT_sdai_repository_contents@@YADXZ 00497f40 f   sdai:sdai_repository.obj
 0001:000970a0       ?models@sdai_repository_contents@@QAEPAVsetOfsdai_model@@XZ 004980a0 f   sdai:sdai_repository.obj
 0001:000970c0       ?schemas@sdai_repository_contents@@QAEPAVsetOfschema_instance@@XZ 004980c0 f   sdai:sdai_repository.obj
 0001:000970d0       ?repository@sdai_repository_contents@@QAEPAVsdai_repository@@XZ 004980d0 f   sdai:sdai_repository.obj
 0001:000970e0       ?getCurrent@SdaiPathIterator@@UAEPAUSdai_Id@@XZ 004980e0 f   sdai:sdai_repository.obj
 0001:00097100       ?atend@SdaiPathIterator@@UAEDXZ 00498100 f   sdai:sdai_repository.obj
 0001:00097120       ?next@SdaiPathIterator@@UAEDXZ 00498120 f   sdai:sdai_repository.obj
 0001:00097140       ?initialize@SdaiDesignsInPath@@AAEXPAVsdai_repository@@@Z 00498140 f   sdai:sdai_repository.obj
 0001:00097150       ?new_iterator@SdaiDesignsInPath@@EAEPAVIterator@@XZ 00498150 f   sdai:sdai_repository.obj
 0001:000971f0       ?designs@SdaiDesignsInPath@@AAEDPAVListOfString@@@Z 004981f0 f   sdai:sdai_repository.obj
 0001:00097220       ?size@SdaiDesignsInPath@@EAEIXZ 00498220 f   sdai:sdai_repository.obj
 0001:000972c0       ?isEmpty@SdaiDesignsInPath@@EAEDXZ 004982c0 f   sdai:sdai_repository.obj
 0001:00097350       ?getValue@Iterator_INSTANCE@@WPPPPPPPA@AEDPAVSdai_ADB@@@Z 00498350 f i sdai:sdai_repository.obj
 0001:00097360       ??_ESdaiKnownRepoSet@@$4PPPPPPPM@A@AEPAXI@Z 00498360 f i sdai:sdai_repository.obj
 0001:00097370       ??_GSdaiKnownRepoSet@@UAEPAXI@Z 00498370 f i sdai:sdai_repository.obj
 0001:00097370       ??_ESdaiKnownRepoSet@@UAEPAXI@Z 00498370 f i sdai:sdai_repository.obj
 0001:000973d0       ??1sdai_repository_contents@@UAE@XZ 004983d0 f i sdai:sdai_repository.obj
 0001:00097400       ?size@SdaiKnownRepoSet@@$0PPPPPPPM@A@AEDIH@Z 00498400 f i sdai:sdai_repository.obj
 0001:00097410       ?size@SdaiKnownRepoSet@@EAEDIH@Z 00498410 f i sdai:sdai_repository.obj
 0001:00097440       ?size@SdaiKnownRepoSet@@$0PPPPPPPM@A@AEIXZ 00498440 f i sdai:sdai_repository.obj
 0001:00097450       ?aggr_type@SdaiKnownRepoSet@@$4PPPPPPPM@A@AE?AW4AggregateType@@XZ 00498450 f i sdai:sdai_repository.obj
 0001:00097460       ?aggr_type@SdaiKnownRepoSet@@UAE?AW4AggregateType@@XZ 00498460 f i sdai:sdai_repository.obj
 0001:00097470       ?new_iterator@SdaiKnownRepoSet@@$4PPPPPPPM@A@AEPAVIterator@@XZ 00498470 f i sdai:sdai_repository.obj
 0001:00097480       ?new_iterator@SdaiKnownRepoSet@@UAEPAVIterator@@XZ 00498480 f i sdai:sdai_repository.obj
 0001:000974a0       ?get_SdaiAggregate_RA@SdaiKnownRepoSet@@$4PPPPPPPM@A@AEPAVSdaiAggregate_RA@@XZ 004984a0 f i sdai:sdai_repository.obj
 0001:000974b0       ?get_SdaiAggregate_RA@SdaiKnownRepoSet@@UAEPAVSdaiAggregate_RA@@XZ 004984b0 f i sdai:sdai_repository.obj
 0001:000974d0       ?getValue@SdaiKnownRepoSet@@$0PPPPPPPM@A@AEDIPAVSdai_ADB@@@Z 004984d0 f i sdai:sdai_repository.obj
 0001:000974e0       ?getValue@SdaiKnownRepoSet@@EAEDIPAVSdai_ADB@@@Z 004984e0 f i sdai:sdai_repository.obj
 0001:00097510       ??_ESdaiActiveRepoItor@@$4PPPPPPPM@A@AEPAXI@Z 00498510 f i sdai:sdai_repository.obj
 0001:00097520       ??_ESdaiActiveRepoItor@@UAEPAXI@Z 00498520 f i sdai:sdai_repository.obj
 0001:00097520       ??_GSdaiActiveRepoItor@@UAEPAXI@Z 00498520 f i sdai:sdai_repository.obj
 0001:00097550       ?begining@SdaiActiveRepoItor@@$0PPPPPPPM@A@AEXXZ 00498550 f i sdai:sdai_repository.obj
 0001:00097560       ?begining@SdaiActiveRepoItor@@EAEXXZ 00498560 f i sdai:sdai_repository.obj
 0001:00097570       ?next@SdaiActiveRepoItor@@$0PPPPPPPM@A@AEDXZ 00498570 f i sdai:sdai_repository.obj
 0001:00097580       ?atstart@SdaiActiveRepoItor@@$0PPPPPPPM@A@AEDXZ 00498580 f i sdai:sdai_repository.obj
 0001:00097590       ?atstart@SdaiActiveRepoItor@@EAEDXZ 00498590 f i sdai:sdai_repository.obj
 0001:000975a0       ?atend@SdaiActiveRepoItor@@$0PPPPPPPM@A@AEDXZ 004985a0 f i sdai:sdai_repository.obj
 0001:000975b0       ?atend@SdaiActiveRepoItor@@EAEDXZ 004985b0 f i sdai:sdai_repository.obj
 0001:000975f0       ?is_traversing@SdaiActiveRepoItor@@$4PPPPPPPM@A@AEDXZ 004985f0 f i sdai:sdai_repository.obj
 0001:00097600       ?is_traversing@SdaiActiveRepoItor@@UAEDXZ 00498600 f i sdai:sdai_repository.obj
 0001:00097610       ?is_empty@SdaiActiveRepoItor@@$4PPPPPPPM@A@AEDXZ 00498610 f i sdai:sdai_repository.obj
 0001:00097620       ?is_empty@SdaiActiveRepoItor@@UAEDXZ 00498620 f i sdai:sdai_repository.obj
 0001:00097630       ?getCurrent@SdaiActiveRepoItor@@$4PPPPPPPM@A@AEPAUSdai_Id@@XZ 00498630 f i sdai:sdai_repository.obj
 0001:00097640       ?getCurrent@SdaiActiveRepoItor@@UAEPAUSdai_Id@@XZ 00498640 f i sdai:sdai_repository.obj
 0001:00097660       ??_ESdaiPathIterator@@$4PPPPPPPM@A@AEPAXI@Z 00498660 f i sdai:sdai_repository.obj
 0001:00097670       ??_ESdaiPathIterator@@UAEPAXI@Z 00498670 f i sdai:sdai_repository.obj
 0001:00097670       ??_GSdaiPathIterator@@UAEPAXI@Z 00498670 f i sdai:sdai_repository.obj
 0001:000976a0       ?begining@SdaiPathIterator@@$4PPPPPPPM@A@AEXXZ 004986a0 f i sdai:sdai_repository.obj
 0001:000976b0       ?begining@SdaiPathIterator@@UAEXXZ 004986b0 f i sdai:sdai_repository.obj
 0001:000976c0       ?next@SdaiPathIterator@@$4PPPPPPPM@A@AEDXZ 004986c0 f i sdai:sdai_repository.obj
 0001:000976d0       ?atstart@SdaiPathIterator@@$4PPPPPPPM@A@AEDXZ 004986d0 f i sdai:sdai_repository.obj
 0001:000976e0       ?atstart@SdaiPathIterator@@UAEDXZ 004986e0 f i sdai:sdai_repository.obj
 0001:000976f0       ?atend@SdaiPathIterator@@$4PPPPPPPM@A@AEDXZ 004986f0 f i sdai:sdai_repository.obj
 0001:00097700       ?is_traversing@SdaiPathIterator@@$4PPPPPPPM@A@AEDXZ 00498700 f i sdai:sdai_repository.obj
 0001:00097710       ?is_traversing@SdaiPathIterator@@UAEDXZ 00498710 f i sdai:sdai_repository.obj
 0001:00097720       ?is_empty@SdaiPathIterator@@$4PPPPPPPM@A@AEDXZ 00498720 f i sdai:sdai_repository.obj
 0001:00097730       ?is_empty@SdaiPathIterator@@UAEDXZ 00498730 f i sdai:sdai_repository.obj
 0001:00097750       ?getCurrent@SdaiPathIterator@@$4PPPPPPPM@A@AEPAUSdai_Id@@XZ 00498750 f i sdai:sdai_repository.obj
 0001:00097760       ?INIT_sdai_model_contents@@YADXZ 00498760 f   sdai:sdai_model.obj
 0001:000978e0       ?instances@sdai_model_contents@@QAEPAVsetOfentity_instance@@XZ 004988e0 f   sdai:sdai_model.obj
 0001:00097900       ?folders@sdai_model_contents@@QAEPAVsetOfentity_extent@@XZ 00498900 f   sdai:sdai_model.obj
 0001:00097920       ?populated_folders@sdai_model_contents@@QAEPAVsetOfentity_extent@@XZ 00498920 f   sdai:sdai_model.obj
 0001:00097950       ?INIT_sdai_model@@YADXZ    00498950 f   sdai:sdai_model.obj
 0001:00097b90       ??0sdai_model@@AAE@PAVsdai_repository@@PAD@Z 00498b90 f   sdai:sdai_model.obj
 0001:00097ce0       ?aggr_type@setOfentity_extent@@MAE?AW4AggregateType@@XZ 00498ce0 f i sdai:sdai_model.obj
 0001:00097cf0       ?size@SdaiModFolders@@UAEDIH@Z 00498cf0 f i sdai:sdai_model.obj
 0001:00097d10       ?aggr_type@SdaiModFolders@@UAE?AW4AggregateType@@XZ 00498d10 f i sdai:sdai_model.obj
 0001:00097d20       ?new_iterator@SdaiModFolders@@UAEPAVIterator@@XZ 00498d20 f i sdai:sdai_model.obj
 0001:00097d30       ?get_SdaiAggregate_RA@SdaiModFolders@@UAEPAVSdaiAggregate_RA@@XZ 00498d30 f i sdai:sdai_model.obj
 0001:00097d40       ?size@SdaiModPopFolders@@EAEDIH@Z 00498d40 f i sdai:sdai_model.obj
 0001:00097d60       ?entity@sdai_model_contents@@EAEPAVentity_definition@@XZ 00498d60 f i sdai:sdai_model.obj
 0001:00097d80       ?get_sdai_model_contents@sdai_model_contents@@EAEPAV1@XZ 00498d80 f i sdai:sdai_model.obj
 0001:00097d90       ?entity@sdai_model@@EAEPAVentity_definition@@XZ 00498d90 f i sdai:sdai_model.obj
 0001:00097db0       ?get_sdai_model@sdai_model@@EAEPAV1@XZ 00498db0 f i sdai:sdai_model.obj
 0001:00097dc0       ??_Esdai_model@@UAEPAXI@Z  00498dc0 f i sdai:sdai_model.obj
 0001:00097dc0       ??_Gsdai_model@@UAEPAXI@Z  00498dc0 f i sdai:sdai_model.obj
 0001:00097de0       ??_Esdai_model_contents@@UAEPAXI@Z 00498de0 f i sdai:sdai_model.obj
 0001:00097de0       ??_Gsdai_model_contents@@UAEPAXI@Z 00498de0 f i sdai:sdai_model.obj
 0001:00097e00       ??_ESdaiModFolders@@UAEPAXI@Z 00498e00 f i sdai:sdai_model.obj
 0001:00097e00       ??_GSdaiModFolders@@UAEPAXI@Z 00498e00 f i sdai:sdai_model.obj
 0001:00097e30       ??0setOfentity_extent@@QAE@XZ 00498e30 f i sdai:sdai_model.obj
 0001:00097e70       ??_GSdaiModPopFolders@@UAEPAXI@Z 00498e70 f i sdai:sdai_model.obj
 0001:00097e70       ??_ESdaiModPopFolders@@UAEPAXI@Z 00498e70 f i sdai:sdai_model.obj
 0001:00097ea0       ??_EsetOfentity_extent@@UAEPAXI@Z 00498ea0 f i sdai:sdai_model.obj
 0001:00097ea0       ??_GsetOfentity_extent@@UAEPAXI@Z 00498ea0 f i sdai:sdai_model.obj
 0001:00097ed0       ??0sdai_model@@QAE@PAVsdai_repository@@PAVRoseDesign@@@Z 00498ed0 f   sdai:sdai_model.obj
 0001:00098010       ??1sdai_model@@UAE@XZ      00499010 f   sdai:sdai_model.obj
 0001:000980c0       ?open@sdai_model@@QAEDPAVRoseDesign@@@Z 004990c0 f   sdai:sdai_model.obj
 0001:00098110       ?close@sdai_model@@QAEXXZ  00499110 f   sdai:sdai_model.obj
 0001:00098140       ?getFilename@sdai_model@@AAEXAAVRoseStringObject@@PAD@Z 00499140 f   sdai:sdai_model.obj
 0001:00098160       ?destroy@sdai_model@@QAEXXZ 00499160 f   sdai:sdai_model.obj
 0001:000981e0       ?rename@sdai_model@@QAEDPAD@Z 004991e0 f   sdai:sdai_model.obj
 0001:000982d0       ?save@sdai_model@@QAEXXZ   004992d0 f   sdai:sdai_model.obj
 0001:000982f0       ?undo@sdai_model@@QAEXXZ   004992f0 f   sdai:sdai_model.obj
 0001:00098370       ?isOpen@sdai_model@@QAEDXZ 00499370 f   sdai:sdai_model.obj
 0001:00098380       ?name@sdai_model@@QAEPADXZ 00499380 f   sdai:sdai_model.obj
 0001:000983b0       ?getExtent@sdai_model@@QAEPAVentity_extent@@PAVRoseDomain@@@Z 004993b0 f   sdai:sdai_model.obj
 0001:000984f0       ?aggr_type@setOfentity_instance@@EAE?AW4AggregateType@@XZ 004994f0 f i sdai:sdai_model.obj
 0001:00098500       ?size@SdaiEntityExtentSet@@UAEDIH@Z 00499500 f i sdai:sdai_model.obj
 0001:00098520       ?entity@entity_extent@@EAEPAVentity_definition@@XZ 00499520 f i sdai:sdai_model.obj
 0001:00098540       ?get_entity_extent@entity_extent@@EAEPAV1@XZ 00499540 f i sdai:sdai_model.obj
 0001:00098550       ??_Gentity_extent@@EAEPAXI@Z 00499550 f i sdai:sdai_model.obj
 0001:00098550       ??_Eentity_extent@@EAEPAXI@Z 00499550 f i sdai:sdai_model.obj
 0001:00098590       ??_ESdaiEntityExtentSet@@UAEPAXI@Z 00499590 f i sdai:sdai_model.obj
 0001:00098590       ??_GSdaiEntityExtentSet@@UAEPAXI@Z 00499590 f i sdai:sdai_model.obj
 0001:000985c0       ??_GsetOfentity_instance@@UAEPAXI@Z 004995c0 f i sdai:sdai_model.obj
 0001:000985c0       ??_EsetOfentity_instance@@UAEPAXI@Z 004995c0 f i sdai:sdai_model.obj
 0001:000985f0       ?getExtent@sdai_model@@QAEPAVentity_extent@@PAVentity_definition@@@Z 004995f0 f   sdai:sdai_model.obj
 0001:00098620       ?getExtentBN@sdai_model@@QAEPAVentity_extent@@PAD@Z 00499620 f   sdai:sdai_model.obj
 0001:00098650       ?getInstances@sdai_model@@QAEPAVentity_extent@@XZ 00499650 f   sdai:sdai_model.obj
 0001:00098700       ?contents@sdai_model@@QAEPAVsdai_model_contents@@XZ 00499700 f   sdai:sdai_model.obj
 0001:00098710       ?underlying_schema@sdai_model@@QAEPAVschema_definition@@XZ 00499710 f   sdai:sdai_model.obj
 0001:00098790       ?repository@sdai_model@@QAEPAVsdai_repository@@XZ 00499790 f   sdai:sdai_model.obj
 0001:000987a0       ?change_date@sdai_model@@QAEPADXZ 004997a0 f   sdai:sdai_model.obj
 0001:000987b0       ?mode@sdai_model@@QAEPADXZ 004997b0 f   sdai:sdai_model.obj
 0001:000987f0       ?associated_with@sdai_model@@QAEPAVsetOfschema_instance@@XZ 004997f0 f   sdai:sdai_model.obj
 0001:00098800       ?getEntity@sdai_model@@QAEPAVentity_definition@@PAD@Z 00499800 f   sdai:sdai_model.obj
 0001:00098860       ?getEntityInModel@sdai_model@@QAEPAVentity_definition@@PAD@Z 00499860 f   sdai:sdai_model.obj
 0001:000988a0       ?findModel@setOfsdai_model@@QAEPAVsdai_model@@PAD@Z 004998a0 f   sdai:sdai_model.obj
 0001:00098930       ?set@SdaiActiveModItor@@AAEPAVSdaiActiveModelSet@@XZ 00499930 f   sdai:sdai_model.obj
 0001:00098940       ?traversing@SdaiActiveModItor@@QAEPAVSdaiAggregate@@XZ 00499940 f   sdai:sdai_model.obj
 0001:00098960       ?atend@SdaiActiveModItor@@UAEDXZ 00499960 f   sdai:sdai_model.obj
 0001:00098980       ?getCurrentModel@SdaiActiveModItor@@QAEPAVsdai_model@@XZ 00499980 f   sdai:sdai_model.obj
 0001:00098a00       ?next@SdaiActiveModItor@@UAEDXZ 00499a00 f   sdai:sdai_model.obj
 0001:00098a60       ?new_iterator@SdaiActiveModelSet@@UAEPAVIterator@@XZ 00499a60 f   sdai:sdai_model.obj
 0001:00098af0       ?size@SdaiActiveModelSet@@UAEIXZ 00499af0 f   sdai:sdai_model.obj
 0001:00098b20       ?isSystemDesign@SdaiActiveModelSet@@QAEDPAVRoseDesign@@@Z 00499b20 f   sdai:sdai_model.obj
 0001:00098b50       ?aggr_type@setOfentity_extent@@OPPPPPPNE@AE?AW4AggregateType@@XZ 00499b50 f i sdai:sdai_model.obj
 0001:00098b60       ??_ESdaiActiveModItor@@$4PPPPPPPM@A@AEPAXI@Z 00499b60 f i sdai:sdai_model.obj
 0001:00098b70       ??_GSdaiActiveModItor@@UAEPAXI@Z 00499b70 f i sdai:sdai_model.obj
 0001:00098b70       ??_ESdaiActiveModItor@@UAEPAXI@Z 00499b70 f i sdai:sdai_model.obj
 0001:00098ba0       ?begining@SdaiActiveModItor@@$4PPPPPPPM@A@AEXXZ 00499ba0 f i sdai:sdai_model.obj
 0001:00098bb0       ?begining@SdaiActiveModItor@@UAEXXZ 00499bb0 f i sdai:sdai_model.obj
 0001:00098bc0       ?next@SdaiActiveModItor@@$4PPPPPPPM@A@AEDXZ 00499bc0 f i sdai:sdai_model.obj
 0001:00098bd0       ?atstart@SdaiActiveModItor@@$4PPPPPPPM@A@AEDXZ 00499bd0 f i sdai:sdai_model.obj
 0001:00098be0       ?atstart@SdaiActiveModItor@@UAEDXZ 00499be0 f i sdai:sdai_model.obj
 0001:00098bf0       ?atend@SdaiActiveModItor@@$4PPPPPPPM@A@AEDXZ 00499bf0 f i sdai:sdai_model.obj
 0001:00098c00       ?is_traversing@SdaiActiveModItor@@$4PPPPPPPM@A@AEDXZ 00499c00 f i sdai:sdai_model.obj
 0001:00098c10       ?is_traversing@SdaiActiveModItor@@UAEDXZ 00499c10 f i sdai:sdai_model.obj
 0001:00098c20       ?is_empty@SdaiActiveModItor@@$4PPPPPPPM@A@AEDXZ 00499c20 f i sdai:sdai_model.obj
 0001:00098c30       ?is_empty@SdaiActiveModItor@@UAEDXZ 00499c30 f i sdai:sdai_model.obj
 0001:00098c50       ?getCurrent@SdaiActiveModItor@@$4PPPPPPPM@A@AEPAUSdai_Id@@XZ 00499c50 f i sdai:sdai_model.obj
 0001:00098c60       ?getCurrent@SdaiActiveModItor@@UAEPAUSdai_Id@@XZ 00499c60 f i sdai:sdai_model.obj
 0001:00098c80       ?aggr_type@setOfentity_instance@@GPPPPPPNI@AE?AW4AggregateType@@XZ 00499c80 f i sdai:sdai_model.obj
 0001:00098c90       ?INIT_schema_instance@@YADXZ 00499c90 f   sdai:schema_instance.obj
 0001:00098f70       ?add@SdaiSchemaInstanceMods@@QAEDPAVsdai_model@@H@Z 00499f70 f   sdai:schema_instance.obj
 0001:00098fc0       ?remove@SdaiSchemaInstanceMods@@QAEDPAVsdai_model@@@Z 00499fc0 f   sdai:schema_instance.obj
 0001:00099020       ??0schema_instance@@IAE@PAVsdai_repository@@@Z 0049a020 f   sdai:schema_instance.obj
 0001:00099070       ?get_models@schema_instance@@UAEXPAVrose_vector@@@Z 0049a070 f i sdai:schema_instance.obj
 0001:00099080       ??_Eschema_instance@@UAEPAXI@Z 0049a080 f i sdai:schema_instance.obj
 0001:00099080       ??_Gschema_instance@@UAEPAXI@Z 0049a080 f i sdai:schema_instance.obj
 0001:000990a0       ??1schema_instance@@UAE@XZ 0049a0a0 f   sdai:schema_instance.obj
 0001:000990d0       ?name@schema_instance@@UAEPADXZ 0049a0d0 f   sdai:schema_instance.obj
 0001:000990e0       ?associated_models@schema_instance@@UAEPAVsetOfsdai_model@@XZ 0049a0e0 f   sdai:schema_instance.obj
 0001:000990f0       ?native_schema@schema_instance@@UAEPAVschema_definition@@XZ 0049a0f0 f   sdai:schema_instance.obj
 0001:00099100       ?repository@schema_instance@@UAEPAVsdai_repository@@XZ 0049a100 f   sdai:schema_instance.obj
 0001:00099110       ?change_date@schema_instance@@UAEPADXZ 0049a110 f   sdai:schema_instance.obj
 0001:00099120       ?validation_date@schema_instance@@UAEPADXZ 0049a120 f   sdai:schema_instance.obj
 0001:00099130       ?validation_result@schema_instance@@UAEDXZ 0049a130 f   sdai:schema_instance.obj
 0001:00099140       ?validation_level@schema_instance@@UAEJXZ 0049a140 f   sdai:schema_instance.obj
 0001:00099150       ?rename@application_schema_instance@@UAEDPAD@Z 0049a150 f   sdai:schema_instance.obj
 0001:000992c0       ?add@application_schema_instance@@UAE?AW4InternalError@@PAVsdai_model@@@Z 0049a2c0 f   sdai:schema_instance.obj
 0001:000992e0       ?associated_models@application_schema_instance@@UAEPAVsetOfsdai_model@@XZ 0049a2e0 f   sdai:schema_instance.obj
 0001:00099300       ?getfilename@application_schema_instance@@AAE?AVRoseStringObject@@XZ 0049a300 f   sdai:schema_instance.obj
 0001:00099380       ?flush@application_schema_instance@@AAEXXZ 0049a380 f   sdai:schema_instance.obj
 0001:00099550       ?getDesign@application_schema_instance@@AAEPAVRoseDesign@@XZ 0049a550 f   sdai:schema_instance.obj
 0001:000995d0       ?pull@application_schema_instance@@AAEDXZ 0049a5d0 f   sdai:schema_instance.obj
 0001:000997c0       ?destroy@application_schema_instance@@UAEXXZ 0049a7c0 f   sdai:schema_instance.obj
 0001:00099850       ?get_models@application_schema_instance@@UAEXPAVrose_vector@@@Z 0049a850 f   sdai:schema_instance.obj
 0001:00099890       ?name@SdaiDictionary@@EAEPADXZ 0049a890 f   sdai:schema_instance.obj
 0001:000998a0       ?native_schema@SdaiDictionary@@EAEPAVschema_definition@@XZ 0049a8a0 f   sdai:schema_instance.obj
 0001:000998b0       ?associated_models@SdaiDictionary@@EAEPAVsetOfsdai_model@@XZ 0049a8b0 f   sdai:schema_instance.obj
 0001:00099900       ?_address@sdai_instance@@UAEPAXXZ 0049a900 f   sdai:sdai_instance.obj
 0001:00099910       ?classType@sdai_instance@@UAEAAVRoseTypePtr@@XZ 0049a910 f   sdai:sdai_instance.obj
 0001:000999a0       ?sdai_instance_INIT_FCN@@YAXAAVRoseTypePtr@@@Z 0049a9a0 f   sdai:sdai_instance.obj
 0001:00099a20       ??0sdai_instance@@QAE@XZ   0049aa20 f   sdai:sdai_instance.obj
 0001:00099a40       ?entity@sdai_instance@@UAEPAVentity_definition@@XZ 0049aa40 f i sdai:sdai_instance.obj
 0001:00099a50       ??_Esdai_instance@@UAEPAXI@Z 0049aa50 f i sdai:sdai_instance.obj
 0001:00099a50       ??_Gsdai_instance@@UAEPAXI@Z 0049aa50 f i sdai:sdai_instance.obj
 0001:00099ab0       ?_address@aggregate_instance@@UAEPAXXZ 0049aab0 f   sdai:aggregate_instance.obj
 0001:00099ac0       ?classType@aggregate_instance@@UAEAAVRoseTypePtr@@XZ 0049aac0 f   sdai:aggregate_instance.obj
 0001:00099b50       ?aggregate_instance_INIT_FCN@@YAXAAVRoseTypePtr@@@Z 0049ab50 f   sdai:aggregate_instance.obj
 0001:00099bc0       ??0aggregate_instance@@QAE@XZ 0049abc0 f   sdai:aggregate_instance.obj
 0001:00099be0       ??_Eaggregate_instance@@UAEPAXI@Z 0049abe0 f i sdai:aggregate_instance.obj
 0001:00099be0       ??_Gaggregate_instance@@UAEPAXI@Z 0049abe0 f i sdai:aggregate_instance.obj
 0001:00099c00       ?INIT_implementation@@YADXZ 0049ac00 f   sdai:implementation.obj
 0001:00099e80       ?isMember@SdaiAggregate@@QAEDPAVSdai_ADB@@@Z 0049ae80 f   sdai:SdaiAggregate.obj
 0001:00099f10       ?new_iterator@SdaiAggregate_RA@@UAEPAVIterator@@XZ 0049af10 f   sdai:SdaiAggregate.obj
 0001:00099fd0       ?agg_size@Iterator_RA@@MAEIXZ 0049afd0 f i sdai:SdaiAggregate.obj
 0001:00099fe0       ?end@Iterator_RA@@UAEXXZ   0049afe0 f i sdai:SdaiAggregate.obj
 0001:00099ff0       ?getAggr@Iterator_Random@@EAEPAVSdaiAggregate_RA@@XZ 0049aff0 f i sdai:SdaiAggregate.obj
 0001:0009a000       ?isWritable@Iterator_Random@@UAEDXZ 0049b000 f i sdai:SdaiAggregate.obj
 0001:0009a010       ?test@SdaiAggregate_RA@@UAEDI@Z 0049b010 f   sdai:SdaiAggregate.obj
 0001:0009a080       ?createAggregate@SdaiRoseAggregate@@UAE?AW4InternalError@@PAVSdai_ADB@@@Z 0049b080 f   sdai:SdaiAggregate.obj
 0001:0009a0c0       ?createAggregate@SdaiRoseAggregate@@UAE?AW4InternalError@@IPAVSdai_ADB@@@Z 0049b0c0 f   sdai:SdaiAggregate.obj
 0001:0009a0f0       ?unset@SdaiRoseAggregate@@UAE?AW4InternalError@@I@Z 0049b0f0 f   sdai:SdaiAggregate.obj
 0001:0009a120       ?remove@SdaiRoseAggregate@@UAE?AW4InternalError@@I@Z 0049b120 f   sdai:SdaiAggregate.obj
 0001:0009a150       ?new_iterator@SdaiRoseAggregate@@UAEPAVIterator@@XZ 0049b150 f   sdai:SdaiAggregate.obj
 0001:0009a240       ?isWritable@Iterator_RW@@UAEDXZ 0049b240 f i sdai:SdaiAggregate.obj
 0001:0009a250       ?putValue@Iterator_RW@@UAE?AW4InternalError@@PAVSdai_ADB@@@Z 0049b250 f i sdai:SdaiAggregate.obj
 0001:0009a260       ?createAggregate@Iterator_RW@@UAE?AW4InternalError@@PAVSdai_ADB@@@Z 0049b260 f i sdai:SdaiAggregate.obj
 0001:0009a270       ?remove@Iterator_RW@@UAE?AW4InternalError@@XZ 0049b270 f i sdai:SdaiAggregate.obj
 0001:0009a280       ?unset@Iterator_RW@@UAE?AW4InternalError@@XZ 0049b280 f i sdai:SdaiAggregate.obj
 0001:0009a290       ?insertBefore@Iterator_RW@@UAE?AW4InternalError@@PAVSdai_ADB@@@Z 0049b290 f i sdai:SdaiAggregate.obj
 0001:0009a2a0       ?insertAfter@Iterator_RW@@UAE?AW4InternalError@@PAVSdai_ADB@@@Z 0049b2a0 f i sdai:SdaiAggregate.obj
 0001:0009a2b0       ?insertAggrBefore@Iterator_RW@@UAE?AW4InternalError@@PAVSdai_ADB@@@Z 0049b2b0 f i sdai:SdaiAggregate.obj
 0001:0009a2c0       ?insertAggrAfter@Iterator_RW@@UAE?AW4InternalError@@PAVSdai_ADB@@@Z 0049b2c0 f i sdai:SdaiAggregate.obj
 0001:0009a2d0       ?isArray@Iterator_RW@@UAEDXZ 0049b2d0 f i sdai:SdaiAggregate.obj
 0001:0009a2e0       ?getDataValue@SdaiAggregate_RA@@QAE?AW4InternalError@@IW4SdaiPrimitiveType@@PAX@Z 0049b2e0 f   sdai:SdaiAggregate.obj
 0001:0009a3c0       ?isWritable@SdaiRoseAggregate@@UAEDXZ 0049b3c0 f   sdai:SdaiAggregate.obj
 0001:0009a3f0       ?get@Iterator@@QAE?AW4InternalError@@W4SdaiPrimitiveType@@PAX@Z 0049b3f0 f   sdai:SdaiAggregate.obj
 0001:0009a480       ?getValue@Iterator_INSTANCE@@UAEDPAVSdai_ADB@@@Z 0049b480 f   sdai:SdaiAggregate.obj
 0001:0009a4a0       ?next@Iterator_RA@@UAEDXZ  0049b4a0 f   sdai:SdaiAggregate.obj
 0001:0009a4d0       ?previous@Iterator_RA@@UAEDXZ 0049b4d0 f   sdai:SdaiAggregate.obj
 0001:0009a500       ?test@Iterator@@UAEDXZ     0049b500 f   sdai:SdaiAggregate.obj
 0001:0009a570       ?getValue@Iterator_Random@@UAEDPAVSdai_ADB@@@Z 0049b570 f   sdai:SdaiAggregate.obj
 0001:0009a5d0       ?insertBefore@Iterator_Rose@@UAE?AW4InternalError@@PAVSdai_ADB@@@Z 0049b5d0 f   sdai:SdaiAggregate.obj
 0001:0009a630       ?insertAfter@Iterator_Rose@@UAE?AW4InternalError@@PAVSdai_ADB@@@Z 0049b630 f   sdai:SdaiAggregate.obj
 0001:0009a6d0       ?insertAggrBefore@Iterator_Rose@@UAE?AW4InternalError@@PAVSdai_ADB@@@Z 0049b6d0 f   sdai:SdaiAggregate.obj
 0001:0009a730       ?insertAggrAfter@Iterator_Rose@@UAE?AW4InternalError@@PAVSdai_ADB@@@Z 0049b730 f   sdai:SdaiAggregate.obj
 0001:0009a7a0       ?getValue@Iterator_Rose@@UAEDPAVSdai_ADB@@@Z 0049b7a0 f   sdai:SdaiAggregate.obj
 0001:0009a820       ?putValue@Iterator_Rose@@UAE?AW4InternalError@@PAVSdai_ADB@@@Z 0049b820 f   sdai:SdaiAggregate.obj
 0001:0009a890       ?createAggregate@Iterator_Rose@@UAE?AW4InternalError@@PAVSdai_ADB@@@Z 0049b890 f   sdai:SdaiAggregate.obj
 0001:0009a8f0       ?isWritable@Iterator_Rose@@UAEDXZ 0049b8f0 f   sdai:SdaiAggregate.obj
 0001:0009a920       ?unset@Iterator_Rose@@UAE?AW4InternalError@@XZ 0049b920 f   sdai:SdaiAggregate.obj
 0001:0009a960       ?remove@Iterator_Rose@@UAE?AW4InternalError@@XZ 0049b960 f   sdai:SdaiAggregate.obj
 0001:0009a9b0       ?add@SdaiAggregate_RW@@QAE?AW4InternalError@@PAVSdai_ADB@@D@Z 0049b9b0 f   sdai:SdaiAggregate.obj
 0001:0009aa30       ?insert@SdaiAggregate_RW@@UAE?AW4InternalError@@IPAVSdai_ADB@@@Z 0049ba30 f   sdai:SdaiAggregate.obj
 0001:0009aab0       ?aggr_type@SdaiRoseAggregate@@UAE?AW4AggregateType@@XZ 0049bab0 f   sdai:SdaiAggregate.obj
 0001:0009ab90       ?size@SdaiRoseAggregate@@UAEIXZ 0049bb90 f   sdai:SdaiAggregate.obj
 0001:0009aba0       ?getValue@SdaiRoseAggregate@@UAEDIPAVSdai_ADB@@@Z 0049bba0 f   sdai:SdaiAggregate.obj
 0001:0009abe0       ?putValue@SdaiRoseAggregate@@UAE?AW4InternalError@@IPAVSdai_ADB@@@Z 0049bbe0 f   sdai:SdaiAggregate.obj
 0001:0009ac40       ?resize@SdaiRoseAggregate@@UAEXI@Z 0049bc40 f   sdai:SdaiAggregate.obj
 0001:0009ac60       ?insertAt@SdaiRoseAggregate@@UAEII@Z 0049bc60 f   sdai:SdaiAggregate.obj
 0001:0009ac90       ??0SdaiAggregatePTR@@QAE@PAUSdai_Id_aggr@@@Z 0049bc90 f   sdai:SdaiAggregate.obj
 0001:0009ae70       ?insertBefore@Iterator_NPL@@UAE?AW4InternalError@@PAVSdai_ADB@@@Z 0049be70 f   sdai:SdaiAggregate.obj
 0001:0009aec0       ?remove@Iterator_NPL@@UAE?AW4InternalError@@XZ 0049bec0 f   sdai:SdaiAggregate.obj
 0001:0009af00       ?get@Sdai_NPL@@QAEPAUSdai_Id@@I@Z 0049bf00 f   sdai:SdaiAggregate.obj
 0001:0009af30       ?getValue@Sdai_NPL@@UAEDIPAVSdai_ADB@@@Z 0049bf30 f   sdai:SdaiAggregate.obj
 0001:0009af60       ?unset@Sdai_NPL@@UAE?AW4InternalError@@I@Z 0049bf60 f   sdai:SdaiAggregate.obj
 0001:0009afa0       ?remove@Sdai_NPL@@UAE?AW4InternalError@@I@Z 0049bfa0 f   sdai:SdaiAggregate.obj
 0001:0009afe0       ?put@Sdai_NPL@@QAE?AW4InternalError@@IPAUSdai_Id@@@Z 0049bfe0 f   sdai:SdaiAggregate.obj
 0001:0009b010       ?putValue@Sdai_NPL@@UAE?AW4InternalError@@IPAVSdai_ADB@@@Z 0049c010 f   sdai:SdaiAggregate.obj
 0001:0009b060       ?resize@Sdai_NPL@@UAEXI@Z  0049c060 f   sdai:SdaiAggregate.obj
 0001:0009b0b0       ?insertAt@Sdai_NPL@@UAEII@Z 0049c0b0 f   sdai:SdaiAggregate.obj
 0001:0009b110       ?addValue@Sdai_NPL@@QAEXPAUSdai_Id@@@Z 0049c110 f   sdai:SdaiAggregate.obj
 0001:0009b180       ?new_iterator@Sdai_NPL@@UAEPAVIterator@@XZ 0049c180 f   sdai:SdaiAggregate.obj
 0001:0009b270       ?addInstance@Sdai_NPL@@QAEXPAUSdai_Id@@@Z 0049c270 f   sdai:SdaiAggregate.obj
 0001:0009b2b0       ?addInstanceIfAbsent@Sdai_NPL@@QAEXPAUSdai_Id@@@Z 0049c2b0 f   sdai:SdaiAggregate.obj
 0001:0009b2f0       ??_ESdaiRoseAggregate@@$4PPPPPPPM@A@AEPAXI@Z 0049c2f0 f i sdai:SdaiAggregate.obj
 0001:0009b300       ??_GSdaiRoseAggregate@@UAEPAXI@Z 0049c300 f i sdai:SdaiAggregate.obj
 0001:0009b300       ??_ESdaiRoseAggregate@@UAEPAXI@Z 0049c300 f i sdai:SdaiAggregate.obj
 0001:0009b330       ?size@SdaiRoseAggregate@@$4PPPPPPPM@A@AEDIH@Z 0049c330 f i sdai:SdaiAggregate.obj
 0001:0009b340       ?size@SdaiRoseAggregate@@UAEDIH@Z 0049c340 f i sdai:SdaiAggregate.obj
 0001:0009b360       ?size@SdaiRoseAggregate@@$4PPPPPPPM@A@AEIXZ 0049c360 f i sdai:SdaiAggregate.obj
 0001:0009b370       ?aggr_type@SdaiRoseAggregate@@$4PPPPPPPM@A@AE?AW4AggregateType@@XZ 0049c370 f i sdai:SdaiAggregate.obj
 0001:0009b380       ?new_iterator@SdaiRoseAggregate@@$4PPPPPPPM@A@AEPAVIterator@@XZ 0049c380 f i sdai:SdaiAggregate.obj
 0001:0009b390       ?get_SdaiAggregate_RA@SdaiAggregate_RA@@OPPPPPPNA@AEPAV1@XZ 0049c390 f i sdai:SdaiAggregate.obj
 0001:0009b3a0       ?get_SdaiAggregate_RW@SdaiAggregate_RW@@$4PPPPPPPM@PPPPPPMA@AEPAV1@XZ 0049c3a0 f i sdai:SdaiAggregate.obj
 0001:0009b3b0       ?get_SdaiRoseAggregate@SdaiRoseAggregate@@$4PPPPPPPM@A@AEPAV1@XZ 0049c3b0 f i sdai:SdaiAggregate.obj
 0001:0009b3c0       ?get_SdaiRoseAggregate@SdaiRoseAggregate@@UAEPAV1@XZ 0049c3c0 f i sdai:SdaiAggregate.obj
 0001:0009b3d0       ?isTemp@SdaiRoseAggregate@@$4PPPPPPPM@A@AEDXZ 0049c3d0 f i sdai:SdaiAggregate.obj
 0001:0009b3e0       ?isTemp@SdaiRoseAggregate@@UAEDXZ 0049c3e0 f i sdai:SdaiAggregate.obj
 0001:0009b3f0       ?getHandle@SdaiRoseAggregate@@$4PPPPPPPM@A@AEPAUSdai_Id_aggr@@XZ 0049c3f0 f i sdai:SdaiAggregate.obj
 0001:0009b400       ?getHandle@SdaiRoseAggregate@@UAEPAUSdai_Id_aggr@@XZ 0049c400 f i sdai:SdaiAggregate.obj
 0001:0009b420       ?getValue@SdaiRoseAggregate@@$4PPPPPPPM@A@AEDIPAVSdai_ADB@@@Z 0049c420 f i sdai:SdaiAggregate.obj
 0001:0009b430       ?putValue@SdaiRoseAggregate@@$4PPPPPPPM@A@AE?AW4InternalError@@IPAVSdai_ADB@@@Z 0049c430 f i sdai:SdaiAggregate.obj
 0001:0009b440       ?resize@SdaiRoseAggregate@@$4PPPPPPPM@A@AEXI@Z 0049c440 f i sdai:SdaiAggregate.obj
 0001:0009b450       ?insertAt@SdaiRoseAggregate@@$4PPPPPPPM@A@AEII@Z 0049c450 f i sdai:SdaiAggregate.obj
 0001:0009b460       ?createAggregate@SdaiRoseAggregate@@$4PPPPPPPM@A@AE?AW4InternalError@@PAVSdai_ADB@@@Z 0049c460 f i sdai:SdaiAggregate.obj
 0001:0009b470       ?createAggregate@SdaiRoseAggregate@@$4PPPPPPPM@A@AE?AW4InternalError@@IPAVSdai_ADB@@@Z 0049c470 f i sdai:SdaiAggregate.obj
 0001:0009b480       ?remove@SdaiRoseAggregate@@$4PPPPPPPM@A@AE?AW4InternalError@@I@Z 0049c480 f i sdai:SdaiAggregate.obj
 0001:0009b490       ?unset@SdaiRoseAggregate@@$4PPPPPPPM@A@AE?AW4InternalError@@I@Z 0049c490 f i sdai:SdaiAggregate.obj
 0001:0009b4a0       ?isWritable@SdaiRoseAggregate@@$4PPPPPPPM@A@AEDXZ 0049c4a0 f i sdai:SdaiAggregate.obj
 0001:0009b4b0       ??_EIterator_NPL@@$4PPPPPPPM@A@AEPAXI@Z 0049c4b0 f i sdai:SdaiAggregate.obj
 0001:0009b4c0       ??_EIterator_NPL@@UAEPAXI@Z 0049c4c0 f i sdai:SdaiAggregate.obj
 0001:0009b4c0       ??_GIterator_NPL@@UAEPAXI@Z 0049c4c0 f i sdai:SdaiAggregate.obj
 0001:0009b4f0       ?begining@Iterator_RA@@$4PPPPPPPM@PPPPPPOI@AEXXZ 0049c4f0 f i sdai:SdaiAggregate.obj
 0001:0009b500       ?begining@Iterator_RA@@UAEXXZ 0049c500 f i sdai:SdaiAggregate.obj
 0001:0009b510       ?next@Iterator_RA@@$4PPPPPPPM@PPPPPPOI@AEDXZ 0049c510 f i sdai:SdaiAggregate.obj
 0001:0009b520       ?getValue@Iterator_NPL@@$4PPPPPPPM@A@AEDPAVSdai_ADB@@@Z 0049c520 f i sdai:SdaiAggregate.obj
 0001:0009b530       ?getValue@Iterator_NPL@@UAEDPAVSdai_ADB@@@Z 0049c530 f i sdai:SdaiAggregate.obj
 0001:0009b560       ?atstart@Iterator_RA@@$2PPPPPPPM@PPPPPPOI@AEDXZ 0049c560 f i sdai:SdaiAggregate.obj
 0001:0009b570       ?atstart@Iterator_RA@@MAEDXZ 0049c570 f i sdai:SdaiAggregate.obj
 0001:0009b580       ?atend@Iterator_RA@@$2PPPPPPPM@PPPPPPOI@AEDXZ 0049c580 f i sdai:SdaiAggregate.obj
 0001:0009b590       ?atend@Iterator_RA@@MAEDXZ 0049c590 f i sdai:SdaiAggregate.obj
 0001:0009b5b0       ?get_Iterator_RW@Iterator_RW@@$4PPPPPPPM@PPPPPPNM@AEPAV1@XZ 0049c5b0 f i sdai:SdaiAggregate.obj
 0001:0009b5c0       ?get_Iterator_RW@Iterator_RW@@UAEPAV1@XZ 0049c5c0 f i sdai:SdaiAggregate.obj
 0001:0009b5d0       ?get_Iterator_RA@Iterator_RA@@$4PPPPPPPM@PPPPPPOI@AEPAV1@XZ 0049c5d0 f i sdai:SdaiAggregate.obj
 0001:0009b5e0       ?get_Iterator_RA@Iterator_RA@@UAEPAV1@XZ 0049c5e0 f i sdai:SdaiAggregate.obj
 0001:0009b5f0       ?is_traversing@Iterator_NPL@@$4PPPPPPPM@A@AEDXZ 0049c5f0 f i sdai:SdaiAggregate.obj
 0001:0009b600       ?is_traversing@Iterator_NPL@@UAEDXZ 0049c600 f i sdai:SdaiAggregate.obj
 0001:0009b610       ?is_empty@Iterator_NPL@@$4PPPPPPPM@A@AEDXZ 0049c610 f i sdai:SdaiAggregate.obj
 0001:0009b620       ?is_empty@Iterator_NPL@@UAEDXZ 0049c620 f i sdai:SdaiAggregate.obj
 0001:0009b640       ?agg_size@Iterator_NPL@@$4PPPPPPPM@A@AEIXZ 0049c640 f i sdai:SdaiAggregate.obj
 0001:0009b650       ?agg_size@Iterator_NPL@@UAEIXZ 0049c650 f i sdai:SdaiAggregate.obj
 0001:0009b670       ?isWritable@Iterator_NPL@@$4PPPPPPPM@A@AEDXZ 0049c670 f i sdai:SdaiAggregate.obj
 0001:0009b680       ?isWritable@Iterator_NPL@@UAEDXZ 0049c680 f i sdai:SdaiAggregate.obj
 0001:0009b690       ?putValue@Iterator_NPL@@$4PPPPPPPM@A@AE?AW4InternalError@@PAVSdai_ADB@@@Z 0049c690 f i sdai:SdaiAggregate.obj
 0001:0009b6a0       ?putValue@Iterator_NPL@@UAE?AW4InternalError@@PAVSdai_ADB@@@Z 0049c6a0 f i sdai:SdaiAggregate.obj
 0001:0009b6d0       ?createAggregate@Iterator_NPL@@$4PPPPPPPM@A@AE?AW4InternalError@@PAVSdai_ADB@@@Z 0049c6d0 f i sdai:SdaiAggregate.obj
 0001:0009b6e0       ?createAggregate@Iterator_NPL@@UAE?AW4InternalError@@PAVSdai_ADB@@@Z 0049c6e0 f i sdai:SdaiAggregate.obj
 0001:0009b6f0       ?remove@Iterator_NPL@@$4PPPPPPPM@A@AE?AW4InternalError@@XZ 0049c6f0 f i sdai:SdaiAggregate.obj
 0001:0009b700       ?unset@Iterator_NPL@@$4PPPPPPPM@A@AE?AW4InternalError@@XZ 0049c700 f i sdai:SdaiAggregate.obj
 0001:0009b710       ?unset@Iterator_NPL@@UAE?AW4InternalError@@XZ 0049c710 f i sdai:SdaiAggregate.obj
 0001:0009b730       ?insertBefore@Iterator_NPL@@$4PPPPPPPM@A@AE?AW4InternalError@@PAVSdai_ADB@@@Z 0049c730 f i sdai:SdaiAggregate.obj
 0001:0009b740       ?insertAfter@Iterator_NPL@@$4PPPPPPPM@A@AE?AW4InternalError@@PAVSdai_ADB@@@Z 0049c740 f i sdai:SdaiAggregate.obj
 0001:0009b750       ?insertAfter@Iterator_NPL@@UAE?AW4InternalError@@PAVSdai_ADB@@@Z 0049c750 f i sdai:SdaiAggregate.obj
 0001:0009b780       ?isArray@Iterator_NPL@@$4PPPPPPPM@A@AEDXZ 0049c780 f i sdai:SdaiAggregate.obj
 0001:0009b790       ?isArray@Iterator_NPL@@UAEDXZ 0049c790 f i sdai:SdaiAggregate.obj
 0001:0009b7a0       ??_EIterator_Random@@$4PPPPPPPM@A@AEPAXI@Z 0049c7a0 f i sdai:SdaiAggregate.obj
 0001:0009b7b0       ??_GIterator_Random@@UAEPAXI@Z 0049c7b0 f i sdai:SdaiAggregate.obj
 0001:0009b7b0       ??_EIterator_Random@@UAEPAXI@Z 0049c7b0 f i sdai:SdaiAggregate.obj
 0001:0009b7e0       ?getValue@Iterator_Random@@$4PPPPPPPM@A@AEDPAVSdai_ADB@@@Z 0049c7e0 f i sdai:SdaiAggregate.obj
 0001:0009b7f0       ?is_traversing@Iterator_Random@@$4PPPPPPPM@A@AEDXZ 0049c7f0 f i sdai:SdaiAggregate.obj
 0001:0009b800       ?is_traversing@Iterator_Random@@UAEDXZ 0049c800 f i sdai:SdaiAggregate.obj
 0001:0009b810       ?is_empty@Iterator_Random@@$4PPPPPPPM@A@AEDXZ 0049c810 f i sdai:SdaiAggregate.obj
 0001:0009b820       ?is_empty@Iterator_Random@@UAEDXZ 0049c820 f i sdai:SdaiAggregate.obj
 0001:0009b840       ?agg_size@Iterator_Random@@$4PPPPPPPM@A@AEIXZ 0049c840 f i sdai:SdaiAggregate.obj
 0001:0009b850       ?agg_size@Iterator_Random@@UAEIXZ 0049c850 f i sdai:SdaiAggregate.obj
 0001:0009b870       ??_EIterator_Rose@@$4PPPPPPPM@A@AEPAXI@Z 0049c870 f i sdai:SdaiAggregate.obj
 0001:0009b880       ??_GIterator_Rose@@UAEPAXI@Z 0049c880 f i sdai:SdaiAggregate.obj
 0001:0009b880       ??_EIterator_Rose@@UAEPAXI@Z 0049c880 f i sdai:SdaiAggregate.obj
 0001:0009b8b0       ?getValue@Iterator_Rose@@$4PPPPPPPM@A@AEDPAVSdai_ADB@@@Z 0049c8b0 f i sdai:SdaiAggregate.obj
 0001:0009b8c0       ?get_Iterator_RW@Iterator_Rose@@$4PPPPPPPM@A@AEPAVIterator_RW@@XZ 0049c8c0 f i sdai:SdaiAggregate.obj
 0001:0009b8d0       ?get_Iterator_RW@Iterator_Rose@@UAEPAVIterator_RW@@XZ 0049c8d0 f i sdai:SdaiAggregate.obj
 0001:0009b8f0       ?is_traversing@Iterator_Rose@@$4PPPPPPPM@A@AEDXZ 0049c8f0 f i sdai:SdaiAggregate.obj
 0001:0009b900       ?is_traversing@Iterator_Rose@@UAEDXZ 0049c900 f i sdai:SdaiAggregate.obj
 0001:0009b910       ?is_empty@Iterator_Rose@@$4PPPPPPPM@A@AEDXZ 0049c910 f i sdai:SdaiAggregate.obj
 0001:0009b920       ?is_empty@Iterator_Rose@@UAEDXZ 0049c920 f i sdai:SdaiAggregate.obj
 0001:0009b940       ?agg_size@Iterator_Rose@@$4PPPPPPPM@A@AEIXZ 0049c940 f i sdai:SdaiAggregate.obj
 0001:0009b950       ?agg_size@Iterator_Rose@@UAEIXZ 0049c950 f i sdai:SdaiAggregate.obj
 0001:0009b960       ?isWritable@Iterator_Rose@@$4PPPPPPPM@A@AEDXZ 0049c960 f i sdai:SdaiAggregate.obj
 0001:0009b970       ?putValue@Iterator_Rose@@$4PPPPPPPM@A@AE?AW4InternalError@@PAVSdai_ADB@@@Z 0049c970 f i sdai:SdaiAggregate.obj
 0001:0009b980       ?createAggregate@Iterator_Rose@@$4PPPPPPPM@A@AE?AW4InternalError@@PAVSdai_ADB@@@Z 0049c980 f i sdai:SdaiAggregate.obj
 0001:0009b990       ?remove@Iterator_Rose@@$4PPPPPPPM@A@AE?AW4InternalError@@XZ 0049c990 f i sdai:SdaiAggregate.obj
 0001:0009b9a0       ?unset@Iterator_Rose@@$4PPPPPPPM@A@AE?AW4InternalError@@XZ 0049c9a0 f i sdai:SdaiAggregate.obj
 0001:0009b9b0       ?insertBefore@Iterator_Rose@@$4PPPPPPPM@A@AE?AW4InternalError@@PAVSdai_ADB@@@Z 0049c9b0 f i sdai:SdaiAggregate.obj
 0001:0009b9c0       ?insertAfter@Iterator_Rose@@$4PPPPPPPM@A@AE?AW4InternalError@@PAVSdai_ADB@@@Z 0049c9c0 f i sdai:SdaiAggregate.obj
 0001:0009b9d0       ?insertAggrBefore@Iterator_Rose@@$4PPPPPPPM@A@AE?AW4InternalError@@PAVSdai_ADB@@@Z 0049c9d0 f i sdai:SdaiAggregate.obj
 0001:0009b9e0       ?insertAggrAfter@Iterator_Rose@@$4PPPPPPPM@A@AE?AW4InternalError@@PAVSdai_ADB@@@Z 0049c9e0 f i sdai:SdaiAggregate.obj
 0001:0009b9f0       ?isArray@Iterator_Rose@@$4PPPPPPPM@A@AEDXZ 0049c9f0 f i sdai:SdaiAggregate.obj
 0001:0009ba00       ?isArray@Iterator_Rose@@UAEDXZ 0049ca00 f i sdai:SdaiAggregate.obj
 0001:0009ba20       ??_EIterator_RW@@$4PPPPPPPM@A@AEPAXI@Z 0049ca20 f i sdai:SdaiAggregate.obj
 0001:0009ba30       ??_EIterator_RW@@UAEPAXI@Z 0049ca30 f i sdai:SdaiAggregate.obj
 0001:0009ba30       ??_GIterator_RW@@UAEPAXI@Z 0049ca30 f i sdai:SdaiAggregate.obj
 0001:0009ba60       ?begining@Iterator_RA@@$4PPPPPPPM@PPPPPPOM@AEXXZ 0049ca60 f i sdai:SdaiAggregate.obj
 0001:0009ba70       ?next@Iterator_RA@@$4PPPPPPPM@PPPPPPOM@AEDXZ 0049ca70 f i sdai:SdaiAggregate.obj
 0001:0009ba80       ?atstart@Iterator_RA@@$2PPPPPPPM@PPPPPPOM@AEDXZ 0049ca80 f i sdai:SdaiAggregate.obj
 0001:0009ba90       ?atend@Iterator_RA@@$2PPPPPPPM@PPPPPPOM@AEDXZ 0049ca90 f i sdai:SdaiAggregate.obj
 0001:0009baa0       ?get_Iterator_RW@Iterator_RW@@$4PPPPPPPM@A@AEPAV1@XZ 0049caa0 f i sdai:SdaiAggregate.obj
 0001:0009bab0       ?get_Iterator_RA@Iterator_RA@@$4PPPPPPPM@PPPPPPOM@AEPAV1@XZ 0049cab0 f i sdai:SdaiAggregate.obj
 0001:0009bac0       ??_EIterator_RA@@$4PPPPPPPM@A@AEPAXI@Z 0049cac0 f i sdai:SdaiAggregate.obj
 0001:0009bad0       ??_GIterator_RA@@UAEPAXI@Z 0049cad0 f i sdai:SdaiAggregate.obj
 0001:0009bad0       ??_EIterator_RA@@UAEPAXI@Z 0049cad0 f i sdai:SdaiAggregate.obj
 0001:0009bb00       ?begining@Iterator_RA@@$4PPPPPPPM@A@AEXXZ 0049cb00 f i sdai:SdaiAggregate.obj
 0001:0009bb10       ?next@Iterator_RA@@$4PPPPPPPM@A@AEDXZ 0049cb10 f i sdai:SdaiAggregate.obj
 0001:0009bb20       ?atstart@Iterator_RA@@$2PPPPPPPM@A@AEDXZ 0049cb20 f i sdai:SdaiAggregate.obj
 0001:0009bb30       ?atend@Iterator_RA@@$2PPPPPPPM@A@AEDXZ 0049cb30 f i sdai:SdaiAggregate.obj
 0001:0009bb40       ?get_Iterator_RA@Iterator_RA@@$4PPPPPPPM@A@AEPAV1@XZ 0049cb40 f i sdai:SdaiAggregate.obj
 0001:0009bb50       ?INIT_sdai_transaction@@YADXZ 0049cb50 f   sdai:sdai_transaction.obj
 0001:0009bc00       ?mode@sdai_transaction@@QAEPADXZ 0049cc00 f   sdai:sdai_transaction.obj
 0001:0009bc20       ?owning_session@sdai_transaction@@QAEPAVsdai_session@@XZ 0049cc20 f   sdai:sdai_transaction.obj
 0001:0009bc30       ?isOpen@setOfsdai_transaction@@AAEDXZ 0049cc30 f   sdai:sdai_transaction.obj
 0001:0009bc50       ??0SdaiADB_data@@IAE@XZ    0049cc50 f   sdai:SdaiADB.obj
 0001:0009bc70       ?isEqual@SdaiADB_data@@EAEDPAV1@@Z 0049cc70 f i sdai:SdaiADB.obj
 0001:0009bc80       ?type@SdaiADB_data@@UAE?AW4SdaiPrimitiveType@@XZ 0049cc80 f i sdai:SdaiADB.obj
 0001:0009bc90       ?get_AGGR@SdaiADB_data@@UAEDPAPAUSdai_Id_aggr@@@Z 0049cc90 f i sdai:SdaiADB.obj
 0001:0009bca0       ?get_BINARY@SdaiADB_data@@UAEDPAPAE@Z 0049cca0 f i sdai:SdaiADB.obj
 0001:0009bcb0       ?get_BOOLEAN@SdaiADB_data@@UAEDPAH@Z 0049ccb0 f i sdai:SdaiADB.obj
 0001:0009bcc0       ?get_ENUM@SdaiADB_data@@UAEDPAPAD@Z 0049ccc0 f i sdai:SdaiADB.obj
 0001:0009bcd0       ?get_INSTANCE@SdaiADB_data@@UAEDPAPAUSdai_Id@@@Z 0049ccd0 f i sdai:SdaiADB.obj
 0001:0009bce0       ?get_INTEGER@SdaiADB_data@@UAEDPAJ@Z 0049cce0 f i sdai:SdaiADB.obj
 0001:0009bcf0       ?get_LOGICAL@SdaiADB_data@@UAEDPAH@Z 0049ccf0 f i sdai:SdaiADB.obj
 0001:0009bd00       ?get_REAL@SdaiADB_data@@UAEDPAN@Z 0049cd00 f i sdai:SdaiADB.obj
 0001:0009bd10       ?get_STRING@SdaiADB_data@@UAEDPAPAD@Z 0049cd10 f i sdai:SdaiADB.obj
 0001:0009bd20       ?attach@SdaiADB_data@@AAEXXZ 0049cd20 f   sdai:SdaiADB.obj
 0001:0009bd30       ?detach@SdaiADB_data@@AAEXXZ 0049cd30 f   sdai:SdaiADB.obj
 0001:0009bd50       ?get_BOOLEAN@SdaiADB_LOGICAL@@EAEDPAH@Z 0049cd50 f   sdai:SdaiADB.obj
 0001:0009bd70       ?isEqual@SdaiADB_AGGR@@EAEDPAVSdaiADB_data@@@Z 0049cd70 f   sdai:SdaiADB.obj
 0001:0009bd90       ?isEqual@SdaiADB_ENUM@@EAEDPAVSdaiADB_data@@@Z 0049cd90 f   sdai:SdaiADB.obj
 0001:0009bdf0       ?isEqual@SdaiADB_INSTANCE@@EAEDPAVSdaiADB_data@@@Z 0049cdf0 f   sdai:SdaiADB.obj
 0001:0009be10       ?isEqual@SdaiADB_STRING@@EAEDPAVSdaiADB_data@@@Z 0049ce10 f   sdai:SdaiADB.obj
 0001:0009be70       ?isEqual@SdaiADB_BINARY@@EAEDPAVSdaiADB_data@@@Z 0049ce70 f   sdai:SdaiADB.obj
 0001:0009bed0       ?isEqual@SdaiADB_INTEGER@@EAEDPAVSdaiADB_data@@@Z 0049ced0 f   sdai:SdaiADB.obj
 0001:0009bef0       ?isEqual@SdaiADB_REAL@@EAEDPAVSdaiADB_data@@@Z 0049cef0 f   sdai:SdaiADB.obj
 0001:0009bf10       ?isEqual@SdaiADB_BOOLEAN@@EAEDPAVSdaiADB_data@@@Z 0049cf10 f   sdai:SdaiADB.obj
 0001:0009bf30       ?isEqual@SdaiADB_LOGICAL@@EAEDPAVSdaiADB_data@@@Z 0049cf30 f   sdai:SdaiADB.obj
 0001:0009bf50       ?type@Sdai_ADB@@QAE?AW4SdaiPrimitiveType@@XZ 0049cf50 f   sdai:SdaiADB.obj
 0001:0009bf70       ?getValue@Sdai_ADB@@QAE?AW4InternalError@@W4SdaiPrimitiveType@@PAX@Z 0049cf70 f   sdai:SdaiADB.obj
 0001:0009c1d0       ?getRoseAggregate@Sdai_ADB@@QAEPAVRoseAggregate@@XZ 0049d1d0 f   sdai:SdaiADB.obj
 0001:0009c200       ?isSet@Sdai_ADB@@QAEDXZ    0049d200 f   sdai:SdaiADB.obj
 0001:0009c230       ?clearData@Sdai_ADB@@QAEXXZ 0049d230 f   sdai:SdaiADB.obj
 0001:0009c250       ?putValue@Sdai_ADB@@QAA?AW4InternalError@@W4SdaiPrimitiveType@@ZZ 0049d250 f   sdai:SdaiADB.obj
 0001:0009c270       ?vputValue@Sdai_ADB@@QAE?AW4InternalError@@W4SdaiPrimitiveType@@PAPAD@Z 0049d270 f   sdai:SdaiADB.obj
 0001:0009c5d0       ?type@SdaiADB_AGGR@@EAE?AW4SdaiPrimitiveType@@XZ 0049d5d0 f i sdai:SdaiADB.obj
 0001:0009c5e0       ?get_AGGR@SdaiADB_AGGR@@EAEDPAPAUSdai_Id_aggr@@@Z 0049d5e0 f i sdai:SdaiADB.obj
 0001:0009c5f0       ?type@SdaiADB_ENUM@@EAE?AW4SdaiPrimitiveType@@XZ 0049d5f0 f i sdai:SdaiADB.obj
 0001:0009c600       ?get_ENUM@SdaiADB_ENUM@@EAEDPAPAD@Z 0049d600 f i sdai:SdaiADB.obj
 0001:0009c610       ?type@SdaiADB_INSTANCE@@EAE?AW4SdaiPrimitiveType@@XZ 0049d610 f i sdai:SdaiADB.obj
 0001:0009c620       ?get_INSTANCE@SdaiADB_INSTANCE@@EAEDPAPAUSdai_Id@@@Z 0049d620 f i sdai:SdaiADB.obj
 0001:0009c630       ?type@SdaiADB_STRING@@EAE?AW4SdaiPrimitiveType@@XZ 0049d630 f i sdai:SdaiADB.obj
 0001:0009c640       ?get_STRING@SdaiADB_STRING@@EAEDPAPAD@Z 0049d640 f i sdai:SdaiADB.obj
 0001:0009c650       ?type@SdaiADB_REAL@@EAE?AW4SdaiPrimitiveType@@XZ 0049d650 f i sdai:SdaiADB.obj
 0001:0009c660       ?get_REAL@SdaiADB_REAL@@EAEDPAN@Z 0049d660 f i sdai:SdaiADB.obj
 0001:0009c680       ?type@SdaiADB_BINARY@@EAE?AW4SdaiPrimitiveType@@XZ 0049d680 f i sdai:SdaiADB.obj
 0001:0009c690       ?get_BINARY@SdaiADB_BINARY@@EAEDPAPAE@Z 0049d690 f i sdai:SdaiADB.obj
 0001:0009c6a0       ?type@SdaiADB_INTEGER@@EAE?AW4SdaiPrimitiveType@@XZ 0049d6a0 f i sdai:SdaiADB.obj
 0001:0009c6b0       ?get_INTEGER@SdaiADB_INTEGER@@EAEDPAJ@Z 0049d6b0 f i sdai:SdaiADB.obj
 0001:0009c6c0       ?get_REAL@SdaiADB_INTEGER@@EAEDPAN@Z 0049d6c0 f i sdai:SdaiADB.obj
 0001:0009c6d0       ?type@SdaiADB_BOOLEAN@@EAE?AW4SdaiPrimitiveType@@XZ 0049d6d0 f i sdai:SdaiADB.obj
 0001:0009c6e0       ?get_BOOLEAN@SdaiADB_BOOLEAN@@EAEDPAH@Z 0049d6e0 f i sdai:SdaiADB.obj
 0001:0009c6f0       ?get_LOGICAL@SdaiADB_BOOLEAN@@EAEDPAH@Z 0049d6f0 f i sdai:SdaiADB.obj
 0001:0009c700       ?type@SdaiADB_LOGICAL@@EAE?AW4SdaiPrimitiveType@@XZ 0049d700 f i sdai:SdaiADB.obj
 0001:0009c710       ?get_LOGICAL@SdaiADB_LOGICAL@@EAEDPAH@Z 0049d710 f i sdai:SdaiADB.obj
 0001:0009c720       ?putValueFromAttr@Sdai_ADB@@AAE?AW4InternalError@@PAVRoseObject@@PAVRoseAttribute@@I@Z 0049d720 f   sdai:SdaiADB.obj
 0001:0009cad0       ?putUnion@Sdai_ADB@@QAE?AW4InternalError@@PAVRoseUnion@@@Z 0049dad0 f   sdai:SdaiADB.obj
 0001:0009cc10       ?putValue@Sdai_ADB@@QAE?AW4InternalError@@PAVRoseObject@@PAVRoseAttribute@@I@Z 0049dc10 f   sdai:SdaiADB.obj
 0001:0009ccd0       ?putAttr@Sdai_ADB@@QAE?AW4InternalError@@PAVRoseObject@@PAVRoseAttribute@@I@Z 0049dcd0 f   sdai:SdaiADB.obj
 0001:0009d820       ?createAggr@Sdai_ADB@@QAE?AW4InternalError@@PAVRoseObject@@PAVRoseAttribute@@I@Z 0049e820 f   sdai:SdaiADB.obj
 0001:0009d8e0       ?isEqual@Sdai_ADB@@QAEDPAV1@@Z 0049e8e0 f   sdai:SdaiADB.obj
 0001:0009d940       ?display@Sdai_ADB@@QAEXXZ  0049e940 f   sdai:SdaiADB.obj
 0001:0009dc70       ?_address@schema_definition@@UAEPAXXZ 0049ec70 f   sdai:schema_definition.obj
 0001:0009dc80       ?classType@schema_definition@@UAEAAVRoseTypePtr@@XZ 0049ec80 f   sdai:schema_definition.obj
 0001:0009dd10       ?schema_definition_INIT_FCN@@YAXAAVRoseTypePtr@@@Z 0049ed10 f   sdai:schema_definition.obj
 0001:0009ddb0       ??0schema_definition@@QAE@XZ 0049edb0 f   sdai:schema_definition.obj
 0001:0009de00       ??_Gschema_definition@@UAEPAXI@Z 0049ee00 f i sdai:schema_definition.obj
 0001:0009de00       ??_Eschema_definition@@UAEPAXI@Z 0049ee00 f i sdai:schema_definition.obj
 0001:0009de30       ??0schema_definition@@QAE@PAD0@Z 0049ee30 f   sdai:schema_definition.obj
 0001:0009de90       ?sdai_have_interp@@YADXZ   0049ee90 f   sdai:exp_stubs.obj
 0001:0009dea0       ?evalDerived@@YADPAVRoseStructure@@PAVderived_attribute@@PAVSdai_ADB@@@Z 0049eea0 f   sdai:exp_stubs.obj
 0001:0009deb0       ?evalWhereRule@@YAHPAVRoseStructure@@PAVwhere_rule@@@Z 0049eeb0 f   sdai:exp_stubs.obj
 0001:0009dec0       ?evalGlobalRule@@YAHPAVListOfRoseDesign@@PAVglobal_rule@@@Z 0049eec0 f   sdai:exp_stubs.obj
 0001:0009ded0       ?evalBound@@YAHPAVRoseStructure@@PAVexp_expression@@@Z 0049eed0 f   sdai:exp_stubs.obj
 0001:0009dee0       ?initialize@schema_definition@@QAEDXZ 0049eee0 f   sdai:schema_definitionX.obj
 0001:0009dfb0       ?online@schema_definition@@QAEDXZ 0049efb0 f   sdai:schema_definitionX.obj
 0001:0009dff0       ?resolve@schema_definition@@QAEXXZ 0049eff0 f   sdai:schema_definitionX.obj
 0001:0009e140       ?resolve_for_rose@schema_definition@@QAEXXZ 0049f140 f   sdai:schema_definitionX.obj
 0001:0009e340       ?manager_type@SdaiDomainManager@@UAEIXZ 0049f340 f i sdai:schema_definitionX.obj
 0001:0009e350       ??_ESdaiDomainManager@@UAEPAXI@Z 0049f350 f i sdai:schema_definitionX.obj
 0001:0009e350       ??_GSdaiDomainManager@@UAEPAXI@Z 0049f350 f i sdai:schema_definitionX.obj
 0001:0009e370       ?find_global_rule@schema_definition@@QAEPAVglobal_rule@@PAD@Z 0049f370 f   sdai:schema_definitionX.obj
 0001:0009e450       ?find_uniqueness_rule@schema_definition@@QAEPAVuniqueness_rule@@PAD0@Z 0049f450 f   sdai:schema_definitionX.obj
 0001:0009e540       ?validate@uniqueness_rule@@QAEHPAVListOfRoseDesign@@PAVSdai_NPL@@@Z 0049f540 f   sdai:uniqueness_ruleX.obj
 0001:0009e8c0       ?_address@where_rule@@UAEPAXXZ 0049f8c0 f   sdai:where_rule.obj
 0001:0009e8d0       ?classType@where_rule@@UAEAAVRoseTypePtr@@XZ 0049f8d0 f   sdai:where_rule.obj
 0001:0009e960       ?where_rule_INIT_FCN@@YAXAAVRoseTypePtr@@@Z 0049f960 f   sdai:where_rule.obj
 0001:0009ea00       ??0where_rule@@QAE@XZ      0049fa00 f   sdai:where_rule.obj
 0001:0009ea20       ??_Ewhere_rule@@UAEPAXI@Z  0049fa20 f i sdai:where_rule.obj
 0001:0009ea20       ??_Gwhere_rule@@UAEPAXI@Z  0049fa20 f i sdai:where_rule.obj
 0001:0009ea40       ??0where_rule@@QAE@PADPAVtype_or_rule@@@Z 0049fa40 f   sdai:where_rule.obj
 0001:0009ea80       ?class_type@SdaiDomainManager@@SAIXZ 0049fa80 f   sdai:dict_util.obj
 0001:0009eab0       ?find_entity_definition@@YAPAVentity_definition@@PAVRoseDomain@@@Z 0049fab0 f   sdai:dict_util.obj
 0001:0009ead0       ?class_type@SdaiDefTypeManager@@SAIXZ 0049fad0 f   sdai:dict_util.obj
 0001:0009eb00       ?find_defined_type@@YAPAVdefined_type@@PAVRoseObject@@@Z 0049fb00 f   sdai:dict_util.obj
 0001:0009eb20       ?populate_named_type@@YAXPAVnamed_type@@PADPAVschema_definition@@@Z 0049fb20 f   sdai:dict_util.obj
 0001:0009ebb0       ?find_attribute@@YAPAVattribute@@PAVRoseAttribute@@@Z 0049fbb0 f   sdai:dict_util.obj
 0001:0009ec10       ?findImmediateAttribute@entity_definition@@QAEPAVattribute@@PAD@Z 0049fc10 f   sdai:entity_definitionX.obj
 0001:0009ec60       ?findAttribute@entity_definition@@QAEPAVattribute@@PAD@Z 0049fc60 f   sdai:entity_definitionX.obj
 0001:0009ed90       ?findSuperclass@entity_definition@@QAEPAV1@PAD@Z 0049fd90 f   sdai:entity_definitionX.obj
 0001:0009ee20       ?newInstance@entity_definition@@QAEPAVRoseObject@@PAVsdai_model@@@Z 0049fe20 f   sdai:entity_definitionX.obj
 0001:0009ef40       ?rose_domain@entity_definition@@QAEPAVRoseDomain@@XZ 0049ff40 f   sdai:entity_definitionX.obj
 0001:0009efa0       ?isSubtypeOf@entity_definition@@QAEDPAV1@D@Z 0049ffa0 f   sdai:entity_definitionX.obj
 0001:0009f110       ?online@entity_definition@@QAEDXZ 004a0110 f   sdai:entity_definitionX.obj
 0001:0009f180       ?INIT_entity_extent@@YADXZ 004a0180 f   sdai:entity_extent.obj
 0001:0009f2d0       ??0SdaiEntityExtentIterator@@AAE@PAVSdaiEntityExtentSet@@@Z 004a02d0 f   sdai:entity_extent.obj
 0001:0009f3a0       ?traversing@SdaiEntityExtentIterator@@UAEPAVSdaiAggregate@@XZ 004a03a0 f i sdai:entity_extent.obj
 0001:0009f3c0       ?is_empty@SdaiEntityExtentIterator@@UAEDXZ 004a03c0 f   sdai:entity_extent.obj
 0001:0009f430       ?new_iterator@SdaiEntityExtentSet@@UAEPAVIterator@@XZ 004a0430 f   sdai:entity_extent.obj
 0001:0009f470       ?size@SdaiEntityExtentSet@@UAEIXZ 004a0470 f   sdai:entity_extent.obj
 0001:0009f4d0       ?isEmpty@SdaiEntityExtentSet@@UAEDXZ 004a04d0 f   sdai:entity_extent.obj
 0001:0009f520       ?definition@entity_extent@@QAEPAVentity_definition@@XZ 004a0520 f   sdai:entity_extent.obj
 0001:0009f530       ?instances@entity_extent@@QAEPAVsetOfentity_instance@@XZ 004a0530 f   sdai:entity_extent.obj
 0001:0009f550       ?owned_by@entity_extent@@QAEPAVsdai_model_contents@@XZ 004a0550 f   sdai:entity_extent.obj
 0001:0009f560       ?size@SdaiModFolders@@UAEIXZ 004a0560 f   sdai:entity_extent.obj
 0001:0009f590       ?get@SdaiModFolders@@QAEPAVentity_extent@@I@Z 004a0590 f   sdai:entity_extent.obj
 0001:0009f5d0       ?getValue@SdaiModFolders@@UAEDIPAVSdai_ADB@@@Z 004a05d0 f   sdai:entity_extent.obj
 0001:0009f600       ?next@SdaiPopFoldersIterator@@UAEDXZ 004a0600 f   sdai:entity_extent.obj
 0001:0009f660       ?is_empty@SdaiPopFoldersIterator@@UAEDXZ 004a0660 f   sdai:entity_extent.obj
 0001:0009f690       ?isEmpty@SdaiModPopFolders@@EAEDXZ 004a0690 f   sdai:entity_extent.obj
 0001:0009f6d0       ?begining@SdaiPopFoldersIterator@@UAEXXZ 004a06d0 f i sdai:entity_extent.obj
 0001:0009f6e0       ?getValue@SdaiPopFoldersIterator@@UAEDPAVSdai_ADB@@@Z 004a06e0 f i sdai:entity_extent.obj
 0001:0009f710       ?atstart@SdaiPopFoldersIterator@@UAEDXZ 004a0710 f i sdai:entity_extent.obj
 0001:0009f720       ?atend@SdaiPopFoldersIterator@@UAEDXZ 004a0720 f i sdai:entity_extent.obj
 0001:0009f750       ?is_traversing@SdaiPopFoldersIterator@@UAEDXZ 004a0750 f i sdai:entity_extent.obj
 0001:0009f760       ??_GSdaiPopFoldersIterator@@UAEPAXI@Z 004a0760 f i sdai:entity_extent.obj
 0001:0009f760       ??_ESdaiPopFoldersIterator@@UAEPAXI@Z 004a0760 f i sdai:entity_extent.obj
 0001:0009f780       ?size@SdaiModPopFolders@@EAEIXZ 004a0780 f   sdai:entity_extent.obj
 0001:0009f7d0       ?new_iterator@SdaiModPopFolders@@EAEPAVIterator@@XZ 004a07d0 f   sdai:entity_extent.obj
 0001:0009f800       ??_ESdaiEntityExtentIterator@@$4PPPPPPPM@A@AEPAXI@Z 004a0800 f i sdai:entity_extent.obj
 0001:0009f810       ??_GSdaiEntityExtentIterator@@UAEPAXI@Z 004a0810 f i sdai:entity_extent.obj
 0001:0009f810       ??_ESdaiEntityExtentIterator@@UAEPAXI@Z 004a0810 f i sdai:entity_extent.obj
 0001:0009f840       ?begining@SdaiEntityExtentIterator@@$4PPPPPPPM@A@AEXXZ 004a0840 f i sdai:entity_extent.obj
 0001:0009f850       ?begining@SdaiEntityExtentIterator@@UAEXXZ 004a0850 f i sdai:entity_extent.obj
 0001:0009f860       ?next@SdaiEntityExtentIterator@@$4PPPPPPPM@A@AEDXZ 004a0860 f i sdai:entity_extent.obj
 0001:0009f870       ?next@SdaiEntityExtentIterator@@UAEDXZ 004a0870 f i sdai:entity_extent.obj
 0001:0009f890       ?atstart@SdaiEntityExtentIterator@@$4PPPPPPPM@A@AEDXZ 004a0890 f i sdai:entity_extent.obj
 0001:0009f8a0       ?atstart@SdaiEntityExtentIterator@@UAEDXZ 004a08a0 f i sdai:entity_extent.obj
 0001:0009f8c0       ?atend@SdaiEntityExtentIterator@@$4PPPPPPPM@A@AEDXZ 004a08c0 f i sdai:entity_extent.obj
 0001:0009f8d0       ?atend@SdaiEntityExtentIterator@@UAEDXZ 004a08d0 f i sdai:entity_extent.obj
 0001:0009f8f0       ?is_traversing@SdaiEntityExtentIterator@@$4PPPPPPPM@A@AEDXZ 004a08f0 f i sdai:entity_extent.obj
 0001:0009f900       ?is_traversing@SdaiEntityExtentIterator@@UAEDXZ 004a0900 f i sdai:entity_extent.obj
 0001:0009f910       ?is_empty@SdaiEntityExtentIterator@@$4PPPPPPPM@A@AEDXZ 004a0910 f i sdai:entity_extent.obj
 0001:0009f920       ?getCurrent@SdaiEntityExtentIterator@@$4PPPPPPPM@A@AEPAUSdai_Id@@XZ 004a0920 f i sdai:entity_extent.obj
 0001:0009f930       ?getCurrent@SdaiEntityExtentIterator@@UAEPAUSdai_Id@@XZ 004a0930 f i sdai:entity_extent.obj
 0001:0009f940       ?getValue@attribute@@QAE?AW4InternalError@@PAUSdai_Id@@PAVSdai_ADB@@@Z 004a0940 f   sdai:attributeX.obj
 0001:0009f980       ?rose_att@attribute@@QAEPAVRoseAttribute@@XZ 004a0980 f   sdai:attributeX.obj
 0001:0009fa30       ?_address@attribute@@UAEPAXXZ 004a0a30 f   sdai:attribute.obj
 0001:0009fa40       ?classType@attribute@@UAEAAVRoseTypePtr@@XZ 004a0a40 f   sdai:attribute.obj
 0001:0009fad0       ?attribute_INIT_FCN@@YAXAAVRoseTypePtr@@@Z 004a0ad0 f   sdai:attribute.obj
 0001:0009fb70       ??0attribute@@QAE@XZ       004a0b70 f   sdai:attribute.obj
 0001:0009fba0       ?createAccessor@attribute@@EAEXXZ 004a0ba0 f i sdai:attribute.obj
 0001:0009fbb0       ??_Eattribute@@UAEPAXI@Z   004a0bb0 f i sdai:attribute.obj
 0001:0009fbb0       ??_Gattribute@@UAEPAXI@Z   004a0bb0 f i sdai:attribute.obj
 0001:0009fbd0       ??0attribute@@QAE@PADPAVentity_definition@@@Z 004a0bd0 f   sdai:attribute.obj
 0001:0009fc50       ?_address@explicit_attribute@@UAEPAXXZ 004a0c50 f   sdai:explicit_attribute.obj
 0001:0009fc60       ?classType@explicit_attribute@@UAEAAVRoseTypePtr@@XZ 004a0c60 f   sdai:explicit_attribute.obj
 0001:0009fcf0       ?explicit_attribute_INIT_FCN@@YAXAAVRoseTypePtr@@@Z 004a0cf0 f   sdai:explicit_attribute.obj
 0001:0009fdb0       ??0explicit_attribute@@QAE@XZ 004a0db0 f   sdai:explicit_attribute.obj
 0001:0009fdd0       ??_Eexplicit_attribute@@UAEPAXI@Z 004a0dd0 f i sdai:explicit_attribute.obj
 0001:0009fdd0       ??_Gexplicit_attribute@@UAEPAXI@Z 004a0dd0 f i sdai:explicit_attribute.obj
 0001:0009fdf0       ??0explicit_attribute@@QAE@PADPAVentity_definition@@PAVbase_type@@PAV0@D@Z 004a0df0 f   sdai:explicit_attribute.obj
 0001:0009fea0       ?_address@entity_definition@@UAEPAXXZ 004a0ea0 f   sdai:entity_definition.obj
 0001:0009feb0       ?classType@entity_definition@@UAEAAVRoseTypePtr@@XZ 004a0eb0 f   sdai:entity_definition.obj
 0001:0009ff40       ?entity_definition_INIT_FCN@@YAXAAVRoseTypePtr@@@Z 004a0f40 f   sdai:entity_definition.obj
 0001:000a0010       ?supertypes@entity_definition@@QAEPAVListOfentity_definition@@XZ 004a1010 f   sdai:entity_definition.obj
 0001:000a00b0       ??0entity_definition@@QAE@XZ 004a10b0 f   sdai:entity_definition.obj
 0001:000a00f0       ??_Gentity_definition@@UAEPAXI@Z 004a10f0 f i sdai:entity_definition.obj
 0001:000a00f0       ??_Eentity_definition@@UAEPAXI@Z 004a10f0 f i sdai:entity_definition.obj
 0001:000a0120       ??0entity_definition@@QAE@PADPAVListOfwhere_rule@@PAVschema_definition@@PAVListOfentity_definition@@DDD@Z 004a1120 f   sdai:entity_definition.obj
 0001:000a01f0       ?_address@defined_type@@UAEPAXXZ 004a11f0 f   sdai:defined_type.obj
 0001:000a0200       ?classType@defined_type@@UAEAAVRoseTypePtr@@XZ 004a1200 f   sdai:defined_type.obj
 0001:000a0290       ?defined_type_INIT_FCN@@YAXAAVRoseTypePtr@@@Z 004a1290 f   sdai:defined_type.obj
 0001:000a0330       ??0defined_type@@QAE@XZ    004a1330 f   sdai:defined_type.obj
 0001:000a0350       ??_Gdefined_type@@UAEPAXI@Z 004a1350 f i sdai:defined_type.obj
 0001:000a0350       ??_Edefined_type@@UAEPAXI@Z 004a1350 f i sdai:defined_type.obj
 0001:000a0370       ??0defined_type@@QAE@PADPAVListOfwhere_rule@@PAVschema_definition@@PAVunderlying_type@@@Z 004a1370 f   sdai:defined_type.obj
 0001:000a03f0       ??_GSetOfnamed_type@@UAEPAXI@Z 004a13f0 f i sdai:SetOfnamed_type.obj
 0001:000a03f0       ??_ESetOfnamed_type@@UAEPAXI@Z 004a13f0 f i sdai:SetOfnamed_type.obj
 0001:000a0430       ?_address@SetOfnamed_type@@UAEPAXXZ 004a1430 f   sdai:SetOfnamed_type.obj
 0001:000a0440       ?classType@SetOfnamed_type@@UAEAAVRoseTypePtr@@XZ 004a1440 f   sdai:SetOfnamed_type.obj
 0001:000a04f0       ?SetOfnamed_type_INIT_FCN@@YAXAAVRoseTypePtr@@@Z 004a14f0 f   sdai:SetOfnamed_type.obj
 0001:000a05b0       ?_data@SetOfnamed_type@@QAEPAPAVnamed_type@@XZ 004a15b0 f   sdai:SetOfnamed_type.obj
 0001:000a05c0       ??ASetOfnamed_type@@QAEPAVnamed_type@@I@Z 004a15c0 f   sdai:SetOfnamed_type.obj
 0001:000a05f0       ?get@SetOfnamed_type@@QAEPAVnamed_type@@I@Z 004a15f0 f   sdai:SetOfnamed_type.obj
 0001:000a0620       ?first@SetOfnamed_type@@QAEPAVnamed_type@@XZ 004a1620 f   sdai:SetOfnamed_type.obj
 0001:000a0640       ?last@SetOfnamed_type@@QAEPAVnamed_type@@XZ 004a1640 f   sdai:SetOfnamed_type.obj
 0001:000a0670       ?contains@SetOfnamed_type@@QAEDPAVnamed_type@@@Z 004a1670 f   sdai:SetOfnamed_type.obj
 0001:000a0690       ?_element@SetOfnamed_type@@QAEPAVnamed_type@@I@Z 004a1690 f   sdai:SetOfnamed_type.obj
 0001:000a06e0       ?slotType@SetOfnamed_type@@UAEAAVRoseTypePtr@@PAVRoseAttribute@@I@Z 004a16e0 f   sdai:SetOfnamed_type.obj
 0001:000a0730       ?_address@select_type@@UAEPAXXZ 004a1730 f   sdai:select_type.obj
 0001:000a0740       ?classType@select_type@@UAEAAVRoseTypePtr@@XZ 004a1740 f   sdai:select_type.obj
 0001:000a07d0       ?select_type_INIT_FCN@@YAXAAVRoseTypePtr@@@Z 004a17d0 f   sdai:select_type.obj
 0001:000a0850       ?selections@select_type@@QAEPAVSetOfnamed_type@@XZ 004a1850 f   sdai:select_type.obj
 0001:000a08f0       ??0select_type@@QAE@XZ     004a18f0 f   sdai:select_type.obj
 0001:000a0910       ??_Gselect_type@@UAEPAXI@Z 004a1910 f i sdai:select_type.obj
 0001:000a0910       ??_Eselect_type@@UAEPAXI@Z 004a1910 f i sdai:select_type.obj
 0001:000a0930       ??0select_type@@QAE@PAVSetOfnamed_type@@@Z 004a1930 f   sdai:select_type.obj
 0001:000a09b0       ?_address@ListOfentity_definition@@UAEPAXXZ 004a19b0 f   sdai:ListOfentity_definition.obj
 0001:000a09c0       ?classType@ListOfentity_definition@@UAEAAVRoseTypePtr@@XZ 004a19c0 f   sdai:ListOfentity_definition.obj
 0001:000a0a70       ?ListOfentity_definition_INIT_FCN@@YAXAAVRoseTypePtr@@@Z 004a1a70 f   sdai:ListOfentity_definition.obj
 0001:000a0b30       ?_data@ListOfentity_definition@@QAEPAPAVentity_definition@@XZ 004a1b30 f   sdai:ListOfentity_definition.obj
 0001:000a0b40       ??AListOfentity_definition@@QAEPAVentity_definition@@I@Z 004a1b40 f   sdai:ListOfentity_definition.obj
 0001:000a0b70       ?get@ListOfentity_definition@@QAEPAVentity_definition@@I@Z 004a1b70 f   sdai:ListOfentity_definition.obj
 0001:000a0ba0       ?first@ListOfentity_definition@@QAEPAVentity_definition@@XZ 004a1ba0 f   sdai:ListOfentity_definition.obj
 0001:000a0bc0       ?last@ListOfentity_definition@@QAEPAVentity_definition@@XZ 004a1bc0 f   sdai:ListOfentity_definition.obj
 0001:000a0bf0       ?contains@ListOfentity_definition@@QAEDPAVentity_definition@@@Z 004a1bf0 f   sdai:ListOfentity_definition.obj
 0001:000a0c10       ?_element@ListOfentity_definition@@QAEPAVentity_definition@@I@Z 004a1c10 f   sdai:ListOfentity_definition.obj
 0001:000a0c60       ?slotType@ListOfentity_definition@@UAEAAVRoseTypePtr@@PAVRoseAttribute@@I@Z 004a1c60 f   sdai:ListOfentity_definition.obj
 0001:000a0c70       ?getValue@SdaiExplicitAttributeAccessor@@UAEDPAUSdai_Id@@PAVSdai_ADB@@@Z 004a1c70 f   sdai:explicit_attributeX.obj
 0001:000a0cb0       ?createAccessor@explicit_attribute@@UAEXXZ 004a1cb0 f   sdai:explicit_attributeX.obj
 0001:000a0cd0       ?createAggr@explicit_attribute@@QAE?AW4InternalError@@AAPAUSdai_Id_aggr@@PAVRoseStructure@@PAVSdai_ADB@@@Z 004a1cd0 f   sdai:explicit_attributeX.obj
 0001:000a0d20       ?unset@explicit_attribute@@QAEDPAVRoseStructure@@@Z 004a1d20 f   sdai:explicit_attributeX.obj
 0001:000a0d40       ?putAttr@explicit_attribute@@QAE?AW4InternalError@@PAVRoseStructure@@PAVSdai_ADB@@@Z 004a1d40 f   sdai:explicit_attributeX.obj
 0001:000a0db0       ?_address@ListOfwhere_rule@@UAEPAXXZ 004a1db0 f   sdai:ListOfwhere_rule.obj
 0001:000a0dc0       ?classType@ListOfwhere_rule@@UAEAAVRoseTypePtr@@XZ 004a1dc0 f   sdai:ListOfwhere_rule.obj
 0001:000a0e70       ?ListOfwhere_rule_INIT_FCN@@YAXAAVRoseTypePtr@@@Z 004a1e70 f   sdai:ListOfwhere_rule.obj
 0001:000a0f30       ?_data@ListOfwhere_rule@@QAEPAPAVwhere_rule@@XZ 004a1f30 f   sdai:ListOfwhere_rule.obj
 0001:000a0f40       ??AListOfwhere_rule@@QAEPAVwhere_rule@@I@Z 004a1f40 f   sdai:ListOfwhere_rule.obj
 0001:000a0f70       ?get@ListOfwhere_rule@@QAEPAVwhere_rule@@I@Z 004a1f70 f   sdai:ListOfwhere_rule.obj
 0001:000a0fa0       ?first@ListOfwhere_rule@@QAEPAVwhere_rule@@XZ 004a1fa0 f   sdai:ListOfwhere_rule.obj
 0001:000a0fc0       ?last@ListOfwhere_rule@@QAEPAVwhere_rule@@XZ 004a1fc0 f   sdai:ListOfwhere_rule.obj
 0001:000a0ff0       ?contains@ListOfwhere_rule@@QAEDPAVwhere_rule@@@Z 004a1ff0 f   sdai:ListOfwhere_rule.obj
 0001:000a1010       ?_element@ListOfwhere_rule@@QAEPAVwhere_rule@@I@Z 004a2010 f   sdai:ListOfwhere_rule.obj
 0001:000a1060       ?slotType@ListOfwhere_rule@@UAEAAVRoseTypePtr@@PAVRoseAttribute@@I@Z 004a2060 f   sdai:ListOfwhere_rule.obj
 0001:000a10b0       ?_address@named_type@@UAEPAXXZ 004a20b0 f   sdai:named_type.obj
 0001:000a10c0       ?classType@named_type@@UAEAAVRoseTypePtr@@XZ 004a20c0 f   sdai:named_type.obj
 0001:000a1150       ?named_type_INIT_FCN@@YAXAAVRoseTypePtr@@@Z 004a2150 f   sdai:named_type.obj
 0001:000a1200       ?where_rules@named_type@@QAEPAVListOfwhere_rule@@XZ 004a2200 f   sdai:named_type.obj
 0001:000a12a0       ??0named_type@@QAE@XZ      004a22a0 f   sdai:named_type.obj
 0001:000a12c0       ??_Enamed_type@@UAEPAXI@Z  004a22c0 f i sdai:named_type.obj
 0001:000a12c0       ??_Gnamed_type@@UAEPAXI@Z  004a22c0 f i sdai:named_type.obj
 0001:000a12e0       ??0named_type@@QAE@PADPAVListOfwhere_rule@@PAVschema_definition@@@Z 004a22e0 f   sdai:named_type.obj
 0001:000a1330       ?populate_named_type@@YAXPAVnamed_type@@PAVRoseDomain@@PAVschema_definition@@@Z 004a2330 f   sdai:rose2sdai.obj
 0001:000a13d0       ?populate_attribute@@YAXPAVattribute@@PAVRoseAttribute@@PAVentity_definition@@@Z 004a23d0 f   sdai:rose2sdai.obj
 0001:000a1490       ?create_entity_definition@@YAXPAVRoseDomain@@PAVschema_definition@@@Z 004a2490 f   sdai:rose2sdai.obj
 0001:000a15f0       ?create_defined_type@@YAXPAVRoseDomain@@PAVunderlying_type@@PAVschema_definition@@@Z 004a25f0 f   sdai:rose2sdai.obj
 0001:000a1680       ?manager_type@SdaiDefTypeManager@@UAEIXZ 004a2680 f i sdai:rose2sdai.obj
 0001:000a1690       ??_ESdaiDefTypeManager@@UAEPAXI@Z 004a2690 f i sdai:rose2sdai.obj
 0001:000a1690       ??_GSdaiDefTypeManager@@UAEPAXI@Z 004a2690 f i sdai:rose2sdai.obj
 0001:000a16b0       ?create_select_type@@YAXPAVRoseDomain@@PAVschema_definition@@@Z 004a26b0 f   sdai:rose2sdai.obj
 0001:000a1780       ?create_enumeration_type@@YAXPAVRoseDomain@@PAVschema_definition@@@Z 004a2780 f   sdai:rose2sdai.obj
 0001:000a1940       ?create_aggregation_type@@YAPAVaggregation_type@@PAVRoseDomain@@PAVschema_definition@@@Z 004a2940 f   sdai:rose2sdai.obj
 0001:000a1ac0       ?create_constructed_type@@YAPAVconstructed_type@@PAVRoseDomain@@@Z 004a2ac0 f   sdai:rose2sdai.obj
 0001:000a1b50       ?create_simple_type@@YAPAVsimple_type@@PAVRoseDomain@@PAVRoseDesign@@@Z 004a2b50 f   sdai:rose2sdai.obj
 0001:000a1ca0       ?create_underlying_type@@YAPAVunderlying_type@@PAVRoseDomain@@PAVschema_definition@@@Z 004a2ca0 f   sdai:rose2sdai.obj
 0001:000a1e10       ?get_defined_type@@YAPAVdefined_type@@PAVRoseAttribute@@PAVschema_definition@@@Z 004a2e10 f   sdai:rose2sdai.obj
 0001:000a1ee0       ?get_named_type@@YAPAVnamed_type@@PAVRoseAttribute@@PAVschema_definition@@PAVRoseDomain@@@Z 004a2ee0 f   sdai:rose2sdai.obj
 0001:000a1f60       ?create_base_type@@YAPAVbase_type@@PAVRoseAttribute@@PAVRoseDomain@@PAVschema_definition@@@Z 004a2f60 f   sdai:rose2sdai.obj
 0001:000a2090       ?entity_sort_fn@@YAHPBX0@Z 004a3090 f   sdai:rose2sdai.obj
 0001:000a2120       ?create_supertypes@@YAPAVListOfentity_definition@@PAVRoseDomain@@PAVRoseDesign@@@Z 004a3120 f   sdai:rose2sdai.obj
 0001:000a21c0       ?populate_entity_definition@@YAXPAVRoseDomain@@PAVschema_definition@@@Z 004a31c0 f   sdai:rose2sdai.obj
 0001:000a2440       ?populate_select_type@@YAXPAVRoseDomain@@PAVschema_definition@@@Z 004a3440 f   sdai:rose2sdai.obj
 0001:000a2570       ?create_schema_definition@@YAPAVschema_definition@@PAVRoseDesign@@@Z 004a3570 f   sdai:rose2sdai.obj
 0001:000a2720       ?rose2sdai@@YAPAVschema_definition@@PAVRoseDesign@@D0@Z 004a3720 f   sdai:rose2sdai.obj
 0001:000a2980       ?createAccessor@inverse_attribute@@UAEXXZ 004a3980 f   sdai:inverse_attributeX.obj
 0001:000a29a0       ?getValue@SdaiInverseAttributeAccessor@@UAEDPAUSdai_Id@@PAVSdai_ADB@@@Z 004a39a0 f i sdai:inverse_attributeX.obj
 0001:000a29c0       ?computeValue@inverse_attribute@@QAEDPAVRoseStructure@@PAVSdai_NPL@@@Z 004a39c0 f   sdai:inverse_attributeX.obj
 0001:000a2b20       ?computeValue@inverse_attribute@@QAEDPAUSdai_Id@@PAVSdai_ADB@@@Z 004a3b20 f   sdai:inverse_attributeX.obj
 0001:000a2cb0       ?_address@inverse_attribute@@UAEPAXXZ 004a3cb0 f   sdai:inverse_attribute.obj
 0001:000a2cc0       ?classType@inverse_attribute@@UAEAAVRoseTypePtr@@XZ 004a3cc0 f   sdai:inverse_attribute.obj
 0001:000a2d50       ?inverse_attribute_INIT_FCN@@YAXAAVRoseTypePtr@@@Z 004a3d50 f   sdai:inverse_attribute.obj
 0001:000a2e50       ??0inverse_attribute@@QAE@XZ 004a3e50 f   sdai:inverse_attribute.obj
 0001:000a2e80       ??_Einverse_attribute@@UAEPAXI@Z 004a3e80 f i sdai:inverse_attribute.obj
 0001:000a2e80       ??_Ginverse_attribute@@UAEPAXI@Z 004a3e80 f i sdai:inverse_attribute.obj
 0001:000a2ea0       ??0inverse_attribute@@QAE@PADPAVentity_definition@@1PAV0@PAVexplicit_attribute@@PAVbound@@4D@Z 004a3ea0 f   sdai:inverse_attribute.obj
 0001:000a2f70       ?_address@array_type@@UAEPAXXZ 004a3f70 f   sdai:array_type.obj
 0001:000a2f80       ?classType@array_type@@UAEAAVRoseTypePtr@@XZ 004a3f80 f   sdai:array_type.obj
 0001:000a3010       ?array_type_INIT_FCN@@YAXAAVRoseTypePtr@@@Z 004a4010 f   sdai:array_type.obj
 0001:000a30e0       ??0array_type@@QAE@XZ      004a40e0 f   sdai:array_type.obj
 0001:000a3100       ??_Earray_type@@UAEPAXI@Z  004a4100 f i sdai:array_type.obj
 0001:000a3100       ??_Garray_type@@UAEPAXI@Z  004a4100 f i sdai:array_type.obj
 0001:000a3120       ??0array_type@@QAE@PAVbase_type@@PAVbound@@1DD@Z 004a4120 f   sdai:array_type.obj
 0001:000a31c0       ?_address@variable_size_aggregation_type@@UAEPAXXZ 004a41c0 f   sdai:variable_size_aggregation_type.obj
 0001:000a31d0       ?classType@variable_size_aggregation_type@@UAEAAVRoseTypePtr@@XZ 004a41d0 f   sdai:variable_size_aggregation_type.obj
 0001:000a3260       ?variable_size_aggregation_type_INIT_FCN@@YAXAAVRoseTypePtr@@@Z 004a4260 f   sdai:variable_size_aggregation_type.obj
 0001:000a3310       ??0variable_size_aggregation_type@@QAE@XZ 004a4310 f   sdai:variable_size_aggregation_type.obj
 0001:000a3330       ??_Gvariable_size_aggregation_type@@UAEPAXI@Z 004a4330 f i sdai:variable_size_aggregation_type.obj
 0001:000a3330       ??_Evariable_size_aggregation_type@@UAEPAXI@Z 004a4330 f i sdai:variable_size_aggregation_type.obj
 0001:000a3350       ??0variable_size_aggregation_type@@QAE@PAVbase_type@@PAVbound@@1@Z 004a4350 f   sdai:variable_size_aggregation_type.obj
 0001:000a33d0       ?_address@list_type@@UAEPAXXZ 004a43d0 f   sdai:list_type.obj
 0001:000a33e0       ?classType@list_type@@UAEAAVRoseTypePtr@@XZ 004a43e0 f   sdai:list_type.obj
 0001:000a3470       ?list_type_INIT_FCN@@YAXAAVRoseTypePtr@@@Z 004a4470 f   sdai:list_type.obj
 0001:000a3520       ??0list_type@@QAE@XZ       004a4520 f   sdai:list_type.obj
 0001:000a3540       ??_Glist_type@@UAEPAXI@Z   004a4540 f i sdai:list_type.obj
 0001:000a3540       ??_Elist_type@@UAEPAXI@Z   004a4540 f i sdai:list_type.obj
 0001:000a3560       ??0list_type@@QAE@PAVbase_type@@PAVbound@@1D@Z 004a4560 f   sdai:list_type.obj
 0001:000a35f0       ?_address@string_type@@UAEPAXXZ 004a45f0 f   sdai:string_type.obj
 0001:000a3600       ?classType@string_type@@UAEAAVRoseTypePtr@@XZ 004a4600 f   sdai:string_type.obj
 0001:000a3690       ?string_type_INIT_FCN@@YAXAAVRoseTypePtr@@@Z 004a4690 f   sdai:string_type.obj
 0001:000a3740       ??0string_type@@QAE@XZ     004a4740 f   sdai:string_type.obj
 0001:000a3760       ??_Gstring_type@@UAEPAXI@Z 004a4760 f i sdai:string_type.obj
 0001:000a3760       ??_Estring_type@@UAEPAXI@Z 004a4760 f i sdai:string_type.obj
 0001:000a3780       ??0string_type@@QAE@PAVbound@@D@Z 004a4780 f   sdai:string_type.obj
 0001:000a37f0       ?_address@binary_type@@UAEPAXXZ 004a47f0 f   sdai:binary_type.obj
 0001:000a3800       ?classType@binary_type@@UAEAAVRoseTypePtr@@XZ 004a4800 f   sdai:binary_type.obj
 0001:000a3890       ?binary_type_INIT_FCN@@YAXAAVRoseTypePtr@@@Z 004a4890 f   sdai:binary_type.obj
 0001:000a3940       ??0binary_type@@QAE@XZ     004a4940 f   sdai:binary_type.obj
 0001:000a3960       ??_Gbinary_type@@UAEPAXI@Z 004a4960 f i sdai:binary_type.obj
 0001:000a3960       ??_Ebinary_type@@UAEPAXI@Z 004a4960 f i sdai:binary_type.obj
 0001:000a3980       ??0binary_type@@QAE@PAVbound@@D@Z 004a4980 f   sdai:binary_type.obj
 0001:000a39b0       ?INIT_scope@@YADXZ         004a49b0 f   sdai:scope.obj
 0001:000a39d0       ?INIT_event@@YADXZ         004a49d0 f   sdai:event.obj
 0001:000a3a60       ?INIT_error_event@@YADXZ   004a4a60 f   sdai:event.obj
 0001:000a3af0       ?function_id@event@@QAEPADXZ 004a4af0 f   sdai:event.obj
 0001:000a3b00       ?time@event@@QAEPADXZ      004a4b00 f   sdai:event.obj
 0001:000a3b10       ?error@error_event@@QAEJXZ 004a4b10 f   sdai:event.obj
 0001:000a3b20       ?description@error_event@@QAEPADXZ 004a4b20 f   sdai:event.obj
 0001:000a3b80       ?_address@ListOfattribute@@UAEPAXXZ 004a4b80 f   sdai:ListOfattribute.obj
 0001:000a3b90       ?classType@ListOfattribute@@UAEAAVRoseTypePtr@@XZ 004a4b90 f   sdai:ListOfattribute.obj
 0001:000a3c40       ?ListOfattribute_INIT_FCN@@YAXAAVRoseTypePtr@@@Z 004a4c40 f   sdai:ListOfattribute.obj
 0001:000a3d00       ?_data@ListOfattribute@@QAEPAPAVattribute@@XZ 004a4d00 f   sdai:ListOfattribute.obj
 0001:000a3d10       ??AListOfattribute@@QAEPAVattribute@@I@Z 004a4d10 f   sdai:ListOfattribute.obj
 0001:000a3d40       ?get@ListOfattribute@@QAEPAVattribute@@I@Z 004a4d40 f   sdai:ListOfattribute.obj
 0001:000a3d70       ?first@ListOfattribute@@QAEPAVattribute@@XZ 004a4d70 f   sdai:ListOfattribute.obj
 0001:000a3d90       ?last@ListOfattribute@@QAEPAVattribute@@XZ 004a4d90 f   sdai:ListOfattribute.obj
 0001:000a3dc0       ?contains@ListOfattribute@@QAEDPAVattribute@@@Z 004a4dc0 f   sdai:ListOfattribute.obj
 0001:000a3de0       ?_element@ListOfattribute@@QAEPAVattribute@@I@Z 004a4de0 f   sdai:ListOfattribute.obj
 0001:000a3e30       ?slotType@ListOfattribute@@UAEAAVRoseTypePtr@@PAVRoseAttribute@@I@Z 004a4e30 f   sdai:ListOfattribute.obj
 0001:000a3e80       ?_address@sdai_schema_instance@@UAEPAXXZ 004a4e80 f   sdai:sdai_schema_instance.obj
 0001:000a3e90       ?classType@sdai_schema_instance@@UAEAAVRoseTypePtr@@XZ 004a4e90 f   sdai:sdai_schema_instance.obj
 0001:000a3f50       ?sdai_schema_instance_INIT_FCN@@YAXAAVRoseTypePtr@@@Z 004a4f50 f   sdai:sdai_schema_instance.obj
 0001:000a4060       ?associated_models@sdai_schema_instance@@QAEPAVSetOfString@@XZ 004a5060 f   sdai:sdai_schema_instance.obj
 0001:000a4120       ??0sdai_schema_instance@@QAE@XZ 004a5120 f   sdai:sdai_schema_instance.obj
 0001:000a4180       ??0sdai_schema_instance@@QAE@PAVSetOfString@@PAD11DH@Z 004a5180 f   sdai:sdai_schema_instance.obj
 0001:000a4270       ?_address@sdai_schema_instance@@$4PPPPPPPM@A@AEPAXXZ 004a5270 f i sdai:sdai_schema_instance.obj
 0001:000a4280       ?classType@sdai_schema_instance@@$4PPPPPPPM@A@AEAAVRoseTypePtr@@XZ 004a5280 f i sdai:sdai_schema_instance.obj
 0001:000a4290       ??_Esdai_schema_instance@@$4PPPPPPPM@A@AEPAXI@Z 004a5290 f i sdai:sdai_schema_instance.obj
 0001:000a42a0       ??_Esdai_schema_instance@@UAEPAXI@Z 004a52a0 f i sdai:sdai_schema_instance.obj
 0001:000a42a0       ??_Gsdai_schema_instance@@UAEPAXI@Z 004a52a0 f i sdai:sdai_schema_instance.obj
 0001:000a4310       ?_address@entity_instance@@UAEPAXXZ 004a5310 f   sdai:entity_instance.obj
 0001:000a4320       ?classType@entity_instance@@UAEAAVRoseTypePtr@@XZ 004a5320 f   sdai:entity_instance.obj
 0001:000a43b0       ?entity_instance_INIT_FCN@@YAXAAVRoseTypePtr@@@Z 004a53b0 f   sdai:entity_instance.obj
 0001:000a4420       ??0entity_instance@@QAE@XZ 004a5420 f   sdai:entity_instance.obj
 0001:000a4440       ??_Gentity_instance@@UAEPAXI@Z 004a5440 f i sdai:entity_instance.obj
 0001:000a4440       ??_Eentity_instance@@UAEPAXI@Z 004a5440 f i sdai:entity_instance.obj
 0001:000a44a0       ?_address@type_or_rule@@UAEPAXXZ 004a54a0 f   sdai:type_or_rule.obj
 0001:000a44b0       ?classType@type_or_rule@@UAEAAVRoseTypePtr@@XZ 004a54b0 f   sdai:type_or_rule.obj
 0001:000a4540       ?type_or_rule_INIT_FCN@@YAXAAVRoseTypePtr@@@Z 004a5540 f   sdai:type_or_rule.obj
 0001:000a45d0       ??0type_or_rule@@QAE@XZ    004a55d0 f   sdai:type_or_rule.obj
 0001:000a45f0       ??_Gtype_or_rule@@UAEPAXI@Z 004a55f0 f i sdai:type_or_rule.obj
 0001:000a45f0       ??_Etype_or_rule@@UAEPAXI@Z 004a55f0 f i sdai:type_or_rule.obj
 0001:000a4650       ?_address@base_type@@UAEPAXXZ 004a5650 f   sdai:base_type.obj
 0001:000a4660       ?classType@base_type@@UAEAAVRoseTypePtr@@XZ 004a5660 f   sdai:base_type.obj
 0001:000a46f0       ?base_type_INIT_FCN@@YAXAAVRoseTypePtr@@@Z 004a56f0 f   sdai:base_type.obj
 0001:000a4790       ??0base_type@@QAE@XZ       004a5790 f   sdai:base_type.obj
 0001:000a47b0       ??_Ebase_type@@UAEPAXI@Z   004a57b0 f i sdai:base_type.obj
 0001:000a47b0       ??_Gbase_type@@UAEPAXI@Z   004a57b0 f i sdai:base_type.obj
 0001:000a4810       ?_address@underlying_type@@UAEPAXXZ 004a5810 f   sdai:underlying_type.obj
 0001:000a4820       ?classType@underlying_type@@UAEAAVRoseTypePtr@@XZ 004a5820 f   sdai:underlying_type.obj
 0001:000a48b0       ?underlying_type_INIT_FCN@@YAXAAVRoseTypePtr@@@Z 004a58b0 f   sdai:underlying_type.obj
 0001:000a4970       ??0underlying_type@@QAE@XZ 004a5970 f   sdai:underlying_type.obj
 0001:000a4990       ??_Gunderlying_type@@UAEPAXI@Z 004a5990 f i sdai:underlying_type.obj
 0001:000a4990       ??_Eunderlying_type@@UAEPAXI@Z 004a5990 f i sdai:underlying_type.obj
 0001:000a49f0       ?_address@derived_attribute@@UAEPAXXZ 004a59f0 f   sdai:derived_attribute.obj
 0001:000a4a00       ?classType@derived_attribute@@UAEAAVRoseTypePtr@@XZ 004a5a00 f   sdai:derived_attribute.obj
 0001:000a4a90       ?derived_attribute_INIT_FCN@@YAXAAVRoseTypePtr@@@Z 004a5a90 f   sdai:derived_attribute.obj
 0001:000a4b40       ??0derived_attribute@@QAE@XZ 004a5b40 f   sdai:derived_attribute.obj
 0001:000a4b60       ??_Ederived_attribute@@UAEPAXI@Z 004a5b60 f i sdai:derived_attribute.obj
 0001:000a4b60       ??_Gderived_attribute@@UAEPAXI@Z 004a5b60 f i sdai:derived_attribute.obj
 0001:000a4b80       ??0derived_attribute@@QAE@PADPAVentity_definition@@PAVbase_type@@PAVexplicit_or_derived@@@Z 004a5b80 f   sdai:derived_attribute.obj
 0001:000a4c10       ?_address@constructed_type@@UAEPAXXZ 004a5c10 f   sdai:constructed_type.obj
 0001:000a4c20       ?classType@constructed_type@@UAEAAVRoseTypePtr@@XZ 004a5c20 f   sdai:constructed_type.obj
 0001:000a4cb0       ?constructed_type_INIT_FCN@@YAXAAVRoseTypePtr@@@Z 004a5cb0 f   sdai:constructed_type.obj
 0001:000a4d40       ??0constructed_type@@QAE@XZ 004a5d40 f   sdai:constructed_type.obj
 0001:000a4d60       ??_Econstructed_type@@UAEPAXI@Z 004a5d60 f i sdai:constructed_type.obj
 0001:000a4d60       ??_Gconstructed_type@@UAEPAXI@Z 004a5d60 f i sdai:constructed_type.obj
 0001:000a4dc0       ?_address@enumeration_type@@UAEPAXXZ 004a5dc0 f   sdai:enumeration_type.obj
 0001:000a4dd0       ?classType@enumeration_type@@UAEAAVRoseTypePtr@@XZ 004a5dd0 f   sdai:enumeration_type.obj
 0001:000a4e60       ?enumeration_type_INIT_FCN@@YAXAAVRoseTypePtr@@@Z 004a5e60 f   sdai:enumeration_type.obj
 0001:000a4ee0       ?elements@enumeration_type@@QAEPAVListOfString@@XZ 004a5ee0 f   sdai:enumeration_type.obj
 0001:000a4f70       ??0enumeration_type@@QAE@XZ 004a5f70 f   sdai:enumeration_type.obj
 0001:000a4f90       ??_Genumeration_type@@UAEPAXI@Z 004a5f90 f i sdai:enumeration_type.obj
 0001:000a4f90       ??_Eenumeration_type@@UAEPAXI@Z 004a5f90 f i sdai:enumeration_type.obj
 0001:000a4fb0       ??0enumeration_type@@QAE@PAVListOfString@@@Z 004a5fb0 f   sdai:enumeration_type.obj
 0001:000a5020       ?_address@set_type@@UAEPAXXZ 004a6020 f   sdai:set_type.obj
 0001:000a5030       ?classType@set_type@@UAEAAVRoseTypePtr@@XZ 004a6030 f   sdai:set_type.obj
 0001:000a50c0       ?set_type_INIT_FCN@@YAXAAVRoseTypePtr@@@Z 004a60c0 f   sdai:set_type.obj
 0001:000a5150       ??0set_type@@QAE@XZ        004a6150 f   sdai:set_type.obj
 0001:000a5170       ??_Eset_type@@UAEPAXI@Z    004a6170 f i sdai:set_type.obj
 0001:000a5170       ??_Gset_type@@UAEPAXI@Z    004a6170 f i sdai:set_type.obj
 0001:000a5190       ??0set_type@@QAE@PAVbase_type@@PAVbound@@1@Z 004a6190 f   sdai:set_type.obj
 0001:000a5210       ?_address@bag_type@@UAEPAXXZ 004a6210 f   sdai:bag_type.obj
 0001:000a5220       ?classType@bag_type@@UAEAAVRoseTypePtr@@XZ 004a6220 f   sdai:bag_type.obj
 0001:000a52b0       ?bag_type_INIT_FCN@@YAXAAVRoseTypePtr@@@Z 004a62b0 f   sdai:bag_type.obj
 0001:000a5340       ??0bag_type@@QAE@XZ        004a6340 f   sdai:bag_type.obj
 0001:000a5360       ??_Ebag_type@@UAEPAXI@Z    004a6360 f i sdai:bag_type.obj
 0001:000a5360       ??_Gbag_type@@UAEPAXI@Z    004a6360 f i sdai:bag_type.obj
 0001:000a5380       ??0bag_type@@QAE@PAVbase_type@@PAVbound@@1@Z 004a6380 f   sdai:bag_type.obj
 0001:000a5400       ?_address@logical_type@@UAEPAXXZ 004a6400 f   sdai:logical_type.obj
 0001:000a5410       ?classType@logical_type@@UAEAAVRoseTypePtr@@XZ 004a6410 f   sdai:logical_type.obj
 0001:000a54a0       ?logical_type_INIT_FCN@@YAXAAVRoseTypePtr@@@Z 004a64a0 f   sdai:logical_type.obj
 0001:000a5520       ??0logical_type@@QAE@XZ    004a6520 f   sdai:logical_type.obj
 0001:000a5540       ??_Elogical_type@@UAEPAXI@Z 004a6540 f i sdai:logical_type.obj
 0001:000a5540       ??_Glogical_type@@UAEPAXI@Z 004a6540 f i sdai:logical_type.obj
 0001:000a55a0       ?_address@boolean_type@@UAEPAXXZ 004a65a0 f   sdai:boolean_type.obj
 0001:000a55b0       ?classType@boolean_type@@UAEAAVRoseTypePtr@@XZ 004a65b0 f   sdai:boolean_type.obj
 0001:000a5640       ?boolean_type_INIT_FCN@@YAXAAVRoseTypePtr@@@Z 004a6640 f   sdai:boolean_type.obj
 0001:000a56c0       ??0boolean_type@@QAE@XZ    004a66c0 f   sdai:boolean_type.obj
 0001:000a56e0       ??_Eboolean_type@@UAEPAXI@Z 004a66e0 f i sdai:boolean_type.obj
 0001:000a56e0       ??_Gboolean_type@@UAEPAXI@Z 004a66e0 f i sdai:boolean_type.obj
 0001:000a5740       ?_address@real_type@@UAEPAXXZ 004a6740 f   sdai:real_type.obj
 0001:000a5750       ?classType@real_type@@UAEAAVRoseTypePtr@@XZ 004a6750 f   sdai:real_type.obj
 0001:000a57e0       ?real_type_INIT_FCN@@YAXAAVRoseTypePtr@@@Z 004a67e0 f   sdai:real_type.obj
 0001:000a5880       ??0real_type@@QAE@XZ       004a6880 f   sdai:real_type.obj
 0001:000a58a0       ??_Ereal_type@@UAEPAXI@Z   004a68a0 f i sdai:real_type.obj
 0001:000a58a0       ??_Greal_type@@UAEPAXI@Z   004a68a0 f i sdai:real_type.obj
 0001:000a58c0       ??0real_type@@QAE@PAVbound@@@Z 004a68c0 f   sdai:real_type.obj
 0001:000a5930       ?_address@integer_type@@UAEPAXXZ 004a6930 f   sdai:integer_type.obj
 0001:000a5940       ?classType@integer_type@@UAEAAVRoseTypePtr@@XZ 004a6940 f   sdai:integer_type.obj
 0001:000a59d0       ?integer_type_INIT_FCN@@YAXAAVRoseTypePtr@@@Z 004a69d0 f   sdai:integer_type.obj
 0001:000a5a50       ??0integer_type@@QAE@XZ    004a6a50 f   sdai:integer_type.obj
 0001:000a5a70       ??_Ginteger_type@@UAEPAXI@Z 004a6a70 f i sdai:integer_type.obj
 0001:000a5a70       ??_Einteger_type@@UAEPAXI@Z 004a6a70 f i sdai:integer_type.obj
 0001:000a5ad0       ?_address@explicit_or_derived@@UAEPAXXZ 004a6ad0 f   sdai:explicit_or_derived.obj
 0001:000a5ae0       ?classType@explicit_or_derived@@UAEAAVRoseTypePtr@@XZ 004a6ae0 f   sdai:explicit_or_derived.obj
 0001:000a5b70       ?explicit_or_derived_INIT_FCN@@YAXAAVRoseTypePtr@@@Z 004a6b70 f   sdai:explicit_or_derived.obj
 0001:000a5c00       ??0explicit_or_derived@@QAE@XZ 004a6c00 f   sdai:explicit_or_derived.obj
 0001:000a5c20       ??_Gexplicit_or_derived@@UAEPAXI@Z 004a6c20 f i sdai:explicit_or_derived.obj
 0001:000a5c20       ??_Eexplicit_or_derived@@UAEPAXI@Z 004a6c20 f i sdai:explicit_or_derived.obj
 0001:000a5c40       ?class_type@ExpEntityManager@@SAIXZ 004a6c40 f   sdai:parse_data.obj
 0001:000a5c70       ?find_entity_definition@@YAPAVentity_definition@@PAVexp_entity@@@Z 004a6c70 f   sdai:parse_data.obj
 0001:000a5c90       ?class_type@ExpTypeManager@@SAIXZ 004a6c90 f   sdai:parse_data.obj
 0001:000a5cc0       ?find_defined_type@@YAPAVdefined_type@@PAVexp_defined_type@@@Z 004a6cc0 f   sdai:parse_data.obj
 0001:000a5ce0       ?class_type@ExpAttrManager@@SAIXZ 004a6ce0 f   sdai:parse_data.obj
 0001:000a5d10       ?find_attribute@@YAPAVattribute@@PAVexp_attribute@@@Z 004a6d10 f   sdai:parse_data.obj
 0001:000a5d40       ?get_name@@YAPADPAVexp_definition@@@Z 004a6d40 f   sdai:parse_data.obj
 0001:000a5d80       ?find_attribute@@YAPAVattribute@@PAVentity_definition@@PAD@Z 004a6d80 f   sdai:parse_data.obj
 0001:000a5db0       ?find_explicit_attribute@@YAPAVexplicit_attribute@@PAVentity_definition@@PAD@Z 004a6db0 f   sdai:parse_data.obj
 0001:000a5df0       ?find_derived_attribute@@YAPAVderived_attribute@@PAVentity_definition@@PAD@Z 004a6df0 f   sdai:parse_data.obj
 0001:000a5e30       ?populate_attribute@@YAXPAVexp_attribute@@PAVattribute@@PAVentity_definition@@@Z 004a6e30 f   sdai:parse_data.obj
 0001:000a5e80       ?record_attrs@@YAXPAVexp_entity@@PAVentity_definition@@@Z 004a6e80 f   sdai:parse_data.obj
 0001:000a6180       ?manager_type@ExpAttrManager@@UAEIXZ 004a7180 f i sdai:parse_data.obj
 0001:000a6190       ??_GExpAttrManager@@UAEPAXI@Z 004a7190 f i sdai:parse_data.obj
 0001:000a6190       ??_EExpAttrManager@@UAEPAXI@Z 004a7190 f i sdai:parse_data.obj
 0001:000a61b0       ?record_entity@@YAXPAVexp_entity@@PAVschema_definition@@@Z 004a71b0 f   sdai:parse_data.obj
 0001:000a6240       ?manager_type@ExpEntityManager@@UAEIXZ 004a7240 f i sdai:parse_data.obj
 0001:000a6250       ??_EExpEntityManager@@UAEPAXI@Z 004a7250 f i sdai:parse_data.obj
 0001:000a6250       ??_GExpEntityManager@@UAEPAXI@Z 004a7250 f i sdai:parse_data.obj
 0001:000a6270       ?create_defined_type@@YAXPAVexp_defined_type@@PAVschema_definition@@@Z 004a7270 f   sdai:parse_data.obj
 0001:000a63e0       ?manager_type@ExpTypeManager@@UAEIXZ 004a73e0 f i sdai:parse_data.obj
 0001:000a63f0       ??_EExpTypeManager@@UAEPAXI@Z 004a73f0 f i sdai:parse_data.obj
 0001:000a63f0       ??_GExpTypeManager@@UAEPAXI@Z 004a73f0 f i sdai:parse_data.obj
 0001:000a6410       ?create_rules_list@@YAPAVListOfwhere_rule@@PAVListOfexp_where_clause@@PAVglobal_rule@@@Z 004a7410 f   sdai:parse_data.obj
 0001:000a6550       ?create_rules_list@@YAPAVListOfwhere_rule@@PAVListOfexp_where_clause@@PAVnamed_type@@@Z 004a7550 f   sdai:parse_data.obj
 0001:000a66a0       ?create_rule@@YAXPAVexp_rule@@PAVschema_definition@@@Z 004a76a0 f   sdai:parse_data.obj
 0001:000a6a30       ?create_bound@@YAPAVbound@@HPAVRoseDesign@@@Z 004a7a30 f   sdai:parse_data.obj
 0001:000a6a60       ?create_bound@@YAPAVbound@@PAVexp_expression@@PAVRoseDesign@@D@Z 004a7a60 f   sdai:parse_data.obj
 0001:000a6b80       ?create_rules@@YAXPAVexp_named_type@@PAVnamed_type@@@Z 004a7b80 f   sdai:parse_data.obj
 0001:000a6bb0       ?create_simple_type@@YAPAVsimple_type@@PAVexp_simple_ref@@PAV1@PAVRoseDesign@@@Z 004a7bb0 f   sdai:parse_data.obj
 0001:000a6fc0       ?create_aggregation_type@@YAPAVaggregation_type@@PAVexp_aggregate_ref@@PAV1@PAVRoseDesign@@@Z 004a7fc0 f   sdai:parse_data.obj
 0001:000a7540       ?get_named_type@@YAPAVnamed_type@@PAVexp_definition@@@Z 004a8540 f   sdai:parse_data.obj
 0001:000a7620       ?get_named_type@@YAPAVnamed_type@@PAVexp_binding@@@Z 004a8620 f   sdai:parse_data.obj
 0001:000a7670       ?create_base_type@@YAPAVbase_type@@PAVexp_type_ref@@PAV1@PAVRoseDesign@@@Z 004a8670 f   sdai:parse_data.obj
 0001:000a7970       ?get_defined_type@@YAPAVdefined_type@@PAVexp_identifier@@@Z 004a8970 f   sdai:parse_data.obj
 0001:000a7a30       ?maybe_create_underlying_type@@YAPAVunderlying_type@@PAVexp_type_ref@@PAV1@PAVRoseDesign@@@Z 004a8a30 f   sdai:parse_data.obj
 0001:000a7cd0       ?refine_defined_type@@YAXPAVexp_defined_type@@@Z 004a8cd0 f   sdai:parse_data.obj
 0001:000a7da0       ?get_attribute@@YAPAVattribute@@PAVexp_expression@@@Z 004a8da0 f   sdai:parse_data.obj
 0001:000a7e90       ?create_uniqueness_rules@@YAXPAVexp_entity@@PAVentity_definition@@@Z 004a8e90 f   sdai:parse_data.obj
 0001:000a8000       ?populate_inverse@@YAXPAVexp_inverse@@PAVinverse_attribute@@@Z 004a9000 f   sdai:parse_data.obj
 0001:000a8560       ?get_redeclared_attr@@YAPAVexp_attribute@@PAVexp_op_expression@@@Z 004a9560 f   sdai:parse_data.obj
 0001:000a8690       ?create_explicit_or_derived@@YAPAVexplicit_or_derived@@PAVexp_op_expression@@PAVRoseDesign@@@Z 004a9690 f   sdai:parse_data.obj
 0001:000a87c0       ?get_explicit_attribute@@YAPAVexplicit_attribute@@PAVexp_op_expression@@@Z 004a97c0 f   sdai:parse_data.obj
 0001:000a8860       ?refine_entity@@YAXPAVexp_entity@@@Z 004a9860 f   sdai:parse_data.obj
 0001:000a8ae0       ?add_parse_data@@YAXPAVschema_definition@@PAVRoseDesign@@@Z 004a9ae0 f   sdai:parse_data.obj
 0001:000a9190       ?_address@bound@@UAEPAXXZ  004aa190 f   sdai:bound.obj
 0001:000a91a0       ?classType@bound@@UAEAAVRoseTypePtr@@XZ 004aa1a0 f   sdai:bound.obj
 0001:000a9230       ?bound_INIT_FCN@@YAXAAVRoseTypePtr@@@Z 004aa230 f   sdai:bound.obj
 0001:000a92a0       ??0bound@@QAE@XZ           004aa2a0 f   sdai:bound.obj
 0001:000a92c0       ?validateMin@bound@@UAEHIPAVRoseStructure@@@Z 004aa2c0 f i sdai:bound.obj
 0001:000a92d0       ?validateMax@bound@@UAEHIPAVRoseStructure@@@Z 004aa2d0 f i sdai:bound.obj
 0001:000a92e0       ??_Ebound@@UAEPAXI@Z       004aa2e0 f i sdai:bound.obj
 0001:000a92e0       ??_Gbound@@UAEPAXI@Z       004aa2e0 f i sdai:bound.obj
 0001:000a9340       ?_address@aggregation_type@@UAEPAXXZ 004aa340 f   sdai:aggregation_type.obj
 0001:000a9350       ?classType@aggregation_type@@UAEAAVRoseTypePtr@@XZ 004aa350 f   sdai:aggregation_type.obj
 0001:000a93e0       ?aggregation_type_INIT_FCN@@YAXAAVRoseTypePtr@@@Z 004aa3e0 f   sdai:aggregation_type.obj
 0001:000a9460       ??0aggregation_type@@QAE@XZ 004aa460 f   sdai:aggregation_type.obj
 0001:000a9480       ??_Eaggregation_type@@UAEPAXI@Z 004aa480 f i sdai:aggregation_type.obj
 0001:000a9480       ??_Gaggregation_type@@UAEPAXI@Z 004aa480 f i sdai:aggregation_type.obj
 0001:000a94a0       ??0aggregation_type@@QAE@PAVbase_type@@@Z 004aa4a0 f   sdai:aggregation_type.obj
 0001:000a9510       ?_address@simple_type@@UAEPAXXZ 004aa510 f   sdai:simple_type.obj
 0001:000a9520       ?classType@simple_type@@UAEAAVRoseTypePtr@@XZ 004aa520 f   sdai:simple_type.obj
 0001:000a95b0       ?simple_type_INIT_FCN@@YAXAAVRoseTypePtr@@@Z 004aa5b0 f   sdai:simple_type.obj
 0001:000a9620       ??0simple_type@@QAE@XZ     004aa620 f   sdai:simple_type.obj
 0001:000a9640       ??_Esimple_type@@UAEPAXI@Z 004aa640 f i sdai:simple_type.obj
 0001:000a9640       ??_Gsimple_type@@UAEPAXI@Z 004aa640 f i sdai:simple_type.obj
 0001:000a9660       ?createAccessor@derived_attribute@@UAEXXZ 004aa660 f   sdai:derived_attributeX.obj
 0001:000a9690       ?getValue@SdaiDerivedAttributeAccessor@@UAEDPAUSdai_Id@@PAVSdai_ADB@@@Z 004aa690 f i sdai:derived_attributeX.obj
 0001:000a9700       ?_address@integer_bound@@UAEPAXXZ 004aa700 f   sdai:integer_bound.obj
 0001:000a9710       ?classType@integer_bound@@UAEAAVRoseTypePtr@@XZ 004aa710 f   sdai:integer_bound.obj
 0001:000a97a0       ?integer_bound_INIT_FCN@@YAXAAVRoseTypePtr@@@Z 004aa7a0 f   sdai:integer_bound.obj
 0001:000a9840       ??0integer_bound@@QAE@XZ   004aa840 f   sdai:integer_bound.obj
 0001:000a9860       ?validateMin@integer_bound@@UAEHIPAVRoseStructure@@@Z 004aa860 f i sdai:integer_bound.obj
 0001:000a9870       ?validateMax@integer_bound@@UAEHIPAVRoseStructure@@@Z 004aa870 f i sdai:integer_bound.obj
 0001:000a9880       ??_Einteger_bound@@UAEPAXI@Z 004aa880 f i sdai:integer_bound.obj
 0001:000a9880       ??_Ginteger_bound@@UAEPAXI@Z 004aa880 f i sdai:integer_bound.obj
 0001:000a98a0       ??0integer_bound@@QAE@H@Z  004aa8a0 f   sdai:integer_bound.obj
 0001:000a9910       ?_address@population_dependent_bound@@UAEPAXXZ 004aa910 f   sdai:population_dependent_bound.obj
 0001:000a9920       ?classType@population_dependent_bound@@UAEAAVRoseTypePtr@@XZ 004aa920 f   sdai:population_dependent_bound.obj
 0001:000a99b0       ?population_dependent_bound_INIT_FCN@@YAXAAVRoseTypePtr@@@Z 004aa9b0 f   sdai:population_dependent_bound.obj
 0001:000a9a30       ??0population_dependent_bound@@QAE@XZ 004aaa30 f   sdai:population_dependent_bound.obj
 0001:000a9a50       ??_Gpopulation_dependent_bound@@UAEPAXI@Z 004aaa50 f i sdai:population_dependent_bound.obj
 0001:000a9a50       ??_Epopulation_dependent_bound@@UAEPAXI@Z 004aaa50 f i sdai:population_dependent_bound.obj
 0001:000a9ab0       ?_address@number_type@@UAEPAXXZ 004aaab0 f   sdai:number_type.obj
 0001:000a9ac0       ?classType@number_type@@UAEAAVRoseTypePtr@@XZ 004aaac0 f   sdai:number_type.obj
 0001:000a9b50       ?number_type_INIT_FCN@@YAXAAVRoseTypePtr@@@Z 004aab50 f   sdai:number_type.obj
 0001:000a9bd0       ??0number_type@@QAE@XZ     004aabd0 f   sdai:number_type.obj
 0001:000a9bf0       ??_Enumber_type@@UAEPAXI@Z 004aabf0 f i sdai:number_type.obj
 0001:000a9bf0       ??_Gnumber_type@@UAEPAXI@Z 004aabf0 f i sdai:number_type.obj
 0001:000a9c10       ?validateMin@population_dependent_bound@@UAEHIPAVRoseStructure@@@Z 004aac10 f   sdai:population_dependent_boundX.obj
 0001:000a9c50       ?validateMax@population_dependent_bound@@UAEHIPAVRoseStructure@@@Z 004aac50 f   sdai:population_dependent_boundX.obj
 0001:000a9c90       ?rose_getenv_search_path@@YAPADXZ 004aac90 f   rose:rose_env.obj
 0001:000a9df0       ?rose_setenv_search_path@@YAXPBD@Z 004aadf0 f   rose:rose_env.obj
 0001:000a9e70       ?rose_getenv_system_schema_path@@YAPADXZ 004aae70 f   rose:rose_env.obj
 0001:000a9f90       ?rose_setenv_system_schema_path@@YAXPBD@Z 004aaf90 f   rose:rose_env.obj
 0001:000a9fb0       ?rose_getenv_integrated_schema_path@@YAPADXZ 004aafb0 f   rose:rose_env.obj
 0001:000aa010       ?rose_setenv_integrated_schema_path@@YAXPBD@Z 004ab010 f   rose:rose_env.obj
 0001:000aa030       ?rose_getenv_registry_key@@YAPADXZ 004ab030 f   rose:rose_env.obj
 0001:000aa070       ?rose_setenv_registry_key@@YAXPBD@Z 004ab070 f   rose:rose_env.obj
 0001:000aa090       ?rose_banner@@YAXXZ        004ab090 f   rose:RoseInterface.obj
 0001:000aa160       ??0RoseInterface@@QAE@PAV0@@Z 004ab160 f   rose:RoseInterface.obj
 0001:000aa180       ?initialize@RoseInterface@@QAEXXZ 004ab180 f   rose:RoseInterface.obj
 0001:000aa300       ?repository@RoseInterface@@QAEPAVRoseRepository@@XZ 004ab300 f   rose:RoseInterface.obj
 0001:000aa320       ?repository@RoseInterface@@QAEXPAVRoseRepository@@@Z 004ab320 f   rose:RoseInterface.obj
 0001:000aa3b0       ?repository@RoseInterface@@QAEXPAD@Z 004ab3b0 f   rose:RoseInterface.obj
 0001:000aa410       ?repositoryName@RoseInterface@@QAEPADXZ 004ab410 f   rose:RoseInterface.obj
 0001:000aa420       ?known_repositories@RoseInterface@@QAEPAVListOfString@@XZ 004ab420 f   rose:RoseInterface.obj
 0001:000aa430       ?known_repositories_dictionary@RoseInterface@@QAEPAVDictionaryOfRoseRepository@@XZ 004ab430 f   rose:RoseInterface.obj
 0001:000aa440       ?findRepository@RoseInterface@@QAEPAVRoseRepository@@PBD@Z 004ab440 f   rose:RoseInterface.obj
 0001:000aa460       ?findObjects@RoseInterface@@QAEPAVRoseAggregate@@PAV2@PAVRoseDesign@@@Z 004ab460 f   rose:RoseInterface.obj
 0001:000aa490       ?findObjects@RoseInterface@@QAEPAVRoseAggregate@@PAV2@PAD@Z 004ab490 f   rose:RoseInterface.obj
 0001:000aa4e0       ?findObjects@RoseInterface@@QAEPAVRoseAggregate@@PAV2@PAVRoseObject@@@Z 004ab4e0 f   rose:RoseInterface.obj
 0001:000aa510       ?findObjects@RoseInterface@@QAEPAVRoseAggregate@@PAVRoseDomain@@PAV2@PAVRoseDesign@@@Z 004ab510 f   rose:RoseInterface.obj
 0001:000aa550       ?findObjects@RoseInterface@@QAEPAVRoseAggregate@@PAVRoseDomain@@PAV2@PAD@Z 004ab550 f   rose:RoseInterface.obj
 0001:000aa5b0       ?findObjects@RoseInterface@@QAEPAVRoseAggregate@@PAVRoseDomain@@PAV2@PAVRoseObject@@@Z 004ab5b0 f   rose:RoseInterface.obj
 0001:000aa5e0       ?findObject@RoseInterface@@QAEPAVRoseObject@@PBDPAVRoseDesign@@@Z 004ab5e0 f   rose:RoseInterface.obj
 0001:000aa610       ?findObject@RoseInterface@@QAEPAVRoseObject@@IPAVRoseDesign@@@Z 004ab610 f   rose:RoseInterface.obj
 0001:000aa640       ?findObject@RoseInterface@@QAEPAVRoseObject@@PBDPAD@Z 004ab640 f   rose:RoseInterface.obj
 0001:000aa690       ?findObject@RoseInterface@@QAEPAVRoseObject@@IPAD@Z 004ab690 f   rose:RoseInterface.obj
 0001:000aa6e0       ?findObjectInWorkspace@RoseInterface@@QAEPAVRoseObject@@I@Z 004ab6e0 f   rose:RoseInterface.obj
 0001:000aa730       ?findObjectInWorkspace@RoseInterface@@QAEPAVRoseObject@@PBD@Z 004ab730 f   rose:RoseInterface.obj
 0001:000aa780       ?findDomain@RoseInterface@@QAEPAVRoseDomain@@PBDPAVRoseDesign@@@Z 004ab780 f   rose:RoseInterface.obj
 0001:000aa7b0       ?findDomain@RoseInterface@@QAEPAVRoseDomain@@PBDPAD@Z 004ab7b0 f   rose:RoseInterface.obj
 0001:000aa800       ?findDomainInWorkspace@RoseInterface@@QAEPAVRoseDomain@@PBD@Z 004ab800 f   rose:RoseInterface.obj
 0001:000aa860       ?findDesign@RoseInterface@@QAEPAVRoseDesign@@PAD@Z 004ab860 f   rose:RoseInterface.obj
 0001:000aa890       ?findDesignInWorkspace@RoseInterface@@QAEPAVRoseDesign@@PAD@Z 004ab890 f   rose:RoseInterface.obj
 0001:000aa8b0       ?useDesign@RoseInterface@@QAEPAVRoseDesign@@PAD@Z 004ab8b0 f   rose:RoseInterface.obj
 0001:000aa900       ?useDesign@RoseInterface@@QAEPAVRoseDesign@@PAV2@@Z 004ab900 f   rose:RoseInterface.obj
 0001:000aa920       ?newDesign@RoseInterface@@QAEPAVRoseDesign@@PADPAV2@@Z 004ab920 f   rose:RoseInterface.obj
 0001:000aa970       ?newDesign@RoseInterface@@QAEPAVRoseDesign@@PAD0@Z 004ab970 f   rose:RoseInterface.obj
 0001:000aa9c0       ?useSchema@RoseInterface@@QAEXPADPAVRoseDesign@@@Z 004ab9c0 f   rose:RoseInterface.obj
 0001:000aa9f0       ?useSchema@RoseInterface@@QAEXPAD0@Z 004ab9f0 f   rose:RoseInterface.obj
 0001:000aaa40       ?useSchema@RoseInterface@@QAEXPAVRoseDesign@@0@Z 004aba40 f   rose:RoseInterface.obj
 0001:000aaa70       ?useSchema@RoseInterface@@QAEXPAVRoseDesign@@PAD@Z 004aba70 f   rose:RoseInterface.obj
 0001:000aaac0       ?addSchema@RoseInterface@@QAEXPADPAVRoseDesign@@@Z 004abac0 f   rose:RoseInterface.obj
 0001:000aaaf0       ?addSchema@RoseInterface@@QAEXPAD0@Z 004abaf0 f   rose:RoseInterface.obj
 0001:000aab40       ?addSchema@RoseInterface@@QAEXPAVRoseDesign@@0@Z 004abb40 f   rose:RoseInterface.obj
 0001:000aab70       ?addSchema@RoseInterface@@QAEXPAVRoseDesign@@PAD@Z 004abb70 f   rose:RoseInterface.obj
 0001:000aabc0       ?pnewInstance@RoseInterface@@QAEPAVRoseObject@@PADPAVRoseDesign@@@Z 004abbc0 f   rose:RoseInterface.obj
 0001:000aabe0       ?pnewInstance@RoseInterface@@QAEPAVRoseObject@@PADIPAVRoseDesign@@@Z 004abbe0 f   rose:RoseInterface.obj
 0001:000aac10       ?pnewInstance@RoseInterface@@QAEPAVRoseObject@@PAD0@Z 004abc10 f   rose:RoseInterface.obj
 0001:000aac30       ?pnewInstance@RoseInterface@@QAEPAVRoseObject@@PADI0@Z 004abc30 f   rose:RoseInterface.obj
 0001:000aac80       ?addName@RoseInterface@@QAEXPADPAVRoseObject@@PAVRoseDesign@@@Z 004abc80 f   rose:RoseInterface.obj
 0001:000aacb0       ?addName@RoseInterface@@QAEXPADPAVRoseObject@@0@Z 004abcb0 f   rose:RoseInterface.obj
 0001:000aad00       ?removeName@RoseInterface@@QAEPAVRoseObject@@PADPAVRoseDesign@@@Z 004abd00 f   rose:RoseInterface.obj
 0001:000aad30       ?removeName@RoseInterface@@QAEPAVRoseObject@@PAD0@Z 004abd30 f   rose:RoseInterface.obj
 0001:000aad80       ?nameTable@RoseInterface@@QAEPAVDictionaryOfRoseObject@@PAVRoseDesign@@@Z 004abd80 f   rose:RoseInterface.obj
 0001:000aadb0       ?nameTable@RoseInterface@@QAEPAVDictionaryOfRoseObject@@PAD@Z 004abdb0 f   rose:RoseInterface.obj
 0001:000aae00       ?rootObject@RoseInterface@@QAEPAVRoseObject@@PAVRoseDesign@@@Z 004abe00 f   rose:RoseInterface.obj
 0001:000aae30       ?rootObject@RoseInterface@@QAEPAVRoseObject@@PAD@Z 004abe30 f   rose:RoseInterface.obj
 0001:000aae80       ?setRootObject@RoseInterface@@QAEXPAVRoseObject@@PAVRoseDesign@@@Z 004abe80 f   rose:RoseInterface.obj
 0001:000aaeb0       ?setRootObject@RoseInterface@@QAEXPAVRoseObject@@PAD@Z 004abeb0 f   rose:RoseInterface.obj
 0001:000aaf00       ?designName@RoseInterface@@QAEPADPAVRoseDesign@@@Z 004abf00 f   rose:RoseInterface.obj
 0001:000aaf30       ?setDesignName@RoseInterface@@QAEXPADPAVRoseDesign@@@Z 004abf30 f   rose:RoseInterface.obj
 0001:000aaf60       ?setDesignName@RoseInterface@@QAEXPAD0@Z 004abf60 f   rose:RoseInterface.obj
 0001:000aafb0       ?cvtSTRtoOID@RoseInterface@@QAEDPADAAI@Z 004abfb0 f   rose:RoseInterface.obj
 0001:000aafe0       ?cvtOIDtoSTR@RoseInterface@@QAEDIPAD@Z 004abfe0 f   rose:RoseInterface.obj
 0001:000ab010       ?format@RoseInterface@@QAEPADPAVRoseDesign@@@Z 004ac010 f   rose:RoseInterface.obj
 0001:000ab040       ?format@RoseInterface@@QAEPADPAD@Z 004ac040 f   rose:RoseInterface.obj
 0001:000ab090       ?setFormat@RoseInterface@@QAEXPADPAVRoseDesign@@@Z 004ac090 f   rose:RoseInterface.obj
 0001:000ab0c0       ?setFormat@RoseInterface@@QAEXPAD0@Z 004ac0c0 f   rose:RoseInterface.obj
 0001:000ab110       ?display@RoseInterface@@QAEXPAVRoseDesign@@@Z 004ac110 f   rose:RoseInterface.obj
 0001:000ab140       ?display@RoseInterface@@QAEXPAD@Z 004ac140 f   rose:RoseInterface.obj
 0001:000ab190       ?saveDesign@RoseInterface@@QAEXPAVRoseDesign@@@Z 004ac190 f   rose:RoseInterface.obj
 0001:000ab1c0       ?saveDesign@RoseInterface@@QAEXPAD@Z 004ac1c0 f   rose:RoseInterface.obj
 0001:000ab210       ?saveDesignAs@RoseInterface@@QAEXPADPAVRoseDesign@@@Z 004ac210 f   rose:RoseInterface.obj
 0001:000ab240       ?saveDesignAs@RoseInterface@@QAEXPAD0@Z 004ac240 f   rose:RoseInterface.obj
 0001:000ab290       ?removeDesign@RoseInterface@@QAEXPAVRoseDesign@@@Z 004ac290 f   rose:RoseInterface.obj
 0001:000ab2d0       ?removeDesign@RoseInterface@@QAEXPAD@Z 004ac2d0 f   rose:RoseInterface.obj
 0001:000ab330       ?saveWorkspace@RoseInterface@@QAEXXZ 004ac330 f   rose:RoseInterface.obj
 0001:000ab350       ?clearWorkspace@RoseInterface@@QAEXXZ 004ac350 f   rose:RoseInterface.obj
 0001:000ab3b0       ?isInWorkspace@RoseInterface@@QAEDPAD@Z 004ac3b0 f   rose:RoseInterface.obj
 0001:000ab3d0       ?workspaceDesigns@RoseInterface@@QAEPAVListOfRoseDesign@@XZ 004ac3d0 f   rose:RoseInterface.obj
 0001:000ab3f0       ?workspaceDesignNames@RoseInterface@@QAEPAVListOfString@@XZ 004ac3f0 f   rose:RoseInterface.obj
 0001:000ab410       ?workspaceTypes@RoseInterface@@QAEPAVListOfRoseType@@XZ 004ac410 f   rose:RoseInterface.obj
 0001:000ab420       ?workspaceTypePtrs@RoseInterface@@QAEPAVListOfRoseTypePtr@@XZ 004ac420 f   rose:RoseInterface.obj
 0001:000ab430       ?usePath@RoseInterface@@QAEXPAVListOfString@@@Z 004ac430 f   rose:RoseInterface.obj
 0001:000ab450       ?path@RoseInterface@@QAEPAVListOfString@@XZ 004ac450 f   rose:RoseInterface.obj
 0001:000ab470       ?pathDesignNames@RoseInterface@@QAEPAVListOfString@@PAD@Z 004ac470 f   rose:RoseInterface.obj
 0001:000ab4a0       ?isInPath@RoseInterface@@QAEDPAD@Z 004ac4a0 f   rose:RoseInterface.obj
 0001:000ab4d0       ?beginTraversal@RoseInterface@@QAEXXZ 004ac4d0 f   rose:RoseInterface.obj
 0001:000ab500       ?quiet@RoseInterface@@QAEXD@Z 004ac500 f   rose:RoseInterface.obj
 0001:000ab540       ?error_reporter@RoseInterface@@QAEPAVRoseErrorReporter@@XZ 004ac540 f   rose:RoseInterface.obj
 0001:000ab570       ?error_reporter@RoseInterface@@QAEXPAVRoseErrorReporter@@@Z 004ac570 f   rose:RoseInterface.obj
 0001:000ab580       ?report@RoseInterface@@QAAXKZZ 004ac580 f   rose:RoseInterface.obj
 0001:000ab5a0       ?error@RoseInterface@@QAAXPADZZ 004ac5a0 f   rose:RoseInterface.obj
 0001:000ab5f0       ?warning@RoseInterface@@QAAXPADZZ 004ac5f0 f   rose:RoseInterface.obj
 0001:000ab640       ?message@RoseInterface@@QAAXPADZZ 004ac640 f   rose:RoseInterface.obj
 0001:000ab690       ?generateSchema@RoseInterface@@QAEPAVRoseDesign@@PADD@Z 004ac690 f   rose:RoseInterface.obj
 0001:000ab9f0       ??_Gsrep@RoseStringObject@@QAEPAXI@Z 004ac9f0 f i rose:RoseInterface.obj
 0001:000aba20       ?userSchemas@RoseInterface@@QAEPAVListOfRoseDesign@@XZ 004aca20 f   rose:RoseInterface.obj
 0001:000aba60       ?systemSchemaNames@RoseInterface@@QAEPAVListOfString@@XZ 004aca60 f   rose:RoseInterface.obj
 0001:000abac0       ?userSchemaNames@RoseInterface@@QAEPAVListOfString@@XZ 004acac0 f   rose:RoseInterface.obj
 0001:000abb50       ?findCompiledSchemas@RoseInterface@@QAEXXZ 004acb50 f   rose:RoseInterface.obj
 0001:000abcb0       ?isInitialized@RoseInterface@@QAEDXZ 004accb0 f   rose:RoseInterface.obj
 0001:000abcc0       ?quiet@RoseInterface@@QAEDXZ 004accc0 f   rose:RoseInterface.obj
 0001:000abcd0       ?design@RoseInterface@@QAEPAVRoseDesign@@XZ 004accd0 f   rose:RoseInterface.obj
 0001:000abcf0       ?server@RoseInterface@@QAEPAVRoseServer@@XZ 004accf0 f   rose:RoseInterface.obj
 0001:000abd10       ?keystone@RoseInterface@@QAEPAVRoseDesign@@XZ 004acd10 f   rose:RoseInterface.obj
 0001:000abd30       ?endTraversal@RoseInterface@@QAEXXZ 004acd30 f   rose:RoseInterface.obj
 0001:000abd40       ?isTraversing@RoseInterface@@QAEDXZ 004acd40 f   rose:RoseInterface.obj
 0001:000abd50       ?traversalMark@RoseInterface@@QAEGXZ 004acd50 f   rose:RoseInterface.obj
 0001:000abd60       ?useShortNames@RoseInterface@@QAEDXZ 004acd60 f   rose:RoseInterface.obj
 0001:000abd70       ?useShortNames@RoseInterface@@QAEXD@Z 004acd70 f   rose:RoseInterface.obj
 0001:000abd80       ?isDesign@RoseObject@@QAEDXZ 004acd80 f   rose:RoseDesign.obj
 0001:000abdb0       ??0RoseDesign@@QAE@AAVRoseInterface@@@Z 004acdb0 f   rose:RoseDesign.obj
 0001:000abde0       ?size@RoseDesign@@UAEDIH@Z 004acde0 f i rose:RoseDesign.obj
 0001:000abe00       ??_ERoseDesign@@UAEPAXI@Z  004ace00 f i rose:RoseDesign.obj
 0001:000abe00       ??_GRoseDesign@@UAEPAXI@Z  004ace00 f i rose:RoseDesign.obj
 0001:000abe20       ??0RoseDesign@@QAE@XZ      004ace20 f   rose:RoseDesign.obj
 0001:000abe50       ??0RoseDesign@@QAE@PADPAV0@@Z 004ace50 f   rose:RoseDesign.obj
 0001:000abf20       ??0RoseDesign@@QAE@PAD0@Z  004acf20 f   rose:RoseDesign.obj
 0001:000abfa0       ??1RoseDesign@@UAE@XZ      004acfa0 f   rose:RoseDesign.obj
 0001:000ac090       ?clear_instance@RoseDesign@@IAEXPAVRoseServer@@@Z 004ad090 f   rose:RoseDesign.obj
 0001:000ac1b0       ??_GRoseDesignManager@@UAEPAXI@Z 004ad1b0 f i rose:RoseDesign.obj
 0001:000ac1b0       ??_ERoseDesignManager@@UAEPAXI@Z 004ad1b0 f i rose:RoseDesign.obj
 0001:000ac1d0       ?dflt_section@RoseDesign@@QAEPAVRoseDesignSection@@XZ 004ad1d0 f   rose:RoseDesign.obj
 0001:000ac220       ?header_section@RoseDesign@@QAEPAVRoseDesignSection@@XZ 004ad220 f   rose:RoseDesign.obj
 0001:000ac270       ?system_section@RoseDesign@@QAEPAVRoseDesignSection@@XZ 004ad270 f   rose:RoseDesign.obj
 0001:000ac2c0       ?dflt_section@RoseDesign@@QAEXPAVRoseDesignSection@@@Z 004ad2c0 f   rose:RoseDesign.obj
 0001:000ac2f0       ?header_section@RoseDesign@@QAEXPAVRoseDesignSection@@@Z 004ad2f0 f   rose:RoseDesign.obj
 0001:000ac320       ?system_section@RoseDesign@@QAEXPAVRoseDesignSection@@@Z 004ad320 f   rose:RoseDesign.obj
 0001:000ac350       ?_findObjects@RoseDesign@@UAEXPAVRoseDomain@@PAVRoseAggregate@@IDD@Z 004ad350 f   rose:RoseDesign.obj
 0001:000ac3c0       ?findObject@RoseDesign@@QAEPAVRoseObject@@PBD@Z 004ad3c0 f   rose:RoseDesign.obj
 0001:000ac410       ?findObject@RoseDesign@@QAEPAVRoseObject@@I@Z 004ad410 f   rose:RoseDesign.obj
 0001:000ac430       ?findDomain@RoseDesign@@QAEPAVRoseDomain@@PBD@Z 004ad430 f   rose:RoseDesign.obj
 0001:000ac570       ?findDefType@RoseDesign@@QAEPAVRoseDefType@@PAD@Z 004ad570 f   rose:RoseDesign.obj
 0001:000ac610       ?findComplexDomain@RoseDesign@@QAEPAVRoseDomain@@PAVListOfRoseDomain@@@Z 004ad610 f   rose:RoseDesign.obj
 0001:000ac7d0       ?save@RoseDesign@@UAEXXZ   004ad7d0 f   rose:RoseDesign.obj
 0001:000ac800       ?saveAs@RoseDesign@@UAEXPAD@Z 004ad800 f   rose:RoseDesign.obj
 0001:000ac840       ?display@RoseDesign@@UAEXID@Z 004ad840 f   rose:RoseDesign.obj
 0001:000ac860       ?size@RoseDesign@@UAEIXZ   004ad860 f   rose:RoseDesign.obj
 0001:000ac890       ?emptyYourself@RoseDesign@@UAEXXZ 004ad890 f   rose:RoseDesign.obj
 0001:000ac920       ?pnewInstance@RoseDesign@@QAEPAVRoseObject@@PADI@Z 004ad920 f   rose:RoseDesign.obj
 0001:000ac960       ?pnewInstance@RoseDesign@@QAEPAVRoseObject@@PAVRoseDomain@@I@Z 004ad960 f   rose:RoseDesign.obj
 0001:000ac980       ?schemas@RoseDesign@@QAEXPAVListOfRoseDesign@@@Z 004ad980 f   rose:RoseDesign.obj
 0001:000ac9a0       ?schemas@RoseDesign@@QAEPAVListOfRoseDesign@@XZ 004ad9a0 f   rose:RoseDesign.obj
 0001:000ac9c0       ?useSchema@RoseDesign@@QAEXPAV1@@Z 004ad9c0 f   rose:RoseDesign.obj
 0001:000aca30       ?useSchema@RoseDesign@@QAEXPAD@Z 004ada30 f   rose:RoseDesign.obj
 0001:000aca80       ?addSchema@RoseDesign@@QAEXPAV1@@Z 004ada80 f   rose:RoseDesign.obj
 0001:000acae0       ?addSchema@RoseDesign@@QAEXPAD@Z 004adae0 f   rose:RoseDesign.obj
 0001:000acb30       ?firstSchema@RoseDesign@@QAEPAV1@XZ 004adb30 f   rose:RoseDesign.obj
 0001:000acb70       ?name@RoseDesign@@QAEXPAD@Z 004adb70 f   rose:RoseDesign.obj
 0001:000acbe0       ?name@RoseDesign@@QAEPADXZ 004adbe0 f   rose:RoseDesign.obj
 0001:000acbf0       ?format@RoseDesign@@QAEPADXZ 004adbf0 f   rose:RoseDesign.obj
 0001:000acc00       ?format@RoseDesign@@QAEXPBD@Z 004adc00 f   rose:RoseDesign.obj
 0001:000acc40       ?addName@RoseDesign@@QAEXPADPAVRoseObject@@@Z 004adc40 f   rose:RoseDesign.obj
 0001:000acca0       ?removeName@RoseDesign@@QAEPAVRoseObject@@PAD@Z 004adca0 f   rose:RoseDesign.obj
 0001:000accf0       ?fileDirectory@RoseDesign@@QAEXPAD@Z 004adcf0 f   rose:RoseDesign.obj
 0001:000acd00       ?fileDirectory@RoseDesign@@QAEPADXZ 004add00 f   rose:RoseDesign.obj
 0001:000acd50       ?fileExtension@RoseDesign@@QAEXPAD@Z 004add50 f   rose:RoseDesign.obj
 0001:000acd60       ?fileExtension@RoseDesign@@QAEPADXZ 004add60 f   rose:RoseDesign.obj
 0001:000ace10       ?deftypes@RoseDesign@@QAEPAVListOfRoseDefType@@XZ 004ade10 f   rose:RoseDesign.obj
 0001:000ace50       ??_GListOfRoseDefType@@UAEPAXI@Z 004ade50 f i rose:RoseDesign.obj
 0001:000ace50       ??_EListOfRoseDefType@@UAEPAXI@Z 004ade50 f i rose:RoseDesign.obj
 0001:000ace70       ?deftypes@RoseDesign@@QAEXPAVListOfRoseDefType@@@Z 004ade70 f   rose:RoseDesign.obj
 0001:000ace80       ?_statusReadStart@RoseDesign@@QAEXXZ 004ade80 f   rose:RoseDesign.obj
 0001:000ace90       ?_statusReadFinish@RoseDesign@@QAEXXZ 004ade90 f   rose:RoseDesign.obj
 0001:000acea0       ?computeSchemas@RoseDesign@@QAEXXZ 004adea0 f   rose:RoseDesign.obj
 0001:000acf80       ?header_description@RoseDesign@@QAEPAVfile_description@@XZ 004adf80 f   rose:RoseDesign.obj
 0001:000acf90       ?header_name@RoseDesign@@QAEPAVfile_name@@XZ 004adf90 f   rose:RoseDesign.obj
 0001:000acfa0       ?initialize_header@RoseDesign@@QAEXXZ 004adfa0 f   rose:RoseDesign.obj
 0001:000ad0b0       ?rose_iso_timestamp_from_time@@YAPADJ@Z 004ae0b0 f   rose:RoseDesign.obj
 0001:000ad160       ?rose_iso_timestamp@@YAPADXZ 004ae160 f   rose:RoseDesign.obj
 0001:000ad180       ?rootObject@RoseDesign@@QAEPAVRoseObject@@XZ 004ae180 f   rose:RoseDesign.obj
 0001:000ad1a0       ?rootObject@RoseDesign@@QAEXPAVRoseObject@@@Z 004ae1a0 f   rose:RoseDesign.obj
 0001:000ad1c0       ?nameTable@RoseDesign@@QAEPAVDictionaryOfRoseObject@@XZ 004ae1c0 f   rose:RoseDesign.obj
 0001:000ad1e0       ?nameTable@RoseDesign@@QAEXPAVDictionaryOfRoseObject@@@Z 004ae1e0 f   rose:RoseDesign.obj
 0001:000ad200       ?aliases@RoseDesign@@QAEXPAVDictionaryOfString@@@Z 004ae200 f   rose:RoseDesign.obj
 0001:000ad210       ?aliases@RoseDesign@@QAEPAVDictionaryOfString@@XZ 004ae210 f   rose:RoseDesign.obj
 0001:000ad220       ?activate@RoseDesign@@UAEXXZ 004ae220 f   rose:RoseDesign.obj
 0001:000ad3f0       ?resolve_schema@RoseDesign@@QAEXXZ 004ae3f0 f   rose:RoseDesign.obj
 0001:000ad480       ?activate_schema@RoseDesign@@QAEXXZ 004ae480 f   rose:RoseDesign.obj
 0001:000ad930       ?rose_find_alias_file@@YAPAU_iobuf@@PAD@Z 004ae930 f   rose:RoseDesign.obj
 0001:000adb20       ?rose_load_alias_file@@YAXPAU_iobuf@@PAVDictionaryOfString@@@Z 004aeb20 f   rose:RoseDesign.obj
 0001:000adbc0       ?rose_merge_aliases@@YAXPAVRoseDesign@@PAVDictionaryOfString@@@Z 004aebc0 f   rose:RoseDesign.obj
 0001:000adcb0       ?passivate@RoseDesign@@QAEXXZ 004aecb0 f   rose:RoseDesign.obj
 0001:000adf40       ??0RoseDesignSection@@QAE@PAVRoseDesign@@W4RoseDesignSectionType@@@Z 004aef40 f   rose:RoseDesign.obj
 0001:000adf70       ??1RoseDesignSection@@QAE@XZ 004aef70 f   rose:RoseDesign.obj
 0001:000adfd0       ?ap_context@RoseDesignSection@@QAEPAVRoseAPContext@@XZ 004aefd0 f   rose:RoseDesign.obj
 0001:000adff0       ?size@RoseDesignSection@@QAEIXZ 004aeff0 f   rose:RoseDesign.obj
 0001:000ae010       ?design@RoseDesignSection@@QAEXPAVRoseDesign@@@Z 004af010 f   rose:RoseDesign.obj
 0001:000ae0c0       ?name@RoseDesignSection@@QAEPADXZ 004af0c0 f   rose:RoseDesign.obj
 0001:000ae0d0       ?name@RoseDesignSection@@QAEXPBD@Z 004af0d0 f   rose:RoseDesign.obj
 0001:000ae120       ?_address@SetOfInteger@@UAEPAXXZ 004af120 f   rose:RoseAggs.obj
 0001:000ae130       ?classType@SetOfInteger@@UAEAAVRoseTypePtr@@XZ 004af130 f   rose:RoseAggs.obj
 0001:000ae1c0       ?SetOfInteger_INIT_FCN@@YAXAAVRoseTypePtr@@@Z 004af1c0 f   rose:RoseAggs.obj
 0001:000ae270       ?_data@SetOfInteger@@QAEPAHXZ 004af270 f   rose:RoseAggs.obj
 0001:000ae280       ??ASetOfInteger@@QAEHI@Z   004af280 f   rose:RoseAggs.obj
 0001:000ae2b0       ?get@SetOfInteger@@QAEHI@Z 004af2b0 f   rose:RoseAggs.obj
 0001:000ae2e0       ?first@SetOfInteger@@QAEHXZ 004af2e0 f   rose:RoseAggs.obj
 0001:000ae300       ?last@SetOfInteger@@QAEHXZ 004af300 f   rose:RoseAggs.obj
 0001:000ae330       ?contains@SetOfInteger@@QAEDH@Z 004af330 f   rose:RoseAggs.obj
 0001:000ae350       ?_element@SetOfInteger@@QAEHI@Z 004af350 f   rose:RoseAggs.obj
 0001:000ae370       ?slotType@SetOfInteger@@UAEAAVRoseTypePtr@@PAVRoseAttribute@@I@Z 004af370 f   rose:RoseAggs.obj
 0001:000ae380       ?removeValue@SetOfInteger@@QAEXH@Z 004af380 f   rose:RoseAggs.obj
 0001:000ae3b0       ?put@SetOfInteger@@QAEPAV1@HI@Z 004af3b0 f   rose:RoseAggs.obj
 0001:000ae420       ??0SetOfInteger@@QAE@I@Z   004af420 f   rose:RoseAggs.obj
 0001:000ae450       ?recordSize@SetOfInteger@@UAEIXZ 004af450 f i rose:RoseAggs.obj
 0001:000ae460       ??_ESetOfInteger@@UAEPAXI@Z 004af460 f i rose:RoseAggs.obj
 0001:000ae460       ??_GSetOfInteger@@UAEPAXI@Z 004af460 f i rose:RoseAggs.obj
 0001:000ae480       ?_allocateElements@SetOfInteger@@MAEPAXI@Z 004af480 f   rose:RoseAggs.obj
 0001:000ae4a0       ?add@SetOfInteger@@QAEPAV1@H@Z 004af4a0 f   rose:RoseAggs.obj
 0001:000ae500       ?isAllowed@SetOfInteger@@QAEDH@Z 004af500 f   rose:RoseAggs.obj
 0001:000ae520       ?find@SetOfInteger@@QAEIH@Z 004af520 f   rose:RoseAggs.obj
 0001:000ae5c0       ?_address@SetOfDouble@@UAEPAXXZ 004af5c0 f   rose:RoseAggs.obj
 0001:000ae5d0       ?classType@SetOfDouble@@UAEAAVRoseTypePtr@@XZ 004af5d0 f   rose:RoseAggs.obj
 0001:000ae660       ?SetOfDouble_INIT_FCN@@YAXAAVRoseTypePtr@@@Z 004af660 f   rose:RoseAggs.obj
 0001:000ae710       ?_data@SetOfDouble@@QAEPANXZ 004af710 f   rose:RoseAggs.obj
 0001:000ae720       ??ASetOfDouble@@QAENI@Z    004af720 f   rose:RoseAggs.obj
 0001:000ae750       ?get@SetOfDouble@@QAENI@Z  004af750 f   rose:RoseAggs.obj
 0001:000ae780       ?first@SetOfDouble@@QAENXZ 004af780 f   rose:RoseAggs.obj
 0001:000ae7a0       ?last@SetOfDouble@@QAENXZ  004af7a0 f   rose:RoseAggs.obj
 0001:000ae7d0       ?contains@SetOfDouble@@QAEDN@Z 004af7d0 f   rose:RoseAggs.obj
 0001:000ae7f0       ?_element@SetOfDouble@@QAENI@Z 004af7f0 f   rose:RoseAggs.obj
 0001:000ae810       ?slotType@SetOfDouble@@UAEAAVRoseTypePtr@@PAVRoseAttribute@@I@Z 004af810 f   rose:RoseAggs.obj
 0001:000ae820       ?removeValue@SetOfDouble@@QAEXN@Z 004af820 f   rose:RoseAggs.obj
 0001:000ae860       ?put@SetOfDouble@@QAEPAV1@NI@Z 004af860 f   rose:RoseAggs.obj
 0001:000ae8d0       ??0SetOfDouble@@QAE@I@Z    004af8d0 f   rose:RoseAggs.obj
 0001:000ae900       ?recordSize@SetOfDouble@@UAEIXZ 004af900 f i rose:RoseAggs.obj
 0001:000ae910       ??_GSetOfDouble@@UAEPAXI@Z 004af910 f i rose:RoseAggs.obj
 0001:000ae910       ??_ESetOfDouble@@UAEPAXI@Z 004af910 f i rose:RoseAggs.obj
 0001:000ae930       ?_allocateElements@SetOfDouble@@MAEPAXI@Z 004af930 f   rose:RoseAggs.obj
 0001:000ae950       ?add@SetOfDouble@@QAEPAV1@N@Z 004af950 f   rose:RoseAggs.obj
 0001:000ae9b0       ?isAllowed@SetOfDouble@@QAEDN@Z 004af9b0 f   rose:RoseAggs.obj
 0001:000ae9d0       ?find@SetOfDouble@@QAEIN@Z 004af9d0 f   rose:RoseAggs.obj
 0001:000aea70       ?_address@SetOfBoolean@@UAEPAXXZ 004afa70 f   rose:RoseAggs.obj
 0001:000aea80       ?classType@SetOfBoolean@@UAEAAVRoseTypePtr@@XZ 004afa80 f   rose:RoseAggs.obj
 0001:000aeb10       ?SetOfBoolean_INIT_FCN@@YAXAAVRoseTypePtr@@@Z 004afb10 f   rose:RoseAggs.obj
 0001:000aebc0       ?_data@SetOfBoolean@@QAEPADXZ 004afbc0 f   rose:RoseAggs.obj
 0001:000aebd0       ??ASetOfBoolean@@QAEDI@Z   004afbd0 f   rose:RoseAggs.obj
 0001:000aec00       ?get@SetOfBoolean@@QAEDI@Z 004afc00 f   rose:RoseAggs.obj
 0001:000aec30       ?first@SetOfBoolean@@QAEDXZ 004afc30 f   rose:RoseAggs.obj
 0001:000aec50       ?last@SetOfBoolean@@QAEDXZ 004afc50 f   rose:RoseAggs.obj
 0001:000aec80       ?contains@SetOfBoolean@@QAEDD@Z 004afc80 f   rose:RoseAggs.obj
 0001:000aeca0       ?_element@SetOfBoolean@@QAEDI@Z 004afca0 f   rose:RoseAggs.obj
 0001:000aecc0       ?slotType@SetOfBoolean@@UAEAAVRoseTypePtr@@PAVRoseAttribute@@I@Z 004afcc0 f   rose:RoseAggs.obj
 0001:000aecd0       ?removeValue@SetOfBoolean@@QAEXD@Z 004afcd0 f   rose:RoseAggs.obj
 0001:000aed00       ?put@SetOfBoolean@@QAEPAV1@DI@Z 004afd00 f   rose:RoseAggs.obj
 0001:000aed70       ??0SetOfBoolean@@QAE@I@Z   004afd70 f   rose:RoseAggs.obj
 0001:000aeda0       ?recordSize@SetOfBoolean@@UAEIXZ 004afda0 f i rose:RoseAggs.obj
 0001:000aedb0       ??_GSetOfBoolean@@UAEPAXI@Z 004afdb0 f i rose:RoseAggs.obj
 0001:000aedb0       ??_ESetOfBoolean@@UAEPAXI@Z 004afdb0 f i rose:RoseAggs.obj
 0001:000aedd0       ?_allocateElements@SetOfBoolean@@MAEPAXI@Z 004afdd0 f   rose:RoseAggs.obj
 0001:000aedf0       ?add@SetOfBoolean@@QAEPAV1@D@Z 004afdf0 f   rose:RoseAggs.obj
 0001:000aee50       ?isAllowed@SetOfBoolean@@QAEDD@Z 004afe50 f   rose:RoseAggs.obj
 0001:000aee70       ?find@SetOfBoolean@@QAEID@Z 004afe70 f   rose:RoseAggs.obj
 0001:000aef10       ?_address@SetOfFloat@@UAEPAXXZ 004aff10 f   rose:RoseAggs.obj
 0001:000aef20       ?classType@SetOfFloat@@UAEAAVRoseTypePtr@@XZ 004aff20 f   rose:RoseAggs.obj
 0001:000aefb0       ?SetOfFloat_INIT_FCN@@YAXAAVRoseTypePtr@@@Z 004affb0 f   rose:RoseAggs.obj
 0001:000af060       ?_data@SetOfFloat@@QAEPAMXZ 004b0060 f   rose:RoseAggs.obj
 0001:000af070       ??ASetOfFloat@@QAENI@Z     004b0070 f   rose:RoseAggs.obj
 0001:000af0a0       ?get@SetOfFloat@@QAENI@Z   004b00a0 f   rose:RoseAggs.obj
 0001:000af0d0       ?first@SetOfFloat@@QAENXZ  004b00d0 f   rose:RoseAggs.obj
 0001:000af0f0       ?last@SetOfFloat@@QAENXZ   004b00f0 f   rose:RoseAggs.obj
 0001:000af120       ?contains@SetOfFloat@@QAEDN@Z 004b0120 f   rose:RoseAggs.obj
 0001:000af140       ?_element@SetOfFloat@@QAENI@Z 004b0140 f   rose:RoseAggs.obj
 0001:000af160       ?slotType@SetOfFloat@@UAEAAVRoseTypePtr@@PAVRoseAttribute@@I@Z 004b0160 f   rose:RoseAggs.obj
 0001:000af170       ?removeValue@SetOfFloat@@QAEXN@Z 004b0170 f   rose:RoseAggs.obj
 0001:000af1b0       ?put@SetOfFloat@@QAEPAV1@NI@Z 004b01b0 f   rose:RoseAggs.obj
 0001:000af220       ??0SetOfFloat@@QAE@I@Z     004b0220 f   rose:RoseAggs.obj
 0001:000af250       ?recordSize@SetOfFloat@@UAEIXZ 004b0250 f i rose:RoseAggs.obj
 0001:000af260       ??_ESetOfFloat@@UAEPAXI@Z  004b0260 f i rose:RoseAggs.obj
 0001:000af260       ??_GSetOfFloat@@UAEPAXI@Z  004b0260 f i rose:RoseAggs.obj
 0001:000af280       ?_allocateElements@SetOfFloat@@MAEPAXI@Z 004b0280 f   rose:RoseAggs.obj
 0001:000af2a0       ?add@SetOfFloat@@QAEPAV1@N@Z 004b02a0 f   rose:RoseAggs.obj
 0001:000af300       ?isAllowed@SetOfFloat@@QAEDN@Z 004b0300 f   rose:RoseAggs.obj
 0001:000af320       ?find@SetOfFloat@@QAEIN@Z  004b0320 f   rose:RoseAggs.obj
 0001:000af3c0       ?_address@SetOfString@@UAEPAXXZ 004b03c0 f   rose:RoseAggs.obj
 0001:000af3d0       ?classType@SetOfString@@UAEAAVRoseTypePtr@@XZ 004b03d0 f   rose:RoseAggs.obj
 0001:000af460       ?SetOfString_INIT_FCN@@YAXAAVRoseTypePtr@@@Z 004b0460 f   rose:RoseAggs.obj
 0001:000af510       ?_data@SetOfString@@QAEPAPADXZ 004b0510 f   rose:RoseAggs.obj
 0001:000af520       ??ASetOfString@@QAEPADI@Z  004b0520 f   rose:RoseAggs.obj
 0001:000af550       ?get@SetOfString@@QAEPADI@Z 004b0550 f   rose:RoseAggs.obj
 0001:000af580       ?first@SetOfString@@QAEPADXZ 004b0580 f   rose:RoseAggs.obj
 0001:000af5a0       ?last@SetOfString@@QAEPADXZ 004b05a0 f   rose:RoseAggs.obj
 0001:000af5d0       ?contains@SetOfString@@QAEDPAD@Z 004b05d0 f   rose:RoseAggs.obj
 0001:000af5f0       ?_element@SetOfString@@QAEPADI@Z 004b05f0 f   rose:RoseAggs.obj
 0001:000af610       ?slotType@SetOfString@@UAEAAVRoseTypePtr@@PAVRoseAttribute@@I@Z 004b0610 f   rose:RoseAggs.obj
 0001:000af620       ?removeValue@SetOfString@@QAEXPAD@Z 004b0620 f   rose:RoseAggs.obj
 0001:000af650       ?put@SetOfString@@QAEPAV1@PADI@Z 004b0650 f   rose:RoseAggs.obj
 0001:000af6c0       ??0SetOfString@@QAE@I@Z    004b06c0 f   rose:RoseAggs.obj
 0001:000af6f0       ?_allocateElements@SetOfString@@MAEPAXI@Z 004b06f0 f   rose:RoseAggs.obj
 0001:000af710       ?add@SetOfString@@QAEPAV1@PAD@Z 004b0710 f   rose:RoseAggs.obj
 0001:000af770       ?isAllowed@SetOfString@@QAEDPAD@Z 004b0770 f   rose:RoseAggs.obj
 0001:000af790       ?find@SetOfString@@QAEIPAD@Z 004b0790 f   rose:RoseAggs.obj
 0001:000af870       ??_ESetOfRoseObject@@UAEPAXI@Z 004b0870 f i rose:RoseAggs.obj
 0001:000af870       ??_GSetOfRoseObject@@UAEPAXI@Z 004b0870 f i rose:RoseAggs.obj
 0001:000af8b0       ?_address@SetOfRoseObject@@UAEPAXXZ 004b08b0 f   rose:RoseAggs.obj
 0001:000af8c0       ?classType@SetOfRoseObject@@UAEAAVRoseTypePtr@@XZ 004b08c0 f   rose:RoseAggs.obj
 0001:000af970       ?SetOfRoseObject_INIT_FCN@@YAXAAVRoseTypePtr@@@Z 004b0970 f   rose:RoseAggs.obj
 0001:000afa30       ?_data@SetOfRoseObject@@QAEPAPAVRoseObject@@XZ 004b0a30 f   rose:RoseAggs.obj
 0001:000afa40       ??ASetOfRoseObject@@QAEPAVRoseObject@@I@Z 004b0a40 f   rose:RoseAggs.obj
 0001:000afa70       ?get@SetOfRoseObject@@QAEPAVRoseObject@@I@Z 004b0a70 f   rose:RoseAggs.obj
 0001:000afaa0       ?first@SetOfRoseObject@@QAEPAVRoseObject@@XZ 004b0aa0 f   rose:RoseAggs.obj
 0001:000afac0       ?last@SetOfRoseObject@@QAEPAVRoseObject@@XZ 004b0ac0 f   rose:RoseAggs.obj
 0001:000afaf0       ?contains@SetOfRoseObject@@QAEDPAVRoseObject@@@Z 004b0af0 f   rose:RoseAggs.obj
 0001:000afb10       ?_element@SetOfRoseObject@@QAEPAVRoseObject@@I@Z 004b0b10 f   rose:RoseAggs.obj
 0001:000afb60       ?slotType@SetOfRoseObject@@UAEAAVRoseTypePtr@@PAVRoseAttribute@@I@Z 004b0b60 f   rose:RoseAggs.obj
 0001:000afbb0       ?_address@BagOfInteger@@UAEPAXXZ 004b0bb0 f   rose:RoseAggs.obj
 0001:000afbc0       ?classType@BagOfInteger@@UAEAAVRoseTypePtr@@XZ 004b0bc0 f   rose:RoseAggs.obj
 0001:000afc50       ?BagOfInteger_INIT_FCN@@YAXAAVRoseTypePtr@@@Z 004b0c50 f   rose:RoseAggs.obj
 0001:000afd00       ?_data@BagOfInteger@@QAEPAHXZ 004b0d00 f   rose:RoseAggs.obj
 0001:000afd10       ??ABagOfInteger@@QAEHI@Z   004b0d10 f   rose:RoseAggs.obj
 0001:000afd40       ?get@BagOfInteger@@QAEHI@Z 004b0d40 f   rose:RoseAggs.obj
 0001:000afd70       ?first@BagOfInteger@@QAEHXZ 004b0d70 f   rose:RoseAggs.obj
 0001:000afd90       ?last@BagOfInteger@@QAEHXZ 004b0d90 f   rose:RoseAggs.obj
 0001:000afdc0       ?contains@BagOfInteger@@QAEDH@Z 004b0dc0 f   rose:RoseAggs.obj
 0001:000afde0       ?_element@BagOfInteger@@QAEHI@Z 004b0de0 f   rose:RoseAggs.obj
 0001:000afe00       ?slotType@BagOfInteger@@UAEAAVRoseTypePtr@@PAVRoseAttribute@@I@Z 004b0e00 f   rose:RoseAggs.obj
 0001:000afe10       ?removeValue@BagOfInteger@@QAEXH@Z 004b0e10 f   rose:RoseAggs.obj
 0001:000afe40       ?put@BagOfInteger@@QAEPAV1@HI@Z 004b0e40 f   rose:RoseAggs.obj
 0001:000afeb0       ??0BagOfInteger@@QAE@I@Z   004b0eb0 f   rose:RoseAggs.obj
 0001:000afee0       ?recordSize@BagOfInteger@@UAEIXZ 004b0ee0 f i rose:RoseAggs.obj
 0001:000afef0       ??_EBagOfInteger@@UAEPAXI@Z 004b0ef0 f i rose:RoseAggs.obj
 0001:000afef0       ??_GBagOfInteger@@UAEPAXI@Z 004b0ef0 f i rose:RoseAggs.obj
 0001:000aff10       ?_allocateElements@BagOfInteger@@MAEPAXI@Z 004b0f10 f   rose:RoseAggs.obj
 0001:000aff30       ?add@BagOfInteger@@QAEPAV1@H@Z 004b0f30 f   rose:RoseAggs.obj
 0001:000aff90       ?isAllowed@BagOfInteger@@QAEDH@Z 004b0f90 f   rose:RoseAggs.obj
 0001:000affa0       ?find@BagOfInteger@@QAEIH@Z 004b0fa0 f   rose:RoseAggs.obj
 0001:000b0040       ?_address@BagOfDouble@@UAEPAXXZ 004b1040 f   rose:RoseAggs.obj
 0001:000b0050       ?classType@BagOfDouble@@UAEAAVRoseTypePtr@@XZ 004b1050 f   rose:RoseAggs.obj
 0001:000b00e0       ?BagOfDouble_INIT_FCN@@YAXAAVRoseTypePtr@@@Z 004b10e0 f   rose:RoseAggs.obj
 0001:000b0190       ?_data@BagOfDouble@@QAEPANXZ 004b1190 f   rose:RoseAggs.obj
 0001:000b01a0       ??ABagOfDouble@@QAENI@Z    004b11a0 f   rose:RoseAggs.obj
 0001:000b01d0       ?get@BagOfDouble@@QAENI@Z  004b11d0 f   rose:RoseAggs.obj
 0001:000b0200       ?first@BagOfDouble@@QAENXZ 004b1200 f   rose:RoseAggs.obj
 0001:000b0220       ?last@BagOfDouble@@QAENXZ  004b1220 f   rose:RoseAggs.obj
 0001:000b0250       ?contains@BagOfDouble@@QAEDN@Z 004b1250 f   rose:RoseAggs.obj
 0001:000b0270       ?_element@BagOfDouble@@QAENI@Z 004b1270 f   rose:RoseAggs.obj
 0001:000b0290       ?slotType@BagOfDouble@@UAEAAVRoseTypePtr@@PAVRoseAttribute@@I@Z 004b1290 f   rose:RoseAggs.obj
 0001:000b02a0       ?removeValue@BagOfDouble@@QAEXN@Z 004b12a0 f   rose:RoseAggs.obj
 0001:000b02e0       ?put@BagOfDouble@@QAEPAV1@NI@Z 004b12e0 f   rose:RoseAggs.obj
 0001:000b0350       ??0BagOfDouble@@QAE@I@Z    004b1350 f   rose:RoseAggs.obj
 0001:000b0380       ?recordSize@BagOfDouble@@UAEIXZ 004b1380 f i rose:RoseAggs.obj
 0001:000b0390       ??_GBagOfDouble@@UAEPAXI@Z 004b1390 f i rose:RoseAggs.obj
 0001:000b0390       ??_EBagOfDouble@@UAEPAXI@Z 004b1390 f i rose:RoseAggs.obj
 0001:000b03b0       ?_allocateElements@BagOfDouble@@MAEPAXI@Z 004b13b0 f   rose:RoseAggs.obj
 0001:000b03d0       ?add@BagOfDouble@@QAEPAV1@N@Z 004b13d0 f   rose:RoseAggs.obj
 0001:000b0430       ?isAllowed@BagOfDouble@@QAEDN@Z 004b1430 f   rose:RoseAggs.obj
 0001:000b0440       ?find@BagOfDouble@@QAEIN@Z 004b1440 f   rose:RoseAggs.obj
 0001:000b04e0       ?_address@BagOfBoolean@@UAEPAXXZ 004b14e0 f   rose:RoseAggs.obj
 0001:000b04f0       ?classType@BagOfBoolean@@UAEAAVRoseTypePtr@@XZ 004b14f0 f   rose:RoseAggs.obj
 0001:000b0580       ?BagOfBoolean_INIT_FCN@@YAXAAVRoseTypePtr@@@Z 004b1580 f   rose:RoseAggs.obj
 0001:000b0630       ?_data@BagOfBoolean@@QAEPADXZ 004b1630 f   rose:RoseAggs.obj
 0001:000b0640       ??ABagOfBoolean@@QAEDI@Z   004b1640 f   rose:RoseAggs.obj
 0001:000b0670       ?get@BagOfBoolean@@QAEDI@Z 004b1670 f   rose:RoseAggs.obj
 0001:000b06a0       ?first@BagOfBoolean@@QAEDXZ 004b16a0 f   rose:RoseAggs.obj
 0001:000b06c0       ?last@BagOfBoolean@@QAEDXZ 004b16c0 f   rose:RoseAggs.obj
 0001:000b06f0       ?contains@BagOfBoolean@@QAEDD@Z 004b16f0 f   rose:RoseAggs.obj
 0001:000b0710       ?_element@BagOfBoolean@@QAEDI@Z 004b1710 f   rose:RoseAggs.obj
 0001:000b0730       ?slotType@BagOfBoolean@@UAEAAVRoseTypePtr@@PAVRoseAttribute@@I@Z 004b1730 f   rose:RoseAggs.obj
 0001:000b0740       ?removeValue@BagOfBoolean@@QAEXD@Z 004b1740 f   rose:RoseAggs.obj
 0001:000b0770       ?put@BagOfBoolean@@QAEPAV1@DI@Z 004b1770 f   rose:RoseAggs.obj
 0001:000b07e0       ??0BagOfBoolean@@QAE@I@Z   004b17e0 f   rose:RoseAggs.obj
 0001:000b0810       ?recordSize@BagOfBoolean@@UAEIXZ 004b1810 f i rose:RoseAggs.obj
 0001:000b0820       ??_GBagOfBoolean@@UAEPAXI@Z 004b1820 f i rose:RoseAggs.obj
 0001:000b0820       ??_EBagOfBoolean@@UAEPAXI@Z 004b1820 f i rose:RoseAggs.obj
 0001:000b0840       ?_allocateElements@BagOfBoolean@@MAEPAXI@Z 004b1840 f   rose:RoseAggs.obj
 0001:000b0860       ?add@BagOfBoolean@@QAEPAV1@D@Z 004b1860 f   rose:RoseAggs.obj
 0001:000b08c0       ?isAllowed@BagOfBoolean@@QAEDD@Z 004b18c0 f   rose:RoseAggs.obj
 0001:000b08d0       ?find@BagOfBoolean@@QAEID@Z 004b18d0 f   rose:RoseAggs.obj
 0001:000b0970       ?_address@BagOfFloat@@UAEPAXXZ 004b1970 f   rose:RoseAggs.obj
 0001:000b0980       ?classType@BagOfFloat@@UAEAAVRoseTypePtr@@XZ 004b1980 f   rose:RoseAggs.obj
 0001:000b0a10       ?BagOfFloat_INIT_FCN@@YAXAAVRoseTypePtr@@@Z 004b1a10 f   rose:RoseAggs.obj
 0001:000b0ac0       ?_data@BagOfFloat@@QAEPAMXZ 004b1ac0 f   rose:RoseAggs.obj
 0001:000b0ad0       ??ABagOfFloat@@QAENI@Z     004b1ad0 f   rose:RoseAggs.obj
 0001:000b0b00       ?get@BagOfFloat@@QAENI@Z   004b1b00 f   rose:RoseAggs.obj
 0001:000b0b30       ?first@BagOfFloat@@QAENXZ  004b1b30 f   rose:RoseAggs.obj
 0001:000b0b50       ?last@BagOfFloat@@QAENXZ   004b1b50 f   rose:RoseAggs.obj
 0001:000b0b80       ?contains@BagOfFloat@@QAEDN@Z 004b1b80 f   rose:RoseAggs.obj
 0001:000b0ba0       ?_element@BagOfFloat@@QAENI@Z 004b1ba0 f   rose:RoseAggs.obj
 0001:000b0bc0       ?slotType@BagOfFloat@@UAEAAVRoseTypePtr@@PAVRoseAttribute@@I@Z 004b1bc0 f   rose:RoseAggs.obj
 0001:000b0bd0       ?removeValue@BagOfFloat@@QAEXN@Z 004b1bd0 f   rose:RoseAggs.obj
 0001:000b0c10       ?put@BagOfFloat@@QAEPAV1@NI@Z 004b1c10 f   rose:RoseAggs.obj
 0001:000b0c80       ??0BagOfFloat@@QAE@I@Z     004b1c80 f   rose:RoseAggs.obj
 0001:000b0cb0       ?recordSize@BagOfFloat@@UAEIXZ 004b1cb0 f i rose:RoseAggs.obj
 0001:000b0cc0       ??_GBagOfFloat@@UAEPAXI@Z  004b1cc0 f i rose:RoseAggs.obj
 0001:000b0cc0       ??_EBagOfFloat@@UAEPAXI@Z  004b1cc0 f i rose:RoseAggs.obj
 0001:000b0ce0       ?_allocateElements@BagOfFloat@@MAEPAXI@Z 004b1ce0 f   rose:RoseAggs.obj
 0001:000b0d00       ?add@BagOfFloat@@QAEPAV1@N@Z 004b1d00 f   rose:RoseAggs.obj
 0001:000b0d60       ?isAllowed@BagOfFloat@@QAEDN@Z 004b1d60 f   rose:RoseAggs.obj
 0001:000b0d70       ?find@BagOfFloat@@QAEIN@Z  004b1d70 f   rose:RoseAggs.obj
 0001:000b0e10       ?_address@BagOfString@@UAEPAXXZ 004b1e10 f   rose:RoseAggs.obj
 0001:000b0e20       ?classType@BagOfString@@UAEAAVRoseTypePtr@@XZ 004b1e20 f   rose:RoseAggs.obj
 0001:000b0eb0       ?BagOfString_INIT_FCN@@YAXAAVRoseTypePtr@@@Z 004b1eb0 f   rose:RoseAggs.obj
 0001:000b0f60       ?_data@BagOfString@@QAEPAPADXZ 004b1f60 f   rose:RoseAggs.obj
 0001:000b0f70       ??ABagOfString@@QAEPADI@Z  004b1f70 f   rose:RoseAggs.obj
 0001:000b0fa0       ?get@BagOfString@@QAEPADI@Z 004b1fa0 f   rose:RoseAggs.obj
 0001:000b0fd0       ?first@BagOfString@@QAEPADXZ 004b1fd0 f   rose:RoseAggs.obj
 0001:000b0ff0       ?last@BagOfString@@QAEPADXZ 004b1ff0 f   rose:RoseAggs.obj
 0001:000b1020       ?contains@BagOfString@@QAEDPAD@Z 004b2020 f   rose:RoseAggs.obj
 0001:000b1040       ?_element@BagOfString@@QAEPADI@Z 004b2040 f   rose:RoseAggs.obj
 0001:000b1060       ?slotType@BagOfString@@UAEAAVRoseTypePtr@@PAVRoseAttribute@@I@Z 004b2060 f   rose:RoseAggs.obj
 0001:000b1070       ?removeValue@BagOfString@@QAEXPAD@Z 004b2070 f   rose:RoseAggs.obj
 0001:000b10a0       ?put@BagOfString@@QAEPAV1@PADI@Z 004b20a0 f   rose:RoseAggs.obj
 0001:000b1110       ??0BagOfString@@QAE@I@Z    004b2110 f   rose:RoseAggs.obj
 0001:000b1140       ?recordSize@BagOfString@@UAEIXZ 004b2140 f i rose:RoseAggs.obj
 0001:000b1150       ??_GBagOfString@@UAEPAXI@Z 004b2150 f i rose:RoseAggs.obj
 0001:000b1150       ??_EBagOfString@@UAEPAXI@Z 004b2150 f i rose:RoseAggs.obj
 0001:000b1170       ?_allocateElements@BagOfString@@MAEPAXI@Z 004b2170 f   rose:RoseAggs.obj
 0001:000b1190       ?add@BagOfString@@QAEPAV1@PAD@Z 004b2190 f   rose:RoseAggs.obj
 0001:000b11f0       ?isAllowed@BagOfString@@QAEDPAD@Z 004b21f0 f   rose:RoseAggs.obj
 0001:000b1200       ?find@BagOfString@@QAEIPAD@Z 004b2200 f   rose:RoseAggs.obj
 0001:000b12e0       ??_EBagOfRoseObject@@UAEPAXI@Z 004b22e0 f i rose:RoseAggs.obj
 0001:000b12e0       ??_GBagOfRoseObject@@UAEPAXI@Z 004b22e0 f i rose:RoseAggs.obj
 0001:000b1320       ?_address@BagOfRoseObject@@UAEPAXXZ 004b2320 f   rose:RoseAggs.obj
 0001:000b1330       ?classType@BagOfRoseObject@@UAEAAVRoseTypePtr@@XZ 004b2330 f   rose:RoseAggs.obj
 0001:000b13e0       ?BagOfRoseObject_INIT_FCN@@YAXAAVRoseTypePtr@@@Z 004b23e0 f   rose:RoseAggs.obj
 0001:000b14a0       ?_data@BagOfRoseObject@@QAEPAPAVRoseObject@@XZ 004b24a0 f   rose:RoseAggs.obj
 0001:000b14b0       ??ABagOfRoseObject@@QAEPAVRoseObject@@I@Z 004b24b0 f   rose:RoseAggs.obj
 0001:000b14e0       ?get@BagOfRoseObject@@QAEPAVRoseObject@@I@Z 004b24e0 f   rose:RoseAggs.obj
 0001:000b1510       ?first@BagOfRoseObject@@QAEPAVRoseObject@@XZ 004b2510 f   rose:RoseAggs.obj
 0001:000b1530       ?last@BagOfRoseObject@@QAEPAVRoseObject@@XZ 004b2530 f   rose:RoseAggs.obj
 0001:000b1560       ?contains@BagOfRoseObject@@QAEDPAVRoseObject@@@Z 004b2560 f   rose:RoseAggs.obj
 0001:000b1580       ?_element@BagOfRoseObject@@QAEPAVRoseObject@@I@Z 004b2580 f   rose:RoseAggs.obj
 0001:000b15d0       ?slotType@BagOfRoseObject@@UAEAAVRoseTypePtr@@PAVRoseAttribute@@I@Z 004b25d0 f   rose:RoseAggs.obj
 0001:000b1620       ?_address@ArrayOfInteger@@UAEPAXXZ 004b2620 f   rose:RoseAggs.obj
 0001:000b1630       ?classType@ArrayOfInteger@@UAEAAVRoseTypePtr@@XZ 004b2630 f   rose:RoseAggs.obj
 0001:000b16c0       ?ArrayOfInteger_INIT_FCN@@YAXAAVRoseTypePtr@@@Z 004b26c0 f   rose:RoseAggs.obj
 0001:000b1770       ?_data@ArrayOfInteger@@QAEPAHXZ 004b2770 f   rose:RoseAggs.obj
 0001:000b1780       ??AArrayOfInteger@@QAEHI@Z 004b2780 f   rose:RoseAggs.obj
 0001:000b17b0       ?get@ArrayOfInteger@@QAEHI@Z 004b27b0 f   rose:RoseAggs.obj
 0001:000b17e0       ?first@ArrayOfInteger@@QAEHXZ 004b27e0 f   rose:RoseAggs.obj
 0001:000b1800       ?last@ArrayOfInteger@@QAEHXZ 004b2800 f   rose:RoseAggs.obj
 0001:000b1830       ?contains@ArrayOfInteger@@QAEDH@Z 004b2830 f   rose:RoseAggs.obj
 0001:000b1850       ?_element@ArrayOfInteger@@QAEHI@Z 004b2850 f   rose:RoseAggs.obj
 0001:000b1870       ?slotType@ArrayOfInteger@@UAEAAVRoseTypePtr@@PAVRoseAttribute@@I@Z 004b2870 f   rose:RoseAggs.obj
 0001:000b1880       ?removeValue@ArrayOfInteger@@QAEXH@Z 004b2880 f   rose:RoseAggs.obj
 0001:000b18b0       ?put@ArrayOfInteger@@QAEPAV1@HI@Z 004b28b0 f   rose:RoseAggs.obj
 0001:000b1920       ??0ArrayOfInteger@@QAE@I@Z 004b2920 f   rose:RoseAggs.obj
 0001:000b1950       ?recordSize@ArrayOfInteger@@UAEIXZ 004b2950 f i rose:RoseAggs.obj
 0001:000b1960       ??_EArrayOfInteger@@UAEPAXI@Z 004b2960 f i rose:RoseAggs.obj
 0001:000b1960       ??_GArrayOfInteger@@UAEPAXI@Z 004b2960 f i rose:RoseAggs.obj
 0001:000b1980       ?_allocateElements@ArrayOfInteger@@MAEPAXI@Z 004b2980 f   rose:RoseAggs.obj
 0001:000b19c0       ?isAllowed@ArrayOfInteger@@QAEDH@Z 004b29c0 f   rose:RoseAggs.obj
